
qedsvm-rs/tests/fixtures/p_token.so:	file format elf64-sbf

Disassembly of section .text:

0000000000000120 <.text>:
     120: bf 17 00 00 00 00 00 00      	mov64 r7, r1
     128: 71 71 41 00 00 00 00 00      	ldxb r1, [r7 + 0x41]
     130: 15 01 02 00 00 00 00 00      	jeq r1, 0x0, +0x2 <.text+0x28>
     138: b7 05 00 00 00 00 00 00      	mov64 r5, 0x0
     140: 05 00 6d 00 00 00 00 00      	ja +0x6d <.text+0x390>
     148: 79 75 10 00 00 00 00 00      	ldxdw r5, [r7 + 0x10]
     150: 79 78 28 00 00 00 00 00      	ldxdw r8, [r7 + 0x28]
     158: 79 71 18 00 00 00 00 00      	ldxdw r1, [r7 + 0x18]
     160: 7b 1a e8 ff 00 00 00 00      	stxdw [r10 - 0x18], r1
     168: 2d 18 5d 00 00 00 00 00      	jgt r8, r1, +0x5d <.text+0x338>
     170: 79 79 20 00 00 00 00 00      	ldxdw r9, [r7 + 0x20]
     178: ad 98 5b 00 00 00 00 00      	jlt r8, r9, +0x5b <.text+0x338>
     180: bf 71 00 00 00 00 00 00      	mov64 r1, r7
     188: 07 01 00 00 30 00 00 00      	add64 r1, 0x30
     190: 71 72 38 00 00 00 00 00      	ldxb r2, [r7 + 0x38]
     198: 7b 1a d0 ff 00 00 00 00      	stxdw [r10 - 0x30], r1
     1a0: 0f 21 00 00 00 00 00 00      	add64 r1, r2
     1a8: 71 11 ff ff 00 00 00 00      	ldxb r1, [r1 - 0x1]
     1b0: 7b 5a f0 ff 00 00 00 00      	stxdw [r10 - 0x10], r5
     1b8: 7b 2a f8 ff 00 00 00 00      	stxdw [r10 - 0x8], r2
     1c0: 7b 1a d8 ff 00 00 00 00      	stxdw [r10 - 0x28], r1
     1c8: 25 02 2e 00 04 00 00 00      	jgt r2, 0x4, +0x2e <.text+0x220>
     1d0: bf 16 00 00 00 00 00 00      	mov64 r6, r1
     1d8: 7b 8a e0 ff 00 00 00 00      	stxdw [r10 - 0x20], r8
     1e0: 05 00 02 00 00 00 00 00      	ja +0x2 <.text+0xd8>
     1e8: 79 a8 e0 ff 00 00 00 00      	ldxdw r8, [r10 - 0x20]
     1f0: ad 98 4c 00 00 00 00 00      	jlt r8, r9, +0x4c <.text+0x338>
     1f8: bf 52 00 00 00 00 00 00      	mov64 r2, r5
     200: 0f 92 00 00 00 00 00 00      	add64 r2, r9
     208: bf 83 00 00 00 00 00 00      	mov64 r3, r8
     210: 1f 93 00 00 00 00 00 00      	sub64 r3, r9
     218: 25 03 09 00 0f 00 00 00      	jgt r3, 0xf, +0x9 <.text+0x148>
     220: 1d 98 45 00 00 00 00 00      	jeq r8, r9, +0x45 <.text+0x330>
     228: b7 01 00 00 00 00 00 00      	mov64 r1, 0x0
     230: bf 24 00 00 00 00 00 00      	mov64 r4, r2
     238: 0f 14 00 00 00 00 00 00      	add64 r4, r1
     240: 71 44 00 00 00 00 00 00      	ldxb r4, [r4 + 0x0]
     248: 1d 64 08 00 00 00 00 00      	jeq r4, r6, +0x8 <.text+0x170>
     250: 07 01 00 00 01 00 00 00      	add64 r1, 0x1
     258: ad 31 fa ff 00 00 00 00      	jlt r1, r3, -0x6 <.text+0x110>
     260: 05 00 3d 00 00 00 00 00      	ja +0x3d <.text+0x330>
     268: 79 a1 d8 ff 00 00 00 00      	ldxdw r1, [r10 - 0x28]
     270: 85 10 00 00 06 2e 00 00      	call 0x2e06
     278: 79 a5 f0 ff 00 00 00 00      	ldxdw r5, [r10 - 0x10]
     280: 57 00 00 00 01 00 00 00      	and64 r0, 0x1
     288: 15 00 38 00 00 00 00 00      	jeq r0, 0x0, +0x38 <.text+0x330>
     290: 0f 19 00 00 00 00 00 00      	add64 r9, r1
     298: 07 09 00 00 01 00 00 00      	add64 r9, 0x1
     2a0: 7b 97 20 00 00 00 00 00      	stxdw [r7 + 0x20], r9
     2a8: 79 a1 f8 ff 00 00 00 00      	ldxdw r1, [r10 - 0x8]
     2b0: ad 19 e6 ff 00 00 00 00      	jlt r9, r1, -0x1a <.text+0xc8>
     2b8: 79 a1 e8 ff 00 00 00 00      	ldxdw r1, [r10 - 0x18]
     2c0: 2d 19 e4 ff 00 00 00 00      	jgt r9, r1, -0x1c <.text+0xc8>
     2c8: bf 98 00 00 00 00 00 00      	mov64 r8, r9
     2d0: 79 a3 f8 ff 00 00 00 00      	ldxdw r3, [r10 - 0x8]
     2d8: 1f 38 00 00 00 00 00 00      	sub64 r8, r3
     2e0: 0f 85 00 00 00 00 00 00      	add64 r5, r8
     2e8: bf 51 00 00 00 00 00 00      	mov64 r1, r5
     2f0: 79 a2 d0 ff 00 00 00 00      	ldxdw r2, [r10 - 0x30]
     2f8: 85 10 00 00 17 30 00 00      	call 0x3017
     300: 79 a5 f0 ff 00 00 00 00      	ldxdw r5, [r10 - 0x10]
     308: 67 00 00 00 20 00 00 00      	lsh64 r0, 0x20
     310: 77 00 00 00 20 00 00 00      	rsh64 r0, 0x20
     318: 55 00 d9 ff 00 00 00 00      	jne r0, 0x0, -0x27 <.text+0xc8>
     320: 79 71 00 00 00 00 00 00      	ldxdw r1, [r7 + 0x0]
     328: 7b 97 00 00 00 00 00 00      	stxdw [r7 + 0x0], r9
     330: 0f 15 00 00 00 00 00 00      	add64 r5, r1
     338: 05 00 2d 00 00 00 00 00      	ja +0x2d <.text+0x388>
     340: bf 16 00 00 00 00 00 00      	mov64 r6, r1
     348: 05 00 01 00 00 00 00 00      	ja +0x1 <.text+0x238>
     350: ad 98 20 00 00 00 00 00      	jlt r8, r9, +0x20 <.text+0x338>
     358: bf 52 00 00 00 00 00 00      	mov64 r2, r5
     360: 0f 92 00 00 00 00 00 00      	add64 r2, r9
     368: bf 83 00 00 00 00 00 00      	mov64 r3, r8
     370: 1f 93 00 00 00 00 00 00      	sub64 r3, r9
     378: 35 03 09 00 10 00 00 00      	jge r3, 0x10, +0x9 <.text+0x2a8>
     380: 1d 98 19 00 00 00 00 00      	jeq r8, r9, +0x19 <.text+0x330>
     388: b7 01 00 00 00 00 00 00      	mov64 r1, 0x0
     390: bf 24 00 00 00 00 00 00      	mov64 r4, r2
     398: 0f 14 00 00 00 00 00 00      	add64 r4, r1
     3a0: 71 44 00 00 00 00 00 00      	ldxb r4, [r4 + 0x0]
     3a8: 1d 64 08 00 00 00 00 00      	jeq r4, r6, +0x8 <.text+0x2d0>
     3b0: 07 01 00 00 01 00 00 00      	add64 r1, 0x1
     3b8: ad 31 fa ff 00 00 00 00      	jlt r1, r3, -0x6 <.text+0x270>
     3c0: 05 00 11 00 00 00 00 00      	ja +0x11 <.text+0x330>
     3c8: 79 a1 d8 ff 00 00 00 00      	ldxdw r1, [r10 - 0x28]
     3d0: 85 10 00 00 da 2d 00 00      	call 0x2dda
     3d8: 79 a5 f0 ff 00 00 00 00      	ldxdw r5, [r10 - 0x10]
     3e0: 57 00 00 00 01 00 00 00      	and64 r0, 0x1
     3e8: 15 00 0c 00 00 00 00 00      	jeq r0, 0x0, +0xc <.text+0x330>
     3f0: 0f 19 00 00 00 00 00 00      	add64 r9, r1
     3f8: 07 09 00 00 01 00 00 00      	add64 r9, 0x1
     400: 7b 97 20 00 00 00 00 00      	stxdw [r7 + 0x20], r9
     408: 79 a1 f8 ff 00 00 00 00      	ldxdw r1, [r10 - 0x8]
     410: ad 19 e7 ff 00 00 00 00      	jlt r9, r1, -0x19 <.text+0x230>
     418: 79 a1 e8 ff 00 00 00 00      	ldxdw r1, [r10 - 0x18]
     420: 2d 19 e5 ff 00 00 00 00      	jgt r9, r1, -0x1b <.text+0x230>
     428: 79 a1 f8 ff 00 00 00 00      	ldxdw r1, [r10 - 0x8]
     430: b7 02 00 00 04 00 00 00      	mov64 r2, 0x4
     438: 18 03 00 00 b8 9b 01 00 00 00 00 00 00 00 00 00      	lddw r3, 0x19bb8
     448: 85 10 00 00 09 2e 00 00      	call 0x2e09
     450: 7b 87 20 00 00 00 00 00      	stxdw [r7 + 0x20], r8
     458: 79 71 00 00 00 00 00 00      	ldxdw r1, [r7 + 0x0]
     460: 0f 15 00 00 00 00 00 00      	add64 r5, r1
     468: 79 78 08 00 00 00 00 00      	ldxdw r8, [r7 + 0x8]
     470: bf 52 00 00 00 00 00 00      	mov64 r2, r5
     478: 5d 18 01 00 00 00 00 00      	jne r8, r1, +0x1 <.text+0x368>
     480: b7 02 00 00 00 00 00 00      	mov64 r2, 0x0
     488: 71 73 40 00 00 00 00 00      	ldxb r3, [r7 + 0x40]
     490: 55 03 01 00 00 00 00 00      	jne r3, 0x0, +0x1 <.text+0x380>
     498: bf 25 00 00 00 00 00 00      	mov64 r5, r2
     4a0: 72 07 41 00 01 00 00 00      	stb [r7 + 0x41], 0x1
     4a8: 1f 18 00 00 00 00 00 00      	sub64 r8, r1
     4b0: bf 50 00 00 00 00 00 00      	mov64 r0, r5
     4b8: bf 81 00 00 00 00 00 00      	mov64 r1, r8
     4c0: 95 00 00 00 00 00 00 00      	exit
     4c8: bf 20 00 00 00 00 00 00      	mov64 r0, r2
     4d0: 67 01 00 00 20 00 00 00      	lsh64 r1, 0x20
     4d8: 77 01 00 00 20 00 00 00      	rsh64 r1, 0x20
     4e0: 65 01 07 00 0c 00 00 00      	jsgt r1, 0xc, +0x7 <.text+0x400>
     4e8: d5 01 0d 00 05 00 00 00      	jsle r1, 0x5, +0xd <.text+0x438>
     4f0: d5 01 1a 00 08 00 00 00      	jsle r1, 0x8, +0x1a <.text+0x4a8>
     4f8: 65 01 2d 00 0a 00 00 00      	jsgt r1, 0xa, +0x2d <.text+0x548>
     500: 55 01 4f 00 09 00 00 00      	jne r1, 0x9, +0x4f <.text+0x660>
     508: 18 00 00 00 00 00 00 00 00 00 00 00 0a 00 00 00      	lddw r0, 0xa00000000
     518: 05 00 60 00 00 00 00 00      	ja +0x60 <.text+0x700>
     520: d5 01 0e 00 12 00 00 00      	jsle r1, 0x12, +0xe <.text+0x478>
     528: d5 01 18 00 15 00 00 00      	jsle r1, 0x15, +0x18 <.text+0x4d0>
     530: 65 01 2a 00 17 00 00 00      	jsgt r1, 0x17, +0x2a <.text+0x568>
     538: 55 01 4b 00 16 00 00 00      	jne r1, 0x16, +0x4b <.text+0x678>
     540: 18 00 00 00 00 00 00 00 00 00 00 00 17 00 00 00      	lddw r0, 0x1700000000
     550: 05 00 59 00 00 00 00 00      	ja +0x59 <.text+0x700>
     558: 65 01 17 00 02 00 00 00      	jsgt r1, 0x2, +0x17 <.text+0x4f8>
     560: 15 01 2e 00 00 00 00 00      	jeq r1, 0x0, +0x2e <.text+0x5b8>
     568: 18 00 00 00 00 00 00 00 00 00 00 00 02 00 00 00      	lddw r0, 0x200000000
     578: 15 01 54 00 01 00 00 00      	jeq r1, 0x1, +0x54 <.text+0x700>
     580: 18 00 00 00 00 00 00 00 00 00 00 00 03 00 00 00      	lddw r0, 0x300000000
     590: 05 00 51 00 00 00 00 00      	ja +0x51 <.text+0x700>
     598: 65 01 14 00 0f 00 00 00      	jsgt r1, 0xf, +0x14 <.text+0x520>
     5a0: 15 01 2c 00 0d 00 00 00      	jeq r1, 0xd, +0x2c <.text+0x5e8>
     5a8: 55 01 46 00 0e 00 00 00      	jne r1, 0xe, +0x46 <.text+0x6c0>
     5b0: 18 00 00 00 00 00 00 00 00 00 00 00 0f 00 00 00      	lddw r0, 0xf00000000
     5c0: 05 00 4b 00 00 00 00 00      	ja +0x4b <.text+0x700>
     5c8: 15 01 1b 00 06 00 00 00      	jeq r1, 0x6, +0x1b <.text+0x588>
     5d0: 55 01 2f 00 07 00 00 00      	jne r1, 0x7, +0x2f <.text+0x630>
     5d8: 18 00 00 00 00 00 00 00 00 00 00 00 08 00 00 00      	lddw r0, 0x800000000
     5e8: 05 00 46 00 00 00 00 00      	ja +0x46 <.text+0x700>
     5f0: 15 01 19 00 13 00 00 00      	jeq r1, 0x13, +0x19 <.text+0x5a0>
     5f8: 55 01 2d 00 14 00 00 00      	jne r1, 0x14, +0x2d <.text+0x648>
     600: 18 00 00 00 00 00 00 00 00 00 00 00 15 00 00 00      	lddw r0, 0x1500000000
     610: 05 00 41 00 00 00 00 00      	ja +0x41 <.text+0x700>
     618: 15 01 20 00 03 00 00 00      	jeq r1, 0x3, +0x20 <.text+0x600>
     620: 55 01 3a 00 04 00 00 00      	jne r1, 0x4, +0x3a <.text+0x6d8>
     628: 18 00 00 00 00 00 00 00 00 00 00 00 05 00 00 00      	lddw r0, 0x500000000
     638: 05 00 3c 00 00 00 00 00      	ja +0x3c <.text+0x700>
     640: 15 01 1e 00 10 00 00 00      	jeq r1, 0x10, +0x1e <.text+0x618>
     648: 55 01 38 00 11 00 00 00      	jne r1, 0x11, +0x38 <.text+0x6f0>
     650: 18 00 00 00 00 00 00 00 00 00 00 00 12 00 00 00      	lddw r0, 0x1200000000
     660: 05 00 37 00 00 00 00 00      	ja +0x37 <.text+0x700>
     668: 55 01 28 00 0b 00 00 00      	jne r1, 0xb, +0x28 <.text+0x690>
     670: 18 00 00 00 00 00 00 00 00 00 00 00 0c 00 00 00      	lddw r0, 0xc00000000
     680: 05 00 33 00 00 00 00 00      	ja +0x33 <.text+0x700>
     688: 55 01 27 00 18 00 00 00      	jne r1, 0x18, +0x27 <.text+0x6a8>
     690: 18 00 00 00 00 00 00 00 00 00 00 00 19 00 00 00      	lddw r0, 0x1900000000
     6a0: 05 00 2f 00 00 00 00 00      	ja +0x2f <.text+0x700>
     6a8: 18 00 00 00 00 00 00 00 00 00 00 00 07 00 00 00      	lddw r0, 0x700000000
     6b8: 05 00 2c 00 00 00 00 00      	ja +0x2c <.text+0x700>
     6c0: 18 00 00 00 00 00 00 00 00 00 00 00 14 00 00 00      	lddw r0, 0x1400000000
     6d0: 05 00 29 00 00 00 00 00      	ja +0x29 <.text+0x700>
     6d8: 67 00 00 00 20 00 00 00      	lsh64 r0, 0x20
     6e0: 77 00 00 00 20 00 00 00      	rsh64 r0, 0x20
     6e8: 55 00 26 00 00 00 00 00      	jne r0, 0x0, +0x26 <.text+0x700>
     6f0: 18 00 00 00 00 00 00 00 00 00 00 00 01 00 00 00      	lddw r0, 0x100000000
     700: 05 00 23 00 00 00 00 00      	ja +0x23 <.text+0x700>
     708: 18 00 00 00 00 00 00 00 00 00 00 00 0e 00 00 00      	lddw r0, 0xe00000000
     718: 05 00 20 00 00 00 00 00      	ja +0x20 <.text+0x700>
     720: 18 00 00 00 00 00 00 00 00 00 00 00 04 00 00 00      	lddw r0, 0x400000000
     730: 05 00 1d 00 00 00 00 00      	ja +0x1d <.text+0x700>
     738: 18 00 00 00 00 00 00 00 00 00 00 00 11 00 00 00      	lddw r0, 0x1100000000
     748: 05 00 1a 00 00 00 00 00      	ja +0x1a <.text+0x700>
     750: 18 00 00 00 00 00 00 00 00 00 00 00 09 00 00 00      	lddw r0, 0x900000000
     760: 05 00 17 00 00 00 00 00      	ja +0x17 <.text+0x700>
     768: 18 00 00 00 00 00 00 00 00 00 00 00 16 00 00 00      	lddw r0, 0x1600000000
     778: 05 00 14 00 00 00 00 00      	ja +0x14 <.text+0x700>
     780: 18 00 00 00 00 00 00 00 00 00 00 00 0b 00 00 00      	lddw r0, 0xb00000000
     790: 05 00 11 00 00 00 00 00      	ja +0x11 <.text+0x700>
     798: 18 00 00 00 00 00 00 00 00 00 00 00 18 00 00 00      	lddw r0, 0x1800000000
     7a8: 05 00 0e 00 00 00 00 00      	ja +0xe <.text+0x700>
     7b0: 18 00 00 00 00 00 00 00 00 00 00 00 0d 00 00 00      	lddw r0, 0xd00000000
     7c0: 05 00 0b 00 00 00 00 00      	ja +0xb <.text+0x700>
     7c8: 18 00 00 00 00 00 00 00 00 00 00 00 1a 00 00 00      	lddw r0, 0x1a00000000
     7d8: 05 00 08 00 00 00 00 00      	ja +0x8 <.text+0x700>
     7e0: 18 00 00 00 00 00 00 00 00 00 00 00 10 00 00 00      	lddw r0, 0x1000000000
     7f0: 05 00 05 00 00 00 00 00      	ja +0x5 <.text+0x700>
     7f8: 18 00 00 00 00 00 00 00 00 00 00 00 06 00 00 00      	lddw r0, 0x600000000
     808: 05 00 02 00 00 00 00 00      	ja +0x2 <.text+0x700>
     810: 18 00 00 00 00 00 00 00 00 00 00 00 13 00 00 00      	lddw r0, 0x1300000000
     820: 95 00 00 00 00 00 00 00      	exit

0000000000000828 <entrypoint>:
     828: 71 12 00 00 00 00 00 00      	ldxb r2, [r1 + 0x0]
     830: 15 02 6d 00 03 00 00 00      	jeq r2, 0x3, +0x6d <entrypoint+0x378>
     838: 55 02 74 00 04 00 00 00      	jne r2, 0x4, +0x74 <entrypoint+0x3b8>
     840: 79 12 58 00 00 00 00 00      	ldxdw r2, [r1 + 0x58]
     848: 55 02 72 00 a5 00 00 00      	jne r2, 0xa5, +0x72 <entrypoint+0x3b8>
     850: 71 12 10 29 00 00 00 00      	ldxb r2, [r1 + 0x2910]
     858: 55 02 70 00 ff 00 00 00      	jne r2, 0xff, +0x70 <entrypoint+0x3b8>
     860: 79 12 60 29 00 00 00 00      	ldxdw r2, [r1 + 0x2960]
     868: 55 02 6e 00 52 00 00 00      	jne r2, 0x52, +0x6e <entrypoint+0x3b8>
     870: 71 12 c8 51 00 00 00 00      	ldxb r2, [r1 + 0x51c8]
     878: 55 02 6c 00 ff 00 00 00      	jne r2, 0xff, +0x6c <entrypoint+0x3b8>
     880: 79 12 18 52 00 00 00 00      	ldxdw r2, [r1 + 0x5218]
     888: 55 02 6a 00 a5 00 00 00      	jne r2, 0xa5, +0x6a <entrypoint+0x3b8>
     890: 71 12 d0 7a 00 00 00 00      	ldxb r2, [r1 + 0x7ad0]
     898: 55 02 68 00 ff 00 00 00      	jne r2, 0xff, +0x68 <entrypoint+0x3b8>
     8a0: 79 14 20 7b 00 00 00 00      	ldxdw r4, [r1 + 0x7b20]
     8a8: bf 42 00 00 00 00 00 00      	mov64 r2, r4
     8b0: 07 02 00 00 07 00 00 00      	add64 r2, 0x7
     8b8: 57 02 00 00 f8 ff ff ff      	and64 r2, -0x8
     8c0: bf 15 00 00 00 00 00 00      	mov64 r5, r1
     8c8: 0f 25 00 00 00 00 00 00      	add64 r5, r2
     8d0: bf 52 00 00 00 00 00 00      	mov64 r2, r5
     8d8: 07 02 00 00 30 a3 00 00      	add64 r2, 0xa330
     8e0: 79 22 00 00 00 00 00 00      	ldxdw r2, [r2 + 0x0]
     8e8: a5 02 5e 00 0a 00 00 00      	jlt r2, 0xa, +0x5e <entrypoint+0x3b8>
     8f0: bf 52 00 00 00 00 00 00      	mov64 r2, r5
     8f8: 07 02 00 00 38 a3 00 00      	add64 r2, 0xa338
     900: 71 22 00 00 00 00 00 00      	ldxb r2, [r2 + 0x0]
     908: 55 02 5a 00 0c 00 00 00      	jne r2, 0xc, +0x5a <entrypoint+0x3b8>
     910: b7 06 00 00 03 00 00 00      	mov64 r6, 0x3
     918: b7 07 00 00 00 00 00 00      	mov64 r7, 0x0
     920: 71 12 cc 00 00 00 00 00      	ldxb r2, [r1 + 0xcc]
     928: 25 02 d4 12 02 00 00 00      	jgt r2, 0x2, +0x12d4 <entrypoint+0x97a8>
     930: 15 02 5c 14 00 00 00 00      	jeq r2, 0x0, +0x145c <entrypoint+0xa3f0>
     938: 71 13 8c 52 00 00 00 00      	ldxb r3, [r1 + 0x528c]
     940: 25 03 d1 12 02 00 00 00      	jgt r3, 0x2, +0x12d1 <entrypoint+0x97a8>
     948: 15 03 59 14 00 00 00 00      	jeq r3, 0x0, +0x1459 <entrypoint+0xa3f0>
     950: b7 06 00 00 00 00 00 00      	mov64 r6, 0x0
     958: b7 07 00 00 11 00 00 00      	mov64 r7, 0x11
     960: 15 02 cd 12 02 00 00 00      	jeq r2, 0x2, +0x12cd <entrypoint+0x97a8>
     968: 15 03 cc 12 02 00 00 00      	jeq r3, 0x2, +0x12cc <entrypoint+0x97a8>
     970: bf 52 00 00 00 00 00 00      	mov64 r2, r5
     978: 07 02 00 00 39 a3 00 00      	add64 r2, 0xa339
     980: 79 22 00 00 00 00 00 00      	ldxdw r2, [r2 + 0x0]
     988: b7 07 00 00 01 00 00 00      	mov64 r7, 0x1
     990: 79 13 a0 00 00 00 00 00      	ldxdw r3, [r1 + 0xa0]
     998: ad 23 c6 12 00 00 00 00      	jlt r3, r2, +0x12c6 <entrypoint+0x97a8>
     9a0: b7 07 00 00 03 00 00 00      	mov64 r7, 0x3
     9a8: 79 10 60 00 00 00 00 00      	ldxdw r0, [r1 + 0x60]
     9b0: 79 16 20 52 00 00 00 00      	ldxdw r6, [r1 + 0x5220]
     9b8: 5d 60 07 16 00 00 00 00      	jne r0, r6, +0x1607 <entrypoint+0xb1d0>
     9c0: 79 18 68 00 00 00 00 00      	ldxdw r8, [r1 + 0x68]
     9c8: 79 16 28 52 00 00 00 00      	ldxdw r6, [r1 + 0x5228]
     9d0: 5d 68 04 16 00 00 00 00      	jne r8, r6, +0x1604 <entrypoint+0xb1d0>
     9d8: 7b 3a e0 f7 00 00 00 00      	stxdw [r10 - 0x820], r3
     9e0: 79 16 70 00 00 00 00 00      	ldxdw r6, [r1 + 0x70]
     9e8: 79 19 30 52 00 00 00 00      	ldxdw r9, [r1 + 0x5230]
     9f0: 5d 96 00 16 00 00 00 00      	jne r6, r9, +0x1600 <entrypoint+0xb1d0>
     9f8: 79 19 78 00 00 00 00 00      	ldxdw r9, [r1 + 0x78]
     a00: 79 13 38 52 00 00 00 00      	ldxdw r3, [r1 + 0x5238]
     a08: 5d 39 fd 15 00 00 00 00      	jne r9, r3, +0x15fd <entrypoint+0xb1d0>
     a10: 79 13 18 29 00 00 00 00      	ldxdw r3, [r1 + 0x2918]
     a18: 5d 03 fb 15 00 00 00 00      	jne r3, r0, +0x15fb <entrypoint+0xb1d0>
     a20: 79 13 20 29 00 00 00 00      	ldxdw r3, [r1 + 0x2920]
     a28: 5d 83 f9 15 00 00 00 00      	jne r3, r8, +0x15f9 <entrypoint+0xb1d0>
     a30: 79 13 28 29 00 00 00 00      	ldxdw r3, [r1 + 0x2928]
     a38: 5d 63 f7 15 00 00 00 00      	jne r3, r6, +0x15f7 <entrypoint+0xb1d0>
     a40: 79 13 30 29 00 00 00 00      	ldxdw r3, [r1 + 0x2930]
     a48: b7 06 00 00 00 00 00 00      	mov64 r6, 0x0
     a50: 5d 93 af 12 00 00 00 00      	jne r3, r9, +0x12af <entrypoint+0x97a8>
     a58: 71 10 95 29 00 00 00 00      	ldxb r0, [r1 + 0x2995]
     a60: 55 00 34 14 01 00 00 00      	jne r0, 0x1, +0x1434 <entrypoint+0xa3e0>
     a68: 07 05 00 00 41 a3 00 00      	add64 r5, 0xa341
     a70: 71 53 00 00 00 00 00 00      	ldxb r3, [r5 + 0x0]
     a78: 71 15 94 29 00 00 00 00      	ldxb r5, [r1 + 0x2994]
     a80: 5d 53 fe 17 00 00 00 00      	jne r3, r5, +0x17fe <entrypoint+0xc250>
     a88: 79 15 d8 7a 00 00 00 00      	ldxdw r5, [r1 + 0x7ad8]
     a90: 71 13 a8 00 00 00 00 00      	ldxb r3, [r1 + 0xa8]
     a98: 55 03 24 13 01 00 00 00      	jne r3, 0x1, +0x1324 <entrypoint+0x9b98>
     aa0: 79 13 ac 00 00 00 00 00      	ldxdw r3, [r1 + 0xac]
     aa8: 5d 53 22 13 00 00 00 00      	jne r3, r5, +0x1322 <entrypoint+0x9b98>
     ab0: 79 13 e0 7a 00 00 00 00      	ldxdw r3, [r1 + 0x7ae0]
     ab8: 79 10 b4 00 00 00 00 00      	ldxdw r0, [r1 + 0xb4]
     ac0: 5d 30 1f 13 00 00 00 00      	jne r0, r3, +0x131f <entrypoint+0x9b98>
     ac8: 79 13 e8 7a 00 00 00 00      	ldxdw r3, [r1 + 0x7ae8]
     ad0: 79 10 bc 00 00 00 00 00      	ldxdw r0, [r1 + 0xbc]
     ad8: 5d 30 1c 13 00 00 00 00      	jne r0, r3, +0x131c <entrypoint+0x9b98>
     ae0: 79 13 f0 7a 00 00 00 00      	ldxdw r3, [r1 + 0x7af0]
     ae8: 79 10 c4 00 00 00 00 00      	ldxdw r0, [r1 + 0xc4]
     af0: 5d 30 19 13 00 00 00 00      	jne r0, r3, +0x1319 <entrypoint+0x9b98>
     af8: 55 04 b1 15 63 01 00 00      	jne r4, 0x163, +0x15b1 <entrypoint+0xb060>
     b00: 79 14 f8 7a 00 00 00 00      	ldxdw r4, [r1 + 0x7af8]
     b08: 18 03 00 00 06 dd f6 e1 00 00 00 00 ee 75 8f de      	lddw r3, -0x21708a111e0922fa
     b18: 1d 34 a1 15 00 00 00 00      	jeq r4, r3, +0x15a1 <entrypoint+0xb000>
     b20: 18 03 00 00 06 dd f6 e1 00 00 00 00 d7 65 a1 93      	lddw r3, -0x6c5e9a281e0922fa
     b30: 5d 34 aa 15 00 00 00 00      	jne r4, r3, +0x15aa <entrypoint+0xb060>
     b38: 79 13 00 7b 00 00 00 00      	ldxdw r3, [r1 + 0x7b00]
     b40: 18 04 00 00 d9 cb e1 46 00 00 00 00 ce eb 79 ac      	lddw r4, -0x53861431b91e3427
     b50: 5d 43 a6 15 00 00 00 00      	jne r3, r4, +0x15a6 <entrypoint+0xb060>
     b58: 79 13 08 7b 00 00 00 00      	ldxdw r3, [r1 + 0x7b08]
     b60: 18 04 00 00 1c b4 85 ed 00 00 00 00 5f 5b 37 91      	lddw r4, -0x6ec8a4a0127a4be4
     b70: 5d 43 a2 15 00 00 00 00      	jne r3, r4, +0x15a2 <entrypoint+0xb060>
     b78: 79 13 10 7b 00 00 00 00      	ldxdw r3, [r1 + 0x7b10]
     b80: 18 04 00 00 3a 8c f5 85 00 00 00 00 7e ff 00 a9      	lddw r4, -0x56ff00817a0a73c6
     b90: 5d 43 9e 15 00 00 00 00      	jne r3, r4, +0x159e <entrypoint+0xb060>
     b98: 05 00 a2 19 00 00 00 00      	ja +0x19a2 <entrypoint+0xd088>
     ba0: 79 12 58 00 00 00 00 00      	ldxdw r2, [r1 + 0x58]
     ba8: 55 02 06 00 a5 00 00 00      	jne r2, 0xa5, +0x6 <entrypoint+0x3b8>
     bb0: 71 12 10 29 00 00 00 00      	ldxb r2, [r1 + 0x2910]
     bb8: 55 02 04 00 ff 00 00 00      	jne r2, 0xff, +0x4 <entrypoint+0x3b8>
     bc0: 79 12 60 29 00 00 00 00      	ldxdw r2, [r1 + 0x2960]
     bc8: 55 02 02 00 a5 00 00 00      	jne r2, 0xa5, +0x2 <entrypoint+0x3b8>
     bd0: 71 12 18 52 00 00 00 00      	ldxb r2, [r1 + 0x5218]
     bd8: 15 02 61 0f ff 00 00 00      	jeq r2, 0xff, +0xf61 <entrypoint+0x7ec0>
     be0: bf 10 00 00 00 00 00 00      	mov64 r0, r1
     be8: 07 00 00 00 08 00 00 00      	add64 r0, 0x8
     bf0: 79 17 00 00 00 00 00 00      	ldxdw r7, [r1 + 0x0]
     bf8: 15 07 6b 00 00 00 00 00      	jeq r7, 0x0, +0x6b <entrypoint+0x730>
     c00: 7b 0a e8 f7 00 00 00 00      	stxdw [r10 - 0x818], r0
     c08: 79 12 58 00 00 00 00 00      	ldxdw r2, [r1 + 0x58]
     c10: 0f 21 00 00 00 00 00 00      	add64 r1, r2
     c18: 07 01 00 00 6f 28 00 00      	add64 r1, 0x286f
     c20: 57 01 00 00 f8 ff ff ff      	and64 r1, -0x8
     c28: 15 07 08 00 01 00 00 00      	jeq r7, 0x1, +0x8 <entrypoint+0x448>
     c30: 55 07 b7 0c 02 00 00 00      	jne r7, 0x2, +0xcb7 <entrypoint+0x69c8>
     c38: 71 12 00 00 00 00 00 00      	ldxb r2, [r1 + 0x0]
     c40: 55 02 fc 13 ff 00 00 00      	jne r2, 0xff, +0x13fc <entrypoint+0xa400>
     c48: 7b 1a f0 f7 00 00 00 00      	stxdw [r10 - 0x810], r1
     c50: 79 12 50 00 00 00 00 00      	ldxdw r2, [r1 + 0x50]
     c58: 0f 21 00 00 00 00 00 00      	add64 r1, r2
     c60: 07 01 00 00 67 28 00 00      	add64 r1, 0x2867
     c68: 57 01 00 00 f8 ff ff ff      	and64 r1, -0x8
     c70: bf 04 00 00 00 00 00 00      	mov64 r4, r0
     c78: bf 10 00 00 00 00 00 00      	mov64 r0, r1
     c80: 79 09 00 00 00 00 00 00      	ldxdw r9, [r0 + 0x0]
     c88: 15 09 5b 00 00 00 00 00      	jeq r9, 0x0, +0x5b <entrypoint+0x740>
     c90: 71 05 08 00 00 00 00 00      	ldxb r5, [r0 + 0x8]
     c98: 15 05 5c 00 ff 00 00 00      	jeq r5, 0xff, +0x5c <entrypoint+0x758>
     ca0: 07 09 00 00 ff ff ff ff      	add64 r9, -0x1
     ca8: bf 08 00 00 00 00 00 00      	mov64 r8, r0
     cb0: 07 08 00 00 09 00 00 00      	add64 r8, 0x9
     cb8: 65 05 17 0d 0b 00 00 00      	jsgt r5, 0xb, +0xd17 <entrypoint+0x6d50>
     cc0: 65 05 62 0d 06 00 00 00      	jsgt r5, 0x6, +0xd62 <entrypoint+0x6fb0>
     cc8: 15 05 af 0d 00 00 00 00      	jeq r5, 0x0, +0xdaf <entrypoint+0x7220>
     cd0: 15 05 2d 0e 01 00 00 00      	jeq r5, 0x1, +0xe2d <entrypoint+0x7618>
     cd8: 55 05 99 0e 03 00 00 00      	jne r5, 0x3, +0xe99 <entrypoint+0x7980>
     ce0: a5 09 0a 0f 08 00 00 00      	jlt r9, 0x8, +0xf0a <entrypoint+0x7d10>
     ce8: b5 07 0c 0f 02 00 00 00      	jle r7, 0x2, +0xf0c <entrypoint+0x7d28>
     cf0: 79 41 50 00 00 00 00 00      	ldxdw r1, [r4 + 0x50]
     cf8: 55 01 02 12 a5 00 00 00      	jne r1, 0xa5, +0x1202 <entrypoint+0x94e8>
     d00: 71 41 c4 00 00 00 00 00      	ldxb r1, [r4 + 0xc4]
     d08: 25 01 00 12 02 00 00 00      	jgt r1, 0x2, +0x1200 <entrypoint+0x94e8>
     d10: bf 45 00 00 00 00 00 00      	mov64 r5, r4
     d18: b7 06 00 00 09 00 00 00      	mov64 r6, 0x9
     d20: 15 01 1b 18 00 00 00 00      	jeq r1, 0x0, +0x181b <entrypoint+0xc5d8>
     d28: 79 88 00 00 00 00 00 00      	ldxdw r8, [r8 + 0x0]
     d30: 79 a3 f0 f7 00 00 00 00      	ldxdw r3, [r10 - 0x810]
     d38: 1d 35 0a 15 00 00 00 00      	jeq r5, r3, +0x150a <entrypoint+0xad68>
     d40: 79 32 50 00 00 00 00 00      	ldxdw r2, [r3 + 0x50]
     d48: 55 02 f8 11 a5 00 00 00      	jne r2, 0xa5, +0x11f8 <entrypoint+0x94e8>
     d50: 71 32 c4 00 00 00 00 00      	ldxb r2, [r3 + 0xc4]
     d58: 25 02 f6 11 02 00 00 00      	jgt r2, 0x2, +0x11f6 <entrypoint+0x94e8>
     d60: 15 02 13 18 00 00 00 00      	jeq r2, 0x0, +0x1813 <entrypoint+0xc5d8>
     d68: b7 09 00 00 11 00 00 00      	mov64 r9, 0x11
     d70: b7 06 00 00 00 00 00 00      	mov64 r6, 0x0
     d78: 15 01 44 0d 02 00 00 00      	jeq r1, 0x2, +0xd44 <entrypoint+0x6f78>
     d80: 15 02 43 0d 02 00 00 00      	jeq r2, 0x2, +0xd43 <entrypoint+0x6f78>
     d88: bf 54 00 00 00 00 00 00      	mov64 r4, r5
     d90: 79 41 98 00 00 00 00 00      	ldxdw r1, [r4 + 0x98]
     d98: ad 81 04 15 00 00 00 00      	jlt r1, r8, +0x1504 <entrypoint+0xad98>
     da0: 7b 1a d8 f7 00 00 00 00      	stxdw [r10 - 0x828], r1
     da8: b7 09 00 00 03 00 00 00      	mov64 r9, 0x3
     db0: 79 31 58 00 00 00 00 00      	ldxdw r1, [r3 + 0x58]
     db8: 79 42 58 00 00 00 00 00      	ldxdw r2, [r4 + 0x58]
     dc0: 5d 12 3b 0d 00 00 00 00      	jne r2, r1, +0xd3b <entrypoint+0x6f78>
     dc8: 79 31 60 00 00 00 00 00      	ldxdw r1, [r3 + 0x60]
     dd0: 79 42 60 00 00 00 00 00      	ldxdw r2, [r4 + 0x60]
     dd8: 5d 12 38 0d 00 00 00 00      	jne r2, r1, +0xd38 <entrypoint+0x6f78>
     de0: 79 31 68 00 00 00 00 00      	ldxdw r1, [r3 + 0x68]
     de8: 79 42 68 00 00 00 00 00      	ldxdw r2, [r4 + 0x68]
     df0: 5d 12 35 0d 00 00 00 00      	jne r2, r1, +0xd35 <entrypoint+0x6f78>
     df8: 7b 7a b8 f7 00 00 00 00      	stxdw [r10 - 0x848], r7
     e00: 79 31 70 00 00 00 00 00      	ldxdw r1, [r3 + 0x70]
     e08: 79 42 70 00 00 00 00 00      	ldxdw r2, [r4 + 0x70]
     e10: 5d 12 31 0d 00 00 00 00      	jne r2, r1, +0xd31 <entrypoint+0x6f78>
     e18: bf a7 00 00 00 00 00 00      	mov64 r7, r10
     e20: 07 07 00 00 00 f8 ff ff      	add64 r7, -0x800
     e28: 79 a0 f8 f7 00 00 00 00      	ldxdw r0, [r10 - 0x808]
     e30: 79 01 08 00 00 00 00 00      	ldxdw r1, [r0 + 0x8]
     e38: bf 54 00 00 00 00 00 00      	mov64 r4, r5
     e40: 71 42 a0 00 00 00 00 00      	ldxb r2, [r4 + 0xa0]
     e48: 55 02 74 0e 01 00 00 00      	jne r2, 0x1, +0xe74 <entrypoint+0x79c8>
     e50: 79 42 a4 00 00 00 00 00      	ldxdw r2, [r4 + 0xa4]
     e58: 5d 12 72 0e 00 00 00 00      	jne r2, r1, +0xe72 <entrypoint+0x79c8>
     e60: 79 02 10 00 00 00 00 00      	ldxdw r2, [r0 + 0x10]
     e68: 79 46 ac 00 00 00 00 00      	ldxdw r6, [r4 + 0xac]
     e70: 5d 26 6f 0e 00 00 00 00      	jne r6, r2, +0xe6f <entrypoint+0x79c8>
     e78: 79 02 18 00 00 00 00 00      	ldxdw r2, [r0 + 0x18]
     e80: 79 46 b4 00 00 00 00 00      	ldxdw r6, [r4 + 0xb4]
     e88: 5d 26 6c 0e 00 00 00 00      	jne r6, r2, +0xe6c <entrypoint+0x79c8>
     e90: 79 02 20 00 00 00 00 00      	ldxdw r2, [r0 + 0x20]
     e98: 79 46 bc 00 00 00 00 00      	ldxdw r6, [r4 + 0xbc]
     ea0: 5d 26 69 0e 00 00 00 00      	jne r6, r2, +0xe69 <entrypoint+0x79c8>
     ea8: 79 01 50 00 00 00 00 00      	ldxdw r1, [r0 + 0x50]
     eb0: 55 01 dc 13 63 01 00 00      	jne r1, 0x163, +0x13dc <entrypoint+0xa570>
     eb8: 79 01 28 00 00 00 00 00      	ldxdw r1, [r0 + 0x28]
     ec0: 18 02 00 00 06 dd f6 e1 00 00 00 00 ee 75 8f de      	lddw r2, -0x21708a111e0922fa
     ed0: 1d 21 cc 13 00 00 00 00      	jeq r1, r2, +0x13cc <entrypoint+0xa510>
     ed8: 18 02 00 00 06 dd f6 e1 00 00 00 00 d7 65 a1 93      	lddw r2, -0x6c5e9a281e0922fa
     ee8: 5d 21 d5 13 00 00 00 00      	jne r1, r2, +0x13d5 <entrypoint+0xa570>
     ef0: 79 01 30 00 00 00 00 00      	ldxdw r1, [r0 + 0x30]
     ef8: 18 02 00 00 d9 cb e1 46 00 00 00 00 ce eb 79 ac      	lddw r2, -0x53861431b91e3427
     f08: 5d 21 d1 13 00 00 00 00      	jne r1, r2, +0x13d1 <entrypoint+0xa570>
     f10: 79 01 38 00 00 00 00 00      	ldxdw r1, [r0 + 0x38]
     f18: 18 02 00 00 1c b4 85 ed 00 00 00 00 5f 5b 37 91      	lddw r2, -0x6ec8a4a0127a4be4
     f28: 5d 21 cd 13 00 00 00 00      	jne r1, r2, +0x13cd <entrypoint+0xa570>
     f30: 79 01 40 00 00 00 00 00      	ldxdw r1, [r0 + 0x40]
     f38: 18 02 00 00 3a 8c f5 85 00 00 00 00 7e ff 00 a9      	lddw r2, -0x56ff00817a0a73c6
     f48: 5d 21 c9 13 00 00 00 00      	jne r1, r2, +0x13c9 <entrypoint+0xa570>
     f50: 05 00 9b 17 00 00 00 00      	ja +0x179b <entrypoint+0xc408>
     f58: 79 09 00 00 00 00 00 00      	ldxdw r9, [r0 + 0x0]
     f60: 55 09 a5 ff 00 00 00 00      	jne r9, 0x0, -0x5b <entrypoint+0x468>
     f68: b7 06 00 00 00 00 00 00      	mov64 r6, 0x0
     f70: b7 09 00 00 0c 00 00 00      	mov64 r9, 0xc
     f78: 05 00 07 0d 00 00 00 00      	ja +0xd07 <entrypoint+0x6f90>
     f80: a5 09 b6 0e 03 00 00 00      	jlt r9, 0x3, +0xeb6 <entrypoint+0x7d10>
     f88: bf a1 00 00 00 00 00 00      	mov64 r1, r10
     f90: 07 01 00 00 e8 f7 ff ff      	add64 r1, -0x818
     f98: 7b 1a e0 f7 00 00 00 00      	stxdw [r10 - 0x820], r1
     fa0: 07 00 00 00 09 00 00 00      	add64 r0, 0x9
     fa8: 07 09 00 00 ff ff ff ff      	add64 r9, -0x1
     fb0: b7 01 00 00 0c 00 00 00      	mov64 r1, 0xc
     fb8: 7b 1a b0 f7 00 00 00 00      	stxdw [r10 - 0x850], r1
     fc0: 71 04 01 00 00 00 00 00      	ldxb r4, [r0 + 0x1]
     fc8: 15 04 2c 11 00 00 00 00      	jeq r4, 0x0, +0x112c <entrypoint+0x9108>
     fd0: bf 41 00 00 00 00 00 00      	mov64 r1, r4
     fd8: 07 01 00 00 02 00 00 00      	add64 r1, 0x2
     fe0: ad 19 29 11 00 00 00 00      	jlt r9, r1, +0x1129 <entrypoint+0x9108>
     fe8: 71 02 00 00 00 00 00 00      	ldxb r2, [r0 + 0x0]
     ff0: 7b 2a d8 f7 00 00 00 00      	stxdw [r10 - 0x828], r2
     ff8: ad 27 f5 10 00 00 00 00      	jlt r7, r2, +0x10f5 <entrypoint+0x8f80>
    1000: 7b 1a c0 f7 00 00 00 00      	stxdw [r10 - 0x840], r1
    1008: 7b 9a c8 f7 00 00 00 00      	stxdw [r10 - 0x838], r9
    1010: 71 05 02 00 00 00 00 00      	ldxb r5, [r0 + 0x2]
    1018: 7b 0a d0 f7 00 00 00 00      	stxdw [r10 - 0x830], r0
    1020: 7b 7a b8 f7 00 00 00 00      	stxdw [r10 - 0x848], r7
    1028: 25 05 84 01 0f 00 00 00      	jgt r5, 0xf, +0x184 <entrypoint+0x1428>
    1030: b7 01 00 00 01 00 00 00      	mov64 r1, 0x1
    1038: 6f 51 00 00 00 00 00 00      	lsh64 r1, r5
    1040: 57 01 00 00 88 c1 00 00      	and64 r1, 0xc188
    1048: 15 01 b2 00 00 00 00 00      	jeq r1, 0x0, +0xb2 <entrypoint+0xdb8>
    1050: 79 a1 d8 f7 00 00 00 00      	ldxdw r1, [r10 - 0x828]
    1058: b5 01 e9 10 01 00 00 00      	jle r1, 0x1, +0x10e9 <entrypoint+0x8f80>
    1060: 79 a1 e0 f7 00 00 00 00      	ldxdw r1, [r10 - 0x820]
    1068: 79 11 00 00 00 00 00 00      	ldxdw r1, [r1 + 0x0]
    1070: 79 12 28 00 00 00 00 00      	ldxdw r2, [r1 + 0x28]
    1078: 18 03 00 00 06 dd f6 e1 00 00 00 00 d7 65 a1 93      	lddw r3, -0x6c5e9a281e0922fa
    1088: 5d 32 0f 11 00 00 00 00      	jne r2, r3, +0x110f <entrypoint+0x90e0>
    1090: 79 12 30 00 00 00 00 00      	ldxdw r2, [r1 + 0x30]
    1098: 18 03 00 00 d9 cb e1 46 00 00 00 00 ce eb 79 ac      	lddw r3, -0x53861431b91e3427
    10a8: 5d 32 0b 11 00 00 00 00      	jne r2, r3, +0x110b <entrypoint+0x90e0>
    10b0: 79 12 38 00 00 00 00 00      	ldxdw r2, [r1 + 0x38]
    10b8: 18 03 00 00 1c b4 85 ed 00 00 00 00 5f 5b 37 91      	lddw r3, -0x6ec8a4a0127a4be4
    10c8: 5d 32 07 11 00 00 00 00      	jne r2, r3, +0x1107 <entrypoint+0x90e0>
    10d0: 79 11 40 00 00 00 00 00      	ldxdw r1, [r1 + 0x40]
    10d8: 18 02 00 00 3a 8c f5 85 00 00 00 00 7e ff 00 a9      	lddw r2, -0x56ff00817a0a73c6
    10e8: 5d 21 03 11 00 00 00 00      	jne r1, r2, +0x1103 <entrypoint+0x90e0>
    10f0: 79 a1 e0 f7 00 00 00 00      	ldxdw r1, [r10 - 0x820]
    10f8: 79 11 08 00 00 00 00 00      	ldxdw r1, [r1 + 0x8]
    1100: 79 12 28 00 00 00 00 00      	ldxdw r2, [r1 + 0x28]
    1108: 18 03 00 00 06 dd f6 e1 00 00 00 00 d7 65 a1 93      	lddw r3, -0x6c5e9a281e0922fa
    1118: 5d 32 fd 10 00 00 00 00      	jne r2, r3, +0x10fd <entrypoint+0x90e0>
    1120: 79 12 30 00 00 00 00 00      	ldxdw r2, [r1 + 0x30]
    1128: 18 03 00 00 d9 cb e1 46 00 00 00 00 ce eb 79 ac      	lddw r3, -0x53861431b91e3427
    1138: 5d 32 f9 10 00 00 00 00      	jne r2, r3, +0x10f9 <entrypoint+0x90e0>
    1140: b7 06 00 00 06 00 00 00      	mov64 r6, 0x6
    1148: 79 12 38 00 00 00 00 00      	ldxdw r2, [r1 + 0x38]
    1150: 18 03 00 00 1c b4 85 ed 00 00 00 00 5f 5b 37 91      	lddw r3, -0x6ec8a4a0127a4be4
    1160: 5d 32 d3 11 00 00 00 00      	jne r2, r3, +0x11d3 <entrypoint+0x97d8>
    1168: 79 11 40 00 00 00 00 00      	ldxdw r1, [r1 + 0x40]
    1170: 18 02 00 00 3a 8c f5 85 00 00 00 00 7e ff 00 a9      	lddw r2, -0x56ff00817a0a73c6
    1180: 5d 21 c2 0c 00 00 00 00      	jne r1, r2, +0xcc2 <entrypoint+0x6f70>
    1188: 07 04 00 00 ff ff ff ff      	add64 r4, -0x1
    1190: 79 a2 d0 f7 00 00 00 00      	ldxdw r2, [r10 - 0x830]
    1198: bf 28 00 00 00 00 00 00      	mov64 r8, r2
    11a0: 07 08 00 00 03 00 00 00      	add64 r8, 0x3
    11a8: 65 05 57 00 0b 00 00 00      	jsgt r5, 0xb, +0x57 <entrypoint+0xc40>
    11b0: 65 05 21 01 06 00 00 00      	jsgt r5, 0x6, +0x121 <entrypoint+0x1298>
    11b8: 15 05 67 01 00 00 00 00      	jeq r5, 0x0, +0x167 <entrypoint+0x14d0>
    11c0: 15 05 fb 01 01 00 00 00      	jeq r5, 0x1, +0x1fb <entrypoint+0x1978>
    11c8: 55 05 b7 02 03 00 00 00      	jne r5, 0x3, +0x2b7 <entrypoint+0x1f60>
    11d0: a5 04 37 12 08 00 00 00      	jlt r4, 0x8, +0x1237 <entrypoint+0x9b68>
    11d8: b7 06 00 00 0a 00 00 00      	mov64 r6, 0xa
    11e0: 79 a1 d8 f7 00 00 00 00      	ldxdw r1, [r10 - 0x828]
    11e8: b5 01 b5 0c 02 00 00 00      	jle r1, 0x2, +0xcb5 <entrypoint+0x6f70>
    11f0: 79 a1 e0 f7 00 00 00 00      	ldxdw r1, [r10 - 0x820]
    11f8: 79 14 00 00 00 00 00 00      	ldxdw r4, [r1 + 0x0]
    1200: 79 41 50 00 00 00 00 00      	ldxdw r1, [r4 + 0x50]
    1208: 55 01 97 12 a5 00 00 00      	jne r1, 0xa5, +0x1297 <entrypoint+0x9ea0>
    1210: 71 41 c4 00 00 00 00 00      	ldxb r1, [r4 + 0xc4]
    1218: 25 01 95 12 02 00 00 00      	jgt r1, 0x2, +0x1295 <entrypoint+0x9ea0>
    1220: 15 01 aa 13 00 00 00 00      	jeq r1, 0x0, +0x13aa <entrypoint+0xa750>
    1228: 79 85 00 00 00 00 00 00      	ldxdw r5, [r8 + 0x0]
    1230: bf 46 00 00 00 00 00 00      	mov64 r6, r4
    1238: 07 06 00 00 58 00 00 00      	add64 r6, 0x58
    1240: 79 a2 e0 f7 00 00 00 00      	ldxdw r2, [r10 - 0x820]
    1248: 79 23 08 00 00 00 00 00      	ldxdw r3, [r2 + 0x8]
    1250: 1d 34 99 06 00 00 00 00      	jeq r4, r3, +0x699 <entrypoint+0x3ef8>
    1258: 79 32 50 00 00 00 00 00      	ldxdw r2, [r3 + 0x50]
    1260: 79 a9 80 f7 00 00 00 00      	ldxdw r9, [r10 - 0x880]
    1268: 55 02 7e 12 a5 00 00 00      	jne r2, 0xa5, +0x127e <entrypoint+0x9e38>
    1270: 71 32 c4 00 00 00 00 00      	ldxb r2, [r3 + 0xc4]
    1278: 25 02 7c 12 02 00 00 00      	jgt r2, 0x2, +0x127c <entrypoint+0x9e38>
    1280: 15 02 79 12 00 00 00 00      	jeq r2, 0x0, +0x1279 <entrypoint+0x9e28>
    1288: 15 01 81 12 02 00 00 00      	jeq r1, 0x2, +0x1281 <entrypoint+0x9e70>
    1290: 15 02 80 12 02 00 00 00      	jeq r2, 0x2, +0x1280 <entrypoint+0x9e70>
    1298: 79 40 98 00 00 00 00 00      	ldxdw r0, [r4 + 0x98]
    12a0: ad 50 72 12 00 00 00 00      	jlt r0, r5, +0x1272 <entrypoint+0x9e10>
    12a8: bf 37 00 00 00 00 00 00      	mov64 r7, r3
    12b0: 07 07 00 00 58 00 00 00      	add64 r7, 0x58
    12b8: 79 71 00 00 00 00 00 00      	ldxdw r1, [r7 + 0x0]
    12c0: 79 62 00 00 00 00 00 00      	ldxdw r2, [r6 + 0x0]
    12c8: 5d 12 f8 11 00 00 00 00      	jne r2, r1, +0x11f8 <entrypoint+0x9a68>
    12d0: 79 31 60 00 00 00 00 00      	ldxdw r1, [r3 + 0x60]
    12d8: 79 42 60 00 00 00 00 00      	ldxdw r2, [r4 + 0x60]
    12e0: 5d 12 f5 11 00 00 00 00      	jne r2, r1, +0x11f5 <entrypoint+0x9a68>
    12e8: 79 31 68 00 00 00 00 00      	ldxdw r1, [r3 + 0x68]
    12f0: 79 42 68 00 00 00 00 00      	ldxdw r2, [r4 + 0x68]
    12f8: 5d 12 f2 11 00 00 00 00      	jne r2, r1, +0x11f2 <entrypoint+0x9a68>
    1300: 79 31 70 00 00 00 00 00      	ldxdw r1, [r3 + 0x70]
    1308: 79 42 70 00 00 00 00 00      	ldxdw r2, [r4 + 0x70]
    1310: 5d 12 ef 11 00 00 00 00      	jne r2, r1, +0x11ef <entrypoint+0x9a68>
    1318: 7b 7a 80 f7 00 00 00 00      	stxdw [r10 - 0x880], r7
    1320: 7b 6a 40 f7 00 00 00 00      	stxdw [r10 - 0x8c0], r6
    1328: 79 a1 e0 f7 00 00 00 00      	ldxdw r1, [r10 - 0x820]
    1330: bf 18 00 00 00 00 00 00      	mov64 r8, r1
    1338: 07 08 00 00 18 00 00 00      	add64 r8, 0x18
    1340: 79 16 10 00 00 00 00 00      	ldxdw r6, [r1 + 0x10]
    1348: 79 61 08 00 00 00 00 00      	ldxdw r1, [r6 + 0x8]
    1350: 71 42 a0 00 00 00 00 00      	ldxb r2, [r4 + 0xa0]
    1358: 55 02 8b 02 01 00 00 00      	jne r2, 0x1, +0x28b <entrypoint+0x1f90>
    1360: 79 42 a4 00 00 00 00 00      	ldxdw r2, [r4 + 0xa4]
    1368: 5d 12 89 02 00 00 00 00      	jne r2, r1, +0x289 <entrypoint+0x1f90>
    1370: 79 62 10 00 00 00 00 00      	ldxdw r2, [r6 + 0x10]
    1378: 79 47 ac 00 00 00 00 00      	ldxdw r7, [r4 + 0xac]
    1380: 5d 27 86 02 00 00 00 00      	jne r7, r2, +0x286 <entrypoint+0x1f90>
    1388: 79 62 18 00 00 00 00 00      	ldxdw r2, [r6 + 0x18]
    1390: 79 47 b4 00 00 00 00 00      	ldxdw r7, [r4 + 0xb4]
    1398: 5d 27 83 02 00 00 00 00      	jne r7, r2, +0x283 <entrypoint+0x1f90>
    13a0: 79 62 20 00 00 00 00 00      	ldxdw r2, [r6 + 0x20]
    13a8: 79 47 bc 00 00 00 00 00      	ldxdw r7, [r4 + 0xbc]
    13b0: 5d 27 80 02 00 00 00 00      	jne r7, r2, +0x280 <entrypoint+0x1f90>
    13b8: 79 61 50 00 00 00 00 00      	ldxdw r1, [r6 + 0x50]
    13c0: 55 01 3f 06 63 01 00 00      	jne r1, 0x163, +0x63f <entrypoint+0x3d98>
    13c8: 79 61 28 00 00 00 00 00      	ldxdw r1, [r6 + 0x28]
    13d0: 18 02 00 00 06 dd f6 e1 00 00 00 00 ee 75 8f de      	lddw r2, -0x21708a111e0922fa
    13e0: 1d 21 2f 06 00 00 00 00      	jeq r1, r2, +0x62f <entrypoint+0x3d38>
    13e8: 18 02 00 00 06 dd f6 e1 00 00 00 00 d7 65 a1 93      	lddw r2, -0x6c5e9a281e0922fa
    13f8: 5d 21 38 06 00 00 00 00      	jne r1, r2, +0x638 <entrypoint+0x3d98>
    1400: 79 61 30 00 00 00 00 00      	ldxdw r1, [r6 + 0x30]
    1408: 18 02 00 00 d9 cb e1 46 00 00 00 00 ce eb 79 ac      	lddw r2, -0x53861431b91e3427
    1418: 5d 21 34 06 00 00 00 00      	jne r1, r2, +0x634 <entrypoint+0x3d98>
    1420: 79 61 38 00 00 00 00 00      	ldxdw r1, [r6 + 0x38]
    1428: 18 02 00 00 1c b4 85 ed 00 00 00 00 5f 5b 37 91      	lddw r2, -0x6ec8a4a0127a4be4
    1438: 5d 21 30 06 00 00 00 00      	jne r1, r2, +0x630 <entrypoint+0x3d98>
    1440: 79 61 40 00 00 00 00 00      	ldxdw r1, [r6 + 0x40]
    1448: 18 02 00 00 3a 8c f5 85 00 00 00 00 7e ff 00 a9      	lddw r2, -0x56ff00817a0a73c6
    1458: 5d 21 2c 06 00 00 00 00      	jne r1, r2, +0x62c <entrypoint+0x3d98>
    1460: 05 00 87 09 00 00 00 00      	ja +0x987 <entrypoint+0x5878>
    1468: 65 05 ee 00 11 00 00 00      	jsgt r5, 0x11, +0xee <entrypoint+0x13b8>
    1470: 15 05 57 00 0c 00 00 00      	jeq r5, 0xc, +0x57 <entrypoint+0xf08>
    1478: 15 05 cc 01 0f 00 00 00      	jeq r5, 0xf, +0x1cc <entrypoint+0x1ab8>
    1480: 55 05 60 02 11 00 00 00      	jne r5, 0x11, +0x260 <entrypoint+0x1f60>
    1488: b7 06 00 00 0a 00 00 00      	mov64 r6, 0xa
    1490: 79 a1 d8 f7 00 00 00 00      	ldxdw r1, [r10 - 0x828]
    1498: 15 01 5f 0c 00 00 00 00      	jeq r1, 0x0, +0xc5f <entrypoint+0x6f70>
    14a0: b7 06 00 00 06 00 00 00      	mov64 r6, 0x6
    14a8: 79 a1 e0 f7 00 00 00 00      	ldxdw r1, [r10 - 0x820]
    14b0: 79 18 00 00 00 00 00 00      	ldxdw r8, [r1 + 0x0]
    14b8: 79 81 28 00 00 00 00 00      	ldxdw r1, [r8 + 0x28]
    14c0: 18 02 00 00 06 dd f6 e1 00 00 00 00 d7 65 a1 93      	lddw r2, -0x6c5e9a281e0922fa
    14d0: 5d 21 65 11 00 00 00 00      	jne r1, r2, +0x1165 <entrypoint+0x97d8>
    14d8: 79 81 30 00 00 00 00 00      	ldxdw r1, [r8 + 0x30]
    14e0: 18 02 00 00 d9 cb e1 46 00 00 00 00 ce eb 79 ac      	lddw r2, -0x53861431b91e3427
    14f0: 5d 21 61 11 00 00 00 00      	jne r1, r2, +0x1161 <entrypoint+0x97d8>
    14f8: 79 81 38 00 00 00 00 00      	ldxdw r1, [r8 + 0x38]
    1500: 18 02 00 00 1c b4 85 ed 00 00 00 00 5f 5b 37 91      	lddw r2, -0x6ec8a4a0127a4be4
    1510: 5d 21 5d 11 00 00 00 00      	jne r1, r2, +0x115d <entrypoint+0x97d8>
    1518: 79 81 40 00 00 00 00 00      	ldxdw r1, [r8 + 0x40]
    1520: 18 02 00 00 3a 8c f5 85 00 00 00 00 7e ff 00 a9      	lddw r2, -0x56ff00817a0a73c6
    1530: 5d 21 4c 0c 00 00 00 00      	jne r1, r2, +0xc4c <entrypoint+0x6f70>
    1538: 79 a1 d8 f7 00 00 00 00      	ldxdw r1, [r10 - 0x828]
    1540: 55 01 76 02 01 00 00 00      	jne r1, 0x1, +0x276 <entrypoint+0x20d0>
    1548: bf a1 00 00 00 00 00 00      	mov64 r1, r10
    1550: 07 01 00 00 e0 ff ff ff      	add64 r1, -0x20
    1558: 85 10 00 00 89 2a 00 00      	call 0x2a89
    1560: 61 a1 e0 ff 00 00 00 00      	ldxw r1, [r10 - 0x20]
    1568: 55 01 75 10 00 00 00 00      	jne r1, 0x0, +0x1075 <entrypoint+0x90f0>
    1570: 79 a6 f0 ff 00 00 00 00      	ldxdw r6, [r10 - 0x10]
    1578: 79 a2 e8 ff 00 00 00 00      	ldxdw r2, [r10 - 0x18]
    1580: 79 87 50 00 00 00 00 00      	ldxdw r7, [r8 + 0x50]
    1588: bf 71 00 00 00 00 00 00      	mov64 r1, r7
    1590: 07 01 00 00 80 00 00 00      	add64 r1, 0x80
    1598: 2f 21 00 00 00 00 00 00      	mul64 r1, r2
    15a0: 18 02 00 00 00 00 00 00 00 00 00 00 00 00 f0 3f      	lddw r2, 0x3ff0000000000000
    15b0: 1d 26 d2 04 00 00 00 00      	jeq r6, r2, +0x4d2 <entrypoint+0x3420>
    15b8: 18 02 00 00 00 00 00 00 00 00 00 00 00 00 00 40      	lddw r2, 0x4000000000000000
    15c8: 5d 26 b9 04 00 00 00 00      	jne r6, r2, +0x4b9 <entrypoint+0x3370>
    15d0: 67 01 00 00 01 00 00 00      	lsh64 r1, 0x1
    15d8: 05 00 cd 04 00 00 00 00      	ja +0x4cd <entrypoint+0x3420>
    15e0: 55 05 cd 00 0c 00 00 00      	jne r5, 0xc, +0xcd <entrypoint+0x1428>
    15e8: b7 06 00 00 0a 00 00 00      	mov64 r6, 0xa
    15f0: 79 a1 d8 f7 00 00 00 00      	ldxdw r1, [r10 - 0x828]
    15f8: b5 01 33 0c 02 00 00 00      	jle r1, 0x2, +0xc33 <entrypoint+0x6f70>
    1600: 79 a1 e0 f7 00 00 00 00      	ldxdw r1, [r10 - 0x820]
    1608: 79 11 00 00 00 00 00 00      	ldxdw r1, [r1 + 0x0]
    1610: 79 12 28 00 00 00 00 00      	ldxdw r2, [r1 + 0x28]
    1618: 18 03 00 00 06 dd f6 e1 00 00 00 00 d7 65 a1 93      	lddw r3, -0x6c5e9a281e0922fa
    1628: 5d 32 5b 10 00 00 00 00      	jne r2, r3, +0x105b <entrypoint+0x90e0>
    1630: 79 12 30 00 00 00 00 00      	ldxdw r2, [r1 + 0x30]
    1638: 18 03 00 00 d9 cb e1 46 00 00 00 00 ce eb 79 ac      	lddw r3, -0x53861431b91e3427
    1648: 5d 32 57 10 00 00 00 00      	jne r2, r3, +0x1057 <entrypoint+0x90e0>
    1650: 79 12 38 00 00 00 00 00      	ldxdw r2, [r1 + 0x38]
    1658: 18 03 00 00 1c b4 85 ed 00 00 00 00 5f 5b 37 91      	lddw r3, -0x6ec8a4a0127a4be4
    1668: 5d 32 53 10 00 00 00 00      	jne r2, r3, +0x1053 <entrypoint+0x90e0>
    1670: 79 11 40 00 00 00 00 00      	ldxdw r1, [r1 + 0x40]
    1678: 18 02 00 00 3a 8c f5 85 00 00 00 00 7e ff 00 a9      	lddw r2, -0x56ff00817a0a73c6
    1688: 5d 21 4f 10 00 00 00 00      	jne r1, r2, +0x104f <entrypoint+0x90e0>
    1690: 79 a1 e0 f7 00 00 00 00      	ldxdw r1, [r10 - 0x820]
    1698: 79 11 10 00 00 00 00 00      	ldxdw r1, [r1 + 0x10]
    16a0: 79 12 28 00 00 00 00 00      	ldxdw r2, [r1 + 0x28]
    16a8: 18 03 00 00 06 dd f6 e1 00 00 00 00 d7 65 a1 93      	lddw r3, -0x6c5e9a281e0922fa
    16b8: 5d 32 49 10 00 00 00 00      	jne r2, r3, +0x1049 <entrypoint+0x90e0>
    16c0: 79 12 30 00 00 00 00 00      	ldxdw r2, [r1 + 0x30]
    16c8: 18 03 00 00 d9 cb e1 46 00 00 00 00 ce eb 79 ac      	lddw r3, -0x53861431b91e3427
    16d8: 5d 32 45 10 00 00 00 00      	jne r2, r3, +0x1045 <entrypoint+0x90e0>
    16e0: b7 06 00 00 06 00 00 00      	mov64 r6, 0x6
    16e8: 79 12 38 00 00 00 00 00      	ldxdw r2, [r1 + 0x38]
    16f0: 18 03 00 00 1c b4 85 ed 00 00 00 00 5f 5b 37 91      	lddw r3, -0x6ec8a4a0127a4be4
    1700: 5d 32 1f 11 00 00 00 00      	jne r2, r3, +0x111f <entrypoint+0x97d8>
    1708: 79 11 40 00 00 00 00 00      	ldxdw r1, [r1 + 0x40]
    1710: 18 02 00 00 3a 8c f5 85 00 00 00 00 7e ff 00 a9      	lddw r2, -0x56ff00817a0a73c6
    1720: 5d 21 0e 0c 00 00 00 00      	jne r1, r2, +0xc0e <entrypoint+0x6f70>
    1728: 07 04 00 00 ff ff ff ff      	add64 r4, -0x1
    1730: a5 04 fa 05 09 00 00 00      	jlt r4, 0x9, +0x5fa <entrypoint+0x3ee0>
    1738: b7 00 00 00 0a 00 00 00      	mov64 r0, 0xa
    1740: 79 a1 d8 f7 00 00 00 00      	ldxdw r1, [r10 - 0x828]
    1748: a5 01 96 05 04 00 00 00      	jlt r1, 0x4, +0x596 <entrypoint+0x3bd8>
    1750: 79 a1 e0 f7 00 00 00 00      	ldxdw r1, [r10 - 0x820]
    1758: 79 14 00 00 00 00 00 00      	ldxdw r4, [r1 + 0x0]
    1760: 79 41 50 00 00 00 00 00      	ldxdw r1, [r4 + 0x50]
    1768: 55 01 2a 02 a5 00 00 00      	jne r1, 0xa5, +0x22a <entrypoint+0x2098>
    1770: 71 42 c4 00 00 00 00 00      	ldxb r2, [r4 + 0xc4]
    1778: 79 a3 d0 f7 00 00 00 00      	ldxdw r3, [r10 - 0x830]
    1780: 25 02 27 02 02 00 00 00      	jgt r2, 0x2, +0x227 <entrypoint+0x2098>
    1788: 15 02 16 06 00 00 00 00      	jeq r2, 0x0, +0x616 <entrypoint+0x4018>
    1790: 71 31 0b 00 00 00 00 00      	ldxb r1, [r3 + 0xb]
    1798: 79 35 03 00 00 00 00 00      	ldxdw r5, [r3 + 0x3]
    17a0: bf 43 00 00 00 00 00 00      	mov64 r3, r4
    17a8: 07 03 00 00 58 00 00 00      	add64 r3, 0x58
    17b0: 7b 3a a8 f7 00 00 00 00      	stxdw [r10 - 0x858], r3
    17b8: 79 a3 e0 f7 00 00 00 00      	ldxdw r3, [r10 - 0x820]
    17c0: 79 33 10 00 00 00 00 00      	ldxdw r3, [r3 + 0x10]
    17c8: 1d 34 12 06 00 00 00 00      	jeq r4, r3, +0x612 <entrypoint+0x4038>
    17d0: 79 30 50 00 00 00 00 00      	ldxdw r0, [r3 + 0x50]
    17d8: 55 00 8d 02 a5 00 00 00      	jne r0, 0xa5, +0x28d <entrypoint+0x2420>
    17e0: 71 37 c4 00 00 00 00 00      	ldxb r7, [r3 + 0xc4]
    17e8: 25 07 8b 02 02 00 00 00      	jgt r7, 0x2, +0x28b <entrypoint+0x2420>
    17f0: 15 07 24 07 00 00 00 00      	jeq r7, 0x0, +0x724 <entrypoint+0x48f0>
    17f8: bf 36 00 00 00 00 00 00      	mov64 r6, r3
    1800: 07 06 00 00 58 00 00 00      	add64 r6, 0x58
    1808: 7b 6a 70 f7 00 00 00 00      	stxdw [r10 - 0x890], r6
    1810: b7 00 00 00 00 00 00 00      	mov64 r0, 0x0
    1818: b7 09 00 00 11 00 00 00      	mov64 r9, 0x11
    1820: 15 02 7b 05 02 00 00 00      	jeq r2, 0x2, +0x57b <entrypoint+0x3bd8>
    1828: 15 07 7a 05 02 00 00 00      	jeq r7, 0x2, +0x57a <entrypoint+0x3bd8>
    1830: b7 09 00 00 01 00 00 00      	mov64 r9, 0x1
    1838: 79 46 98 00 00 00 00 00      	ldxdw r6, [r4 + 0x98]
    1840: ad 56 77 05 00 00 00 00      	jlt r6, r5, +0x577 <entrypoint+0x3bd8>
    1848: b7 09 00 00 03 00 00 00      	mov64 r9, 0x3
    1850: 79 a2 a8 f7 00 00 00 00      	ldxdw r2, [r10 - 0x858]
    1858: 79 27 00 00 00 00 00 00      	ldxdw r7, [r2 + 0x0]
    1860: 79 a2 70 f7 00 00 00 00      	ldxdw r2, [r10 - 0x890]
    1868: 79 22 00 00 00 00 00 00      	ldxdw r2, [r2 + 0x0]
    1870: 5d 27 71 05 00 00 00 00      	jne r7, r2, +0x571 <entrypoint+0x3bd8>
    1878: 79 32 60 00 00 00 00 00      	ldxdw r2, [r3 + 0x60]
    1880: 79 48 60 00 00 00 00 00      	ldxdw r8, [r4 + 0x60]
    1888: 5d 28 6e 05 00 00 00 00      	jne r8, r2, +0x56e <entrypoint+0x3bd8>
    1890: 79 32 68 00 00 00 00 00      	ldxdw r2, [r3 + 0x68]
    1898: 79 48 68 00 00 00 00 00      	ldxdw r8, [r4 + 0x68]
    18a0: 5d 28 6b 05 00 00 00 00      	jne r8, r2, +0x56b <entrypoint+0x3bd8>
    18a8: 79 32 70 00 00 00 00 00      	ldxdw r2, [r3 + 0x70]
    18b0: 79 48 70 00 00 00 00 00      	ldxdw r8, [r4 + 0x70]
    18b8: 5d 28 68 05 00 00 00 00      	jne r8, r2, +0x568 <entrypoint+0x3bd8>
    18c0: b7 09 00 00 03 00 00 00      	mov64 r9, 0x3
    18c8: 79 a2 e0 f7 00 00 00 00      	ldxdw r2, [r10 - 0x820]
    18d0: 79 22 08 00 00 00 00 00      	ldxdw r2, [r2 + 0x8]
    18d8: 79 28 08 00 00 00 00 00      	ldxdw r8, [r2 + 0x8]
    18e0: 5d 78 77 05 00 00 00 00      	jne r8, r7, +0x577 <entrypoint+0x3c78>
    18e8: 79 47 60 00 00 00 00 00      	ldxdw r7, [r4 + 0x60]
    18f0: 79 28 10 00 00 00 00 00      	ldxdw r8, [r2 + 0x10]
    18f8: 5d 78 74 05 00 00 00 00      	jne r8, r7, +0x574 <entrypoint+0x3c78>
    1900: 79 47 68 00 00 00 00 00      	ldxdw r7, [r4 + 0x68]
    1908: 79 28 18 00 00 00 00 00      	ldxdw r8, [r2 + 0x18]
    1910: 5d 78 71 05 00 00 00 00      	jne r8, r7, +0x571 <entrypoint+0x3c78>
    1918: bf 60 00 00 00 00 00 00      	mov64 r0, r6
    1920: 79 47 70 00 00 00 00 00      	ldxdw r7, [r4 + 0x70]
    1928: 79 28 20 00 00 00 00 00      	ldxdw r8, [r2 + 0x20]
    1930: 5d 78 6d 05 00 00 00 00      	jne r8, r7, +0x56d <entrypoint+0x3c78>
    1938: 79 27 50 00 00 00 00 00      	ldxdw r7, [r2 + 0x50]
    1940: 55 07 ab 07 52 00 00 00      	jne r7, 0x52, +0x7ab <entrypoint+0x4e78>
    1948: 71 27 85 00 00 00 00 00      	ldxb r7, [r2 + 0x85]
    1950: 15 07 b1 07 00 00 00 00      	jeq r7, 0x0, +0x7b1 <entrypoint+0x4eb8>
    1958: 55 07 a8 07 01 00 00 00      	jne r7, 0x1, +0x7a8 <entrypoint+0x4e78>
    1960: 71 27 84 00 00 00 00 00      	ldxb r7, [r2 + 0x84]
    1968: 07 02 00 00 58 00 00 00      	add64 r2, 0x58
    1970: 5d 71 b3 07 00 00 00 00      	jne r1, r7, +0x7b3 <entrypoint+0x4ee8>
    1978: 79 a1 e0 f7 00 00 00 00      	ldxdw r1, [r10 - 0x820]
    1980: bf 16 00 00 00 00 00 00      	mov64 r6, r1
    1988: 07 06 00 00 20 00 00 00      	add64 r6, 0x20
    1990: 7b 6a b0 f7 00 00 00 00      	stxdw [r10 - 0x850], r6
    1998: 79 18 18 00 00 00 00 00      	ldxdw r8, [r1 + 0x18]
    19a0: 79 87 08 00 00 00 00 00      	ldxdw r7, [r8 + 0x8]
    19a8: 71 49 a0 00 00 00 00 00      	ldxb r9, [r4 + 0xa0]
    19b0: 55 09 af 07 01 00 00 00      	jne r9, 0x1, +0x7af <entrypoint+0x4f08>
    19b8: 79 49 a4 00 00 00 00 00      	ldxdw r9, [r4 + 0xa4]
    19c0: 5d 79 ad 07 00 00 00 00      	jne r9, r7, +0x7ad <entrypoint+0x4f08>
    19c8: 79 89 10 00 00 00 00 00      	ldxdw r9, [r8 + 0x10]
    19d0: 79 41 ac 00 00 00 00 00      	ldxdw r1, [r4 + 0xac]
    19d8: 5d 91 aa 07 00 00 00 00      	jne r1, r9, +0x7aa <entrypoint+0x4f08>
    19e0: 79 81 18 00 00 00 00 00      	ldxdw r1, [r8 + 0x18]
    19e8: 79 49 b4 00 00 00 00 00      	ldxdw r9, [r4 + 0xb4]
    19f0: 5d 19 a7 07 00 00 00 00      	jne r9, r1, +0x7a7 <entrypoint+0x4f08>
    19f8: 79 81 20 00 00 00 00 00      	ldxdw r1, [r8 + 0x20]
    1a00: 79 49 bc 00 00 00 00 00      	ldxdw r9, [r4 + 0xbc]
    1a08: 5d 19 a4 07 00 00 00 00      	jne r9, r1, +0x7a4 <entrypoint+0x4f08>
    1a10: 79 81 50 00 00 00 00 00      	ldxdw r1, [r8 + 0x50]
    1a18: 55 01 c0 09 63 01 00 00      	jne r1, 0x163, +0x9c0 <entrypoint+0x5ff8>
    1a20: 79 87 28 00 00 00 00 00      	ldxdw r7, [r8 + 0x28]
    1a28: 18 01 00 00 06 dd f6 e1 00 00 00 00 ee 75 8f de      	lddw r1, -0x21708a111e0922fa
    1a38: 1d 17 b0 09 00 00 00 00      	jeq r7, r1, +0x9b0 <entrypoint+0x5f98>
    1a40: 18 01 00 00 06 dd f6 e1 00 00 00 00 d7 65 a1 93      	lddw r1, -0x6c5e9a281e0922fa
    1a50: 5d 17 b9 09 00 00 00 00      	jne r7, r1, +0x9b9 <entrypoint+0x5ff8>
    1a58: 79 81 30 00 00 00 00 00      	ldxdw r1, [r8 + 0x30]
    1a60: 18 07 00 00 d9 cb e1 46 00 00 00 00 ce eb 79 ac      	lddw r7, -0x53861431b91e3427
    1a70: 5d 71 b5 09 00 00 00 00      	jne r1, r7, +0x9b5 <entrypoint+0x5ff8>
    1a78: 79 81 38 00 00 00 00 00      	ldxdw r1, [r8 + 0x38]
    1a80: 18 07 00 00 1c b4 85 ed 00 00 00 00 5f 5b 37 91      	lddw r7, -0x6ec8a4a0127a4be4
    1a90: 5d 71 b1 09 00 00 00 00      	jne r1, r7, +0x9b1 <entrypoint+0x5ff8>
    1a98: 79 81 40 00 00 00 00 00      	ldxdw r1, [r8 + 0x40]
    1aa0: 18 07 00 00 3a 8c f5 85 00 00 00 00 7e ff 00 a9      	lddw r7, -0x56ff00817a0a73c6
    1ab0: 5d 71 ad 09 00 00 00 00      	jne r1, r7, +0x9ad <entrypoint+0x5ff8>
    1ab8: 05 00 70 0a 00 00 00 00      	ja +0xa70 <entrypoint+0x6618>
    1ac0: 15 05 75 00 07 00 00 00      	jeq r5, 0x7, +0x75 <entrypoint+0x1648>
    1ac8: 15 05 41 01 08 00 00 00      	jeq r5, 0x8, +0x141 <entrypoint+0x1cb0>
    1ad0: 55 05 96 01 09 00 00 00      	jne r5, 0x9, +0x196 <entrypoint+0x1f60>
    1ad8: b7 06 00 00 0a 00 00 00      	mov64 r6, 0xa
    1ae0: 79 a1 d8 f7 00 00 00 00      	ldxdw r1, [r10 - 0x828]
    1ae8: a5 01 95 0b 03 00 00 00      	jlt r1, 0x3, +0xb95 <entrypoint+0x6f70>
    1af0: 79 a1 e0 f7 00 00 00 00      	ldxdw r1, [r10 - 0x820]
    1af8: 79 13 08 00 00 00 00 00      	ldxdw r3, [r1 + 0x8]
    1b00: 79 11 00 00 00 00 00 00      	ldxdw r1, [r1 + 0x0]
    1b08: 1d 31 87 11 00 00 00 00      	jeq r1, r3, +0x1187 <entrypoint+0x9f20>
    1b10: 79 12 50 00 00 00 00 00      	ldxdw r2, [r1 + 0x50]
    1b18: 55 02 87 12 a5 00 00 00      	jne r2, 0xa5, +0x1287 <entrypoint+0xa730>
    1b20: 71 12 c4 00 00 00 00 00      	ldxb r2, [r1 + 0xc4]
    1b28: 79 a9 a0 f7 00 00 00 00      	ldxdw r9, [r10 - 0x860]
    1b30: 25 02 65 11 02 00 00 00      	jgt r2, 0x2, +0x1165 <entrypoint+0x9e38>
    1b38: 15 02 62 11 00 00 00 00      	jeq r2, 0x0, +0x1162 <entrypoint+0x9e28>
    1b40: 71 12 c5 00 00 00 00 00      	ldxb r2, [r1 + 0xc5]
    1b48: 15 02 02 00 01 00 00 00      	jeq r2, 0x1, +0x2 <entrypoint+0x1338>
    1b50: 79 12 98 00 00 00 00 00      	ldxdw r2, [r1 + 0x98]
    1b58: 55 02 11 12 00 00 00 00      	jne r2, 0x0, +0x1211 <entrypoint+0xa3c0>
    1b60: 71 12 d9 00 00 00 00 00      	ldxb r2, [r1 + 0xd9]
    1b68: 15 02 d3 01 01 00 00 00      	jeq r2, 0x1, +0x1d3 <entrypoint+0x21e0>
    1b70: bf 12 00 00 00 00 00 00      	mov64 r2, r1
    1b78: 07 02 00 00 78 00 00 00      	add64 r2, 0x78
    1b80: 79 14 78 00 00 00 00 00      	ldxdw r4, [r1 + 0x78]
    1b88: 18 05 00 00 00 33 90 72 00 00 00 00 8d 34 11 60      	lddw r5, 0x6011348d72903300
    1b98: 1d 54 d3 01 00 00 00 00      	jeq r4, r5, +0x1d3 <entrypoint+0x2210>
    1ba0: 55 04 f0 01 00 00 00 00      	jne r4, 0x0, +0x1f0 <entrypoint+0x2300>
    1ba8: 79 14 80 00 00 00 00 00      	ldxdw r4, [r1 + 0x80]
    1bb0: 55 04 ee 01 00 00 00 00      	jne r4, 0x0, +0x1ee <entrypoint+0x2300>
    1bb8: 79 14 88 00 00 00 00 00      	ldxdw r4, [r1 + 0x88]
    1bc0: 55 04 ec 01 00 00 00 00      	jne r4, 0x0, +0x1ec <entrypoint+0x2300>
    1bc8: 79 14 90 00 00 00 00 00      	ldxdw r4, [r1 + 0x90]
    1bd0: 55 04 ea 01 00 00 00 00      	jne r4, 0x0, +0x1ea <entrypoint+0x2300>
    1bd8: 05 00 d7 01 00 00 00 00      	ja +0x1d7 <entrypoint+0x2270>
    1be0: 15 05 9f 00 12 00 00 00      	jeq r5, 0x12, +0x9f <entrypoint+0x18b8>
    1be8: 15 05 50 01 14 00 00 00      	jeq r5, 0x14, +0x150 <entrypoint+0x1e48>
    1bf0: 55 05 72 01 16 00 00 00      	jne r5, 0x16, +0x172 <entrypoint+0x1f60>
    1bf8: 79 a1 d8 f7 00 00 00 00      	ldxdw r1, [r10 - 0x828]
    1c00: 15 01 6a 11 00 00 00 00      	jeq r1, 0x0, +0x116a <entrypoint+0x9f30>
    1c08: b7 06 00 00 03 00 00 00      	mov64 r6, 0x3
    1c10: 79 a1 e0 f7 00 00 00 00      	ldxdw r1, [r10 - 0x820]
    1c18: 79 11 00 00 00 00 00 00      	ldxdw r1, [r1 + 0x0]
    1c20: 79 12 50 00 00 00 00 00      	ldxdw r2, [r1 + 0x50]
    1c28: 55 02 cd 12 a5 00 00 00      	jne r2, 0xa5, +0x12cd <entrypoint+0xaa70>
    1c30: 71 11 c4 00 00 00 00 00      	ldxb r1, [r1 + 0xc4]
    1c38: 25 01 6b 0b 02 00 00 00      	jgt r1, 0x2, +0xb6b <entrypoint+0x6f70>
    1c40: 55 01 67 0b 00 00 00 00      	jne r1, 0x0, +0xb67 <entrypoint+0x6f58>
    1c48: 05 00 fb 04 00 00 00 00      	ja +0x4fb <entrypoint+0x3c00>
    1c50: b7 06 00 00 0a 00 00 00      	mov64 r6, 0xa
    1c58: bf 51 00 00 00 00 00 00      	mov64 r1, r5
    1c60: 07 01 00 00 fc ff ff ff      	add64 r1, -0x4
    1c68: 57 01 00 00 ff 00 00 00      	and64 r1, 0xff
    1c70: a5 01 07 00 0a 00 00 00      	jlt r1, 0xa, +0x7 <entrypoint+0x1488>
    1c78: 25 05 a1 fe 2d 00 00 00      	jgt r5, 0x2d, -0x15f <entrypoint+0x960>
    1c80: b7 01 00 00 01 00 00 00      	mov64 r1, 0x1
    1c88: 6f 51 00 00 00 00 00 00      	lsh64 r1, r5
    1c90: 18 02 00 00 00 00 40 00 00 00 00 00 40 20 00 00      	lddw r2, 0x204000400000
    1ca0: 5f 21 00 00 00 00 00 00      	and64 r1, r2
    1ca8: 15 01 9b fe 00 00 00 00      	jeq r1, 0x0, -0x165 <entrypoint+0x960>
    1cb0: 79 a1 d8 f7 00 00 00 00      	ldxdw r1, [r10 - 0x828]
    1cb8: 15 01 68 10 00 00 00 00      	jeq r1, 0x0, +0x1068 <entrypoint+0x97d8>
    1cc0: 79 a1 e0 f7 00 00 00 00      	ldxdw r1, [r10 - 0x820]
    1cc8: 79 11 00 00 00 00 00 00      	ldxdw r1, [r1 + 0x0]
    1cd0: 79 12 28 00 00 00 00 00      	ldxdw r2, [r1 + 0x28]
    1cd8: 18 03 00 00 06 dd f6 e1 00 00 00 00 d7 65 a1 93      	lddw r3, -0x6c5e9a281e0922fa
    1ce8: 1d 32 86 fe 00 00 00 00      	jeq r2, r3, -0x17a <entrypoint+0x8f8>
    1cf0: 05 00 82 0f 00 00 00 00      	ja +0xf82 <entrypoint+0x90e0>
    1cf8: a5 04 d2 10 22 00 00 00      	jlt r4, 0x22, +0x10d2 <entrypoint+0x9b68>
    1d00: b7 09 00 00 00 00 00 00      	mov64 r9, 0x0
    1d08: 71 25 03 00 00 00 00 00      	ldxb r5, [r2 + 0x3]
    1d10: 71 21 24 00 00 00 00 00      	ldxb r1, [r2 + 0x24]
    1d18: 15 01 04 00 00 00 00 00      	jeq r1, 0x0, +0x4 <entrypoint+0x1518>
    1d20: 55 01 3e 12 01 00 00 00      	jne r1, 0x1, +0x123e <entrypoint+0xa6f0>
    1d28: a5 04 9b 0f 42 00 00 00      	jlt r4, 0x42, +0xf9b <entrypoint+0x91e0>
    1d30: bf 29 00 00 00 00 00 00      	mov64 r9, r2
    1d38: 07 09 00 00 25 00 00 00      	add64 r9, 0x25
    1d40: b7 06 00 00 0a 00 00 00      	mov64 r6, 0xa
    1d48: 79 a1 d8 f7 00 00 00 00      	ldxdw r1, [r10 - 0x828]
    1d50: b5 01 48 0b 01 00 00 00      	jle r1, 0x1, +0xb48 <entrypoint+0x6f70>
    1d58: 79 a1 e0 f7 00 00 00 00      	ldxdw r1, [r10 - 0x820]
    1d60: 79 17 08 00 00 00 00 00      	ldxdw r7, [r1 + 0x8]
    1d68: 79 71 08 00 00 00 00 00      	ldxdw r1, [r7 + 0x8]
    1d70: 18 02 00 00 06 a7 d5 17 00 00 00 00 19 2c 5c 51      	lddw r2, 0x515c2c1917d5a706
    1d80: 5d 21 a7 11 00 00 00 00      	jne r1, r2, +0x11a7 <entrypoint+0xa298>
    1d88: 79 71 10 00 00 00 00 00      	ldxdw r1, [r7 + 0x10]
    1d90: 18 02 00 00 21 8c c9 4c 00 00 00 00 3d 4a f1 7f      	lddw r2, 0x7ff14a3d4cc98c21
    1da0: 5d 21 a3 11 00 00 00 00      	jne r1, r2, +0x11a3 <entrypoint+0xa298>
    1da8: 79 71 18 00 00 00 00 00      	ldxdw r1, [r7 + 0x18]
    1db0: 18 02 00 00 58 da ee 08 00 00 00 00 9b a1 fd 44      	lddw r2, 0x44fda19b08eeda58
    1dc0: 5d 21 9f 11 00 00 00 00      	jne r1, r2, +0x119f <entrypoint+0xa298>
    1dc8: 79 71 20 00 00 00 00 00      	ldxdw r1, [r7 + 0x20]
    1dd0: 18 02 00 00 e3 db d9 8a 00 00 00 00 00 00 00 00      	lddw r2, 0x8ad9dbe3
    1de0: 5d 21 9b 11 00 00 00 00      	jne r1, r2, +0x119b <entrypoint+0xa298>
    1de8: 79 a1 e0 f7 00 00 00 00      	ldxdw r1, [r10 - 0x820]
    1df0: 79 18 00 00 00 00 00 00      	ldxdw r8, [r1 + 0x0]
    1df8: 79 84 50 00 00 00 00 00      	ldxdw r4, [r8 + 0x50]
    1e00: bf 42 00 00 00 00 00 00      	mov64 r2, r4
    1e08: 07 02 00 00 80 00 00 00      	add64 r2, 0x80
    1e10: 79 71 58 00 00 00 00 00      	ldxdw r1, [r7 + 0x58]
    1e18: 2f 21 00 00 00 00 00 00      	mul64 r1, r2
    1e20: 79 80 48 00 00 00 00 00      	ldxdw r0, [r8 + 0x48]
    1e28: 79 76 60 00 00 00 00 00      	ldxdw r6, [r7 + 0x60]
    1e30: 18 02 00 00 00 00 00 00 00 00 00 00 00 00 f0 3f      	lddw r2, 0x3ff0000000000000
    1e40: 1d 26 d8 02 00 00 00 00      	jeq r6, r2, +0x2d8 <entrypoint+0x2ce0>
    1e48: 18 02 00 00 00 00 00 00 00 00 00 00 00 00 00 40      	lddw r2, 0x4000000000000000
    1e58: 5d 26 b8 02 00 00 00 00      	jne r6, r2, +0x2b8 <entrypoint+0x2bf8>
    1e60: 67 01 00 00 01 00 00 00      	lsh64 r1, 0x1
    1e68: 05 00 d3 02 00 00 00 00      	ja +0x2d3 <entrypoint+0x2ce0>
    1e70: a5 04 a3 10 08 00 00 00      	jlt r4, 0x8, +0x10a3 <entrypoint+0x9b68>
    1e78: b7 06 00 00 0a 00 00 00      	mov64 r6, 0xa
    1e80: 79 a1 d8 f7 00 00 00 00      	ldxdw r1, [r10 - 0x828]
    1e88: a5 01 21 0b 03 00 00 00      	jlt r1, 0x3, +0xb21 <entrypoint+0x6f70>
    1e90: 79 a1 e0 f7 00 00 00 00      	ldxdw r1, [r10 - 0x820]
    1e98: 79 13 08 00 00 00 00 00      	ldxdw r3, [r1 + 0x8]
    1ea0: 79 31 50 00 00 00 00 00      	ldxdw r1, [r3 + 0x50]
    1ea8: 55 01 11 12 a5 00 00 00      	jne r1, 0xa5, +0x1211 <entrypoint+0xa710>
    1eb0: 71 31 c4 00 00 00 00 00      	ldxb r1, [r3 + 0xc4]
    1eb8: 79 a9 90 f7 00 00 00 00      	ldxdw r9, [r10 - 0x870]
    1ec0: 25 01 f3 10 02 00 00 00      	jgt r1, 0x2, +0x10f3 <entrypoint+0x9e38>
    1ec8: 15 01 f0 10 00 00 00 00      	jeq r1, 0x0, +0x10f0 <entrypoint+0x9e28>
    1ed0: 15 01 f8 10 02 00 00 00      	jeq r1, 0x2, +0x10f8 <entrypoint+0x9e70>
    1ed8: 71 31 c5 00 00 00 00 00      	ldxb r1, [r3 + 0xc5]
    1ee0: 15 01 a2 11 01 00 00 00      	jeq r1, 0x1, +0x11a2 <entrypoint+0xa3d0>
    1ee8: bf 35 00 00 00 00 00 00      	mov64 r5, r3
    1ef0: 07 05 00 00 58 00 00 00      	add64 r5, 0x58
    1ef8: 79 51 00 00 00 00 00 00      	ldxdw r1, [r5 + 0x0]
    1f00: 79 a2 e0 f7 00 00 00 00      	ldxdw r2, [r10 - 0x820]
    1f08: 79 24 00 00 00 00 00 00      	ldxdw r4, [r2 + 0x0]
    1f10: 79 42 08 00 00 00 00 00      	ldxdw r2, [r4 + 0x8]
    1f18: 5d 12 6e 10 00 00 00 00      	jne r2, r1, +0x106e <entrypoint+0x9a68>
    1f20: 79 31 60 00 00 00 00 00      	ldxdw r1, [r3 + 0x60]
    1f28: 79 42 10 00 00 00 00 00      	ldxdw r2, [r4 + 0x10]
    1f30: 5d 12 6b 10 00 00 00 00      	jne r2, r1, +0x106b <entrypoint+0x9a68>
    1f38: 79 31 68 00 00 00 00 00      	ldxdw r1, [r3 + 0x68]
    1f40: 79 42 18 00 00 00 00 00      	ldxdw r2, [r4 + 0x18]
    1f48: 5d 12 68 10 00 00 00 00      	jne r2, r1, +0x1068 <entrypoint+0x9a68>
    1f50: 79 31 70 00 00 00 00 00      	ldxdw r1, [r3 + 0x70]
    1f58: 79 42 20 00 00 00 00 00      	ldxdw r2, [r4 + 0x20]
    1f60: 5d 12 65 10 00 00 00 00      	jne r2, r1, +0x1065 <entrypoint+0x9a68>
    1f68: 79 41 50 00 00 00 00 00      	ldxdw r1, [r4 + 0x50]
    1f70: 55 01 f4 10 52 00 00 00      	jne r1, 0x52, +0x10f4 <entrypoint+0x9ef0>
    1f78: 71 41 85 00 00 00 00 00      	ldxb r1, [r4 + 0x85]
    1f80: 55 01 de 10 01 00 00 00      	jne r1, 0x1, +0x10de <entrypoint+0x9e50>
    1f88: bf 46 00 00 00 00 00 00      	mov64 r6, r4
    1f90: 07 06 00 00 58 00 00 00      	add64 r6, 0x58
    1f98: 71 61 00 00 00 00 00 00      	ldxb r1, [r6 + 0x0]
    1fa0: 55 01 fe 10 01 00 00 00      	jne r1, 0x1, +0x10fe <entrypoint+0x9f70>
    1fa8: 79 41 5c 00 00 00 00 00      	ldxdw r1, [r4 + 0x5c]
    1fb0: 79 a2 e0 f7 00 00 00 00      	ldxdw r2, [r10 - 0x820]
    1fb8: 79 20 10 00 00 00 00 00      	ldxdw r0, [r2 + 0x10]
    1fc0: 79 02 08 00 00 00 00 00      	ldxdw r2, [r0 + 0x8]
    1fc8: 5d 21 c9 10 00 00 00 00      	jne r1, r2, +0x10c9 <entrypoint+0x9df0>
    1fd0: 79 01 10 00 00 00 00 00      	ldxdw r1, [r0 + 0x10]
    1fd8: 79 42 64 00 00 00 00 00      	ldxdw r2, [r4 + 0x64]
    1fe0: 5d 12 c6 10 00 00 00 00      	jne r2, r1, +0x10c6 <entrypoint+0x9df0>
    1fe8: 79 01 18 00 00 00 00 00      	ldxdw r1, [r0 + 0x18]
    1ff0: 79 42 6c 00 00 00 00 00      	ldxdw r2, [r4 + 0x6c]
    1ff8: 5d 12 c3 10 00 00 00 00      	jne r2, r1, +0x10c3 <entrypoint+0x9df0>
    2000: 7b 5a 90 f7 00 00 00 00      	stxdw [r10 - 0x870], r5
    2008: 79 01 20 00 00 00 00 00      	ldxdw r1, [r0 + 0x20]
    2010: 79 42 74 00 00 00 00 00      	ldxdw r2, [r4 + 0x74]
    2018: 5d 12 bf 10 00 00 00 00      	jne r2, r1, +0x10bf <entrypoint+0x9df0>
    2020: 79 85 00 00 00 00 00 00      	ldxdw r5, [r8 + 0x0]
    2028: 79 01 50 00 00 00 00 00      	ldxdw r1, [r0 + 0x50]
    2030: 7b 6a 60 f7 00 00 00 00      	stxdw [r10 - 0x8a0], r6
    2038: 55 01 9f 03 63 01 00 00      	jne r1, 0x163, +0x39f <entrypoint+0x3510>
    2040: 79 01 28 00 00 00 00 00      	ldxdw r1, [r0 + 0x28]
    2048: 18 02 00 00 06 dd f6 e1 00 00 00 00 ee 75 8f de      	lddw r2, -0x21708a111e0922fa
    2058: 1d 21 8f 03 00 00 00 00      	jeq r1, r2, +0x38f <entrypoint+0x34b0>
    2060: 18 02 00 00 06 dd f6 e1 00 00 00 00 d7 65 a1 93      	lddw r2, -0x6c5e9a281e0922fa
    2070: 5d 21 98 03 00 00 00 00      	jne r1, r2, +0x398 <entrypoint+0x3510>
    2078: 79 01 30 00 00 00 00 00      	ldxdw r1, [r0 + 0x30]
    2080: 18 02 00 00 d9 cb e1 46 00 00 00 00 ce eb 79 ac      	lddw r2, -0x53861431b91e3427
    2090: 5d 21 94 03 00 00 00 00      	jne r1, r2, +0x394 <entrypoint+0x3510>
    2098: 79 01 38 00 00 00 00 00      	ldxdw r1, [r0 + 0x38]
    20a0: 18 02 00 00 1c b4 85 ed 00 00 00 00 5f 5b 37 91      	lddw r2, -0x6ec8a4a0127a4be4
    20b0: 5d 21 90 03 00 00 00 00      	jne r1, r2, +0x390 <entrypoint+0x3510>
    20b8: 79 01 40 00 00 00 00 00      	ldxdw r1, [r0 + 0x40]
    20c0: 18 02 00 00 3a 8c f5 85 00 00 00 00 7e ff 00 a9      	lddw r2, -0x56ff00817a0a73c6
    20d0: 5d 21 8c 03 00 00 00 00      	jne r1, r2, +0x38c <entrypoint+0x3510>
    20d8: 05 00 f4 04 00 00 00 00      	ja +0x4f4 <entrypoint+0x4058>
    20e0: b5 04 55 10 1f 00 00 00      	jle r4, 0x1f, +0x1055 <entrypoint+0x9b68>
    20e8: b7 06 00 00 0a 00 00 00      	mov64 r6, 0xa
    20f0: 79 a1 d8 f7 00 00 00 00      	ldxdw r1, [r10 - 0x828]
    20f8: a5 01 d3 0a 02 00 00 00      	jlt r1, 0x2, +0xad3 <entrypoint+0x6f70>
    2100: 79 a1 e0 f7 00 00 00 00      	ldxdw r1, [r10 - 0x820]
    2108: 79 19 00 00 00 00 00 00      	ldxdw r9, [r1 + 0x0]
    2110: 79 96 50 00 00 00 00 00      	ldxdw r6, [r9 + 0x50]
    2118: bf a1 00 00 00 00 00 00      	mov64 r1, r10
    2120: 07 01 00 00 e0 ff ff ff      	add64 r1, -0x20
    2128: 85 10 00 00 0f 29 00 00      	call 0x290f
    2130: 61 a1 e0 ff 00 00 00 00      	ldxw r1, [r10 - 0x20]
    2138: 15 01 fb 0e 01 00 00 00      	jeq r1, 0x1, +0xefb <entrypoint+0x90f0>
    2140: 07 06 00 00 80 00 00 00      	add64 r6, 0x80
    2148: 79 a1 e8 ff 00 00 00 00      	ldxdw r1, [r10 - 0x18]
    2150: 2f 61 00 00 00 00 00 00      	mul64 r1, r6
    2158: 79 a6 f0 ff 00 00 00 00      	ldxdw r6, [r10 - 0x10]
    2160: 18 02 00 00 00 00 00 00 00 00 00 00 00 00 f0 3f      	lddw r2, 0x3ff0000000000000
    2170: 1d 26 f4 01 00 00 00 00      	jeq r6, r2, +0x1f4 <entrypoint+0x28f0>
    2178: 18 02 00 00 00 00 00 00 00 00 00 00 00 00 00 40      	lddw r2, 0x4000000000000000
    2188: 5d 26 db 01 00 00 00 00      	jne r6, r2, +0x1db <entrypoint+0x2840>
    2190: 67 01 00 00 01 00 00 00      	lsh64 r1, 0x1
    2198: 05 00 ef 01 00 00 00 00      	ja +0x1ef <entrypoint+0x28f0>
    21a0: b7 06 00 00 0a 00 00 00      	mov64 r6, 0xa
    21a8: 79 a1 d8 f7 00 00 00 00      	ldxdw r1, [r10 - 0x828]
    21b0: a5 01 bc 0a 03 00 00 00      	jlt r1, 0x3, +0xabc <entrypoint+0x6f70>
    21b8: 79 a1 d8 f7 00 00 00 00      	ldxdw r1, [r10 - 0x828]
    21c0: 15 01 87 15 03 00 00 00      	jeq r1, 0x3, +0x1587 <entrypoint+0xc5d8>
    21c8: 79 a1 e0 f7 00 00 00 00      	ldxdw r1, [r10 - 0x820]
    21d0: 79 18 18 00 00 00 00 00      	ldxdw r8, [r1 + 0x18]
    21d8: 79 81 08 00 00 00 00 00      	ldxdw r1, [r8 + 0x8]
    21e0: 18 02 00 00 06 a7 d5 17 00 00 00 00 19 2c 5c 51      	lddw r2, 0x515c2c1917d5a706
    21f0: 5d 21 16 11 00 00 00 00      	jne r1, r2, +0x1116 <entrypoint+0xa280>
    21f8: 79 81 10 00 00 00 00 00      	ldxdw r1, [r8 + 0x10]
    2200: 18 02 00 00 21 8c c9 4c 00 00 00 00 3d 4a f1 7f      	lddw r2, 0x7ff14a3d4cc98c21
    2210: 5d 21 12 11 00 00 00 00      	jne r1, r2, +0x1112 <entrypoint+0xa280>
    2218: 79 81 18 00 00 00 00 00      	ldxdw r1, [r8 + 0x18]
    2220: 18 02 00 00 58 da ee 08 00 00 00 00 9b a1 fd 44      	lddw r2, 0x44fda19b08eeda58
    2230: 5d 21 0e 11 00 00 00 00      	jne r1, r2, +0x110e <entrypoint+0xa280>
    2238: 79 81 20 00 00 00 00 00      	ldxdw r1, [r8 + 0x20]
    2240: 18 02 00 00 e3 db d9 8a 00 00 00 00 00 00 00 00      	lddw r2, 0x8ad9dbe3
    2250: 5d 21 0a 11 00 00 00 00      	jne r1, r2, +0x110a <entrypoint+0xa280>
    2258: 79 a1 e0 f7 00 00 00 00      	ldxdw r1, [r10 - 0x820]
    2260: 79 19 00 00 00 00 00 00      	ldxdw r9, [r1 + 0x0]
    2268: 79 95 50 00 00 00 00 00      	ldxdw r5, [r9 + 0x50]
    2270: 79 17 10 00 00 00 00 00      	ldxdw r7, [r1 + 0x10]
    2278: bf 52 00 00 00 00 00 00      	mov64 r2, r5
    2280: 07 02 00 00 80 00 00 00      	add64 r2, 0x80
    2288: 79 81 58 00 00 00 00 00      	ldxdw r1, [r8 + 0x58]
    2290: 2f 21 00 00 00 00 00 00      	mul64 r1, r2
    2298: 79 86 60 00 00 00 00 00      	ldxdw r6, [r8 + 0x60]
    22a0: 18 02 00 00 00 00 00 00 00 00 00 00 00 00 f0 3f      	lddw r2, 0x3ff0000000000000
    22b0: 1d 26 52 01 00 00 00 00      	jeq r6, r2, +0x152 <entrypoint+0x2520>
    22b8: 18 02 00 00 00 00 00 00 00 00 00 00 00 00 00 40      	lddw r2, 0x4000000000000000
    22c8: 5d 26 36 01 00 00 00 00      	jne r6, r2, +0x136 <entrypoint+0x2458>
    22d0: 67 01 00 00 01 00 00 00      	lsh64 r1, 0x1
    22d8: 05 00 4d 01 00 00 00 00      	ja +0x14d <entrypoint+0x2520>
    22e0: a5 04 84 04 09 00 00 00      	jlt r4, 0x9, +0x484 <entrypoint+0x3ee0>
    22e8: b7 00 00 00 0a 00 00 00      	mov64 r0, 0xa
    22f0: 79 a1 d8 f7 00 00 00 00      	ldxdw r1, [r10 - 0x828]
    22f8: a5 01 20 04 03 00 00 00      	jlt r1, 0x3, +0x420 <entrypoint+0x3bd8>
    2300: 79 a1 e0 f7 00 00 00 00      	ldxdw r1, [r10 - 0x820]
    2308: 79 13 00 00 00 00 00 00      	ldxdw r3, [r1 + 0x0]
    2310: 79 31 50 00 00 00 00 00      	ldxdw r1, [r3 + 0x50]
    2318: 79 a9 68 f7 00 00 00 00      	ldxdw r9, [r10 - 0x898]
    2320: 55 01 ec 02 a5 00 00 00      	jne r1, 0xa5, +0x2ec <entrypoint+0x3260>
    2328: 71 31 c4 00 00 00 00 00      	ldxb r1, [r3 + 0xc4]
    2330: 25 01 ea 02 02 00 00 00      	jgt r1, 0x2, +0x2ea <entrypoint+0x3260>
    2338: 15 01 77 06 00 00 00 00      	jeq r1, 0x0, +0x677 <entrypoint+0x4ed0>
    2340: bf 32 00 00 00 00 00 00      	mov64 r2, r3
    2348: 07 02 00 00 58 00 00 00      	add64 r2, 0x58
    2350: 7b 2a 68 f7 00 00 00 00      	stxdw [r10 - 0x898], r2
    2358: 79 a2 e0 f7 00 00 00 00      	ldxdw r2, [r10 - 0x820]
    2360: 79 22 08 00 00 00 00 00      	ldxdw r2, [r2 + 0x8]
    2368: 79 24 50 00 00 00 00 00      	ldxdw r4, [r2 + 0x50]
    2370: 55 04 9a 03 52 00 00 00      	jne r4, 0x52, +0x39a <entrypoint+0x3820>
    2378: 71 24 85 00 00 00 00 00      	ldxb r4, [r2 + 0x85]
    2380: 15 04 9f 03 00 00 00 00      	jeq r4, 0x0, +0x39f <entrypoint+0x3858>
    2388: 55 04 97 03 01 00 00 00      	jne r4, 0x1, +0x397 <entrypoint+0x3820>
    2390: bf 24 00 00 00 00 00 00      	mov64 r4, r2
    2398: 07 04 00 00 58 00 00 00      	add64 r4, 0x58
    23a0: 7b 4a 20 f7 00 00 00 00      	stxdw [r10 - 0x8e0], r4
    23a8: b7 00 00 00 00 00 00 00      	mov64 r0, 0x0
    23b0: 79 a4 d0 f7 00 00 00 00      	ldxdw r4, [r10 - 0x830]
    23b8: 15 01 a3 06 02 00 00 00      	jeq r1, 0x2, +0x6a3 <entrypoint+0x50b0>
    23c0: 71 31 c5 00 00 00 00 00      	ldxb r1, [r3 + 0xc5]
    23c8: 15 01 a3 06 01 00 00 00      	jeq r1, 0x1, +0x6a3 <entrypoint+0x50c0>
    23d0: 79 44 03 00 00 00 00 00      	ldxdw r4, [r4 + 0x3]
    23d8: b7 09 00 00 01 00 00 00      	mov64 r9, 0x1
    23e0: 79 35 98 00 00 00 00 00      	ldxdw r5, [r3 + 0x98]
    23e8: ad 45 02 04 00 00 00 00      	jlt r5, r4, +0x402 <entrypoint+0x3bd8>
    23f0: 79 a1 68 f7 00 00 00 00      	ldxdw r1, [r10 - 0x898]
    23f8: 79 11 00 00 00 00 00 00      	ldxdw r1, [r1 + 0x0]
    2400: 79 26 08 00 00 00 00 00      	ldxdw r6, [r2 + 0x8]
    2408: 5d 16 85 06 00 00 00 00      	jne r6, r1, +0x685 <entrypoint+0x5010>
    2410: 79 31 60 00 00 00 00 00      	ldxdw r1, [r3 + 0x60]
    2418: 79 26 10 00 00 00 00 00      	ldxdw r6, [r2 + 0x10]
    2420: 5d 16 82 06 00 00 00 00      	jne r6, r1, +0x682 <entrypoint+0x5010>
    2428: 79 31 68 00 00 00 00 00      	ldxdw r1, [r3 + 0x68]
    2430: 79 26 18 00 00 00 00 00      	ldxdw r6, [r2 + 0x18]
    2438: 5d 16 7f 06 00 00 00 00      	jne r6, r1, +0x67f <entrypoint+0x5010>
    2440: 79 31 70 00 00 00 00 00      	ldxdw r1, [r3 + 0x70]
    2448: 79 26 20 00 00 00 00 00      	ldxdw r6, [r2 + 0x20]
    2450: 5d 16 7c 06 00 00 00 00      	jne r6, r1, +0x67c <entrypoint+0x5010>
    2458: 79 a1 d0 f7 00 00 00 00      	ldxdw r1, [r10 - 0x830]
    2460: 71 11 0b 00 00 00 00 00      	ldxb r1, [r1 + 0xb]
    2468: 71 26 84 00 00 00 00 00      	ldxb r6, [r2 + 0x84]
    2470: 5d 61 90 06 00 00 00 00      	jne r1, r6, +0x690 <entrypoint+0x50d0>
    2478: 79 31 78 00 00 00 00 00      	ldxdw r1, [r3 + 0x78]
    2480: 18 00 00 00 00 33 90 72 00 00 00 00 8d 34 11 60      	lddw r0, 0x6011348d72903300
    2490: 1d 01 81 03 00 00 00 00      	jeq r1, r0, +0x381 <entrypoint+0x3878>
    2498: 55 01 8c 03 00 00 00 00      	jne r1, 0x0, +0x38c <entrypoint+0x38d8>
    24a0: 79 30 80 00 00 00 00 00      	ldxdw r0, [r3 + 0x80]
    24a8: 55 00 8a 03 00 00 00 00      	jne r0, 0x0, +0x38a <entrypoint+0x38d8>
    24b0: 79 30 88 00 00 00 00 00      	ldxdw r0, [r3 + 0x88]
    24b8: 55 00 88 03 00 00 00 00      	jne r0, 0x0, +0x388 <entrypoint+0x38d8>
    24c0: 79 30 90 00 00 00 00 00      	ldxdw r0, [r3 + 0x90]
    24c8: 55 00 86 03 00 00 00 00      	jne r0, 0x0, +0x386 <entrypoint+0x38d8>
    24d0: 05 00 de 03 00 00 00 00      	ja +0x3de <entrypoint+0x3ba0>
    24d8: a5 04 d6 0f 08 00 00 00      	jlt r4, 0x8, +0xfd6 <entrypoint+0x9b68>
    24e0: b7 06 00 00 0a 00 00 00      	mov64 r6, 0xa
    24e8: 79 a1 d8 f7 00 00 00 00      	ldxdw r1, [r10 - 0x828]
    24f0: a5 01 54 0a 03 00 00 00      	jlt r1, 0x3, +0xa54 <entrypoint+0x6f70>
    24f8: 79 a1 e0 f7 00 00 00 00      	ldxdw r1, [r10 - 0x820]
    2500: 79 13 00 00 00 00 00 00      	ldxdw r3, [r1 + 0x0]
    2508: 79 31 50 00 00 00 00 00      	ldxdw r1, [r3 + 0x50]
    2510: 55 01 32 10 a5 00 00 00      	jne r1, 0xa5, +0x1032 <entrypoint+0x9e80>
    2518: 71 31 c4 00 00 00 00 00      	ldxb r1, [r3 + 0xc4]
    2520: 79 a9 88 f7 00 00 00 00      	ldxdw r9, [r10 - 0x878]
    2528: 25 01 2f 10 02 00 00 00      	jgt r1, 0x2, +0x102f <entrypoint+0x9e80>
    2530: 15 01 4b 11 00 00 00 00      	jeq r1, 0x0, +0x114b <entrypoint+0xa768>
    2538: 79 a2 e0 f7 00 00 00 00      	ldxdw r2, [r10 - 0x820]
    2540: 79 22 08 00 00 00 00 00      	ldxdw r2, [r2 + 0x8]
    2548: 79 24 50 00 00 00 00 00      	ldxdw r4, [r2 + 0x50]
    2550: 55 04 21 10 52 00 00 00      	jne r4, 0x52, +0x1021 <entrypoint+0x9e38>
    2558: 71 24 85 00 00 00 00 00      	ldxb r4, [r2 + 0x85]
    2560: 55 04 1c 10 01 00 00 00      	jne r4, 0x1, +0x101c <entrypoint+0x9e20>
    2568: 15 01 25 10 02 00 00 00      	jeq r1, 0x2, +0x1025 <entrypoint+0x9e70>
    2570: 71 31 c5 00 00 00 00 00      	ldxb r1, [r3 + 0xc5]
    2578: 15 01 cf 10 01 00 00 00      	jeq r1, 0x1, +0x10cf <entrypoint+0xa3d0>
    2580: 79 84 00 00 00 00 00 00      	ldxdw r4, [r8 + 0x0]
    2588: 79 35 98 00 00 00 00 00      	ldxdw r5, [r3 + 0x98]
    2590: ad 45 14 10 00 00 00 00      	jlt r5, r4, +0x1014 <entrypoint+0x9e10>
    2598: bf 37 00 00 00 00 00 00      	mov64 r7, r3
    25a0: 07 07 00 00 58 00 00 00      	add64 r7, 0x58
    25a8: 79 71 00 00 00 00 00 00      	ldxdw r1, [r7 + 0x0]
    25b0: 79 20 08 00 00 00 00 00      	ldxdw r0, [r2 + 0x8]
    25b8: 5d 10 9a 0f 00 00 00 00      	jne r0, r1, +0xf9a <entrypoint+0x9a68>
    25c0: 79 31 60 00 00 00 00 00      	ldxdw r1, [r3 + 0x60]
    25c8: 79 20 10 00 00 00 00 00      	ldxdw r0, [r2 + 0x10]
    25d0: 5d 10 97 0f 00 00 00 00      	jne r0, r1, +0xf97 <entrypoint+0x9a68>
    25d8: 79 31 68 00 00 00 00 00      	ldxdw r1, [r3 + 0x68]
    25e0: 79 20 18 00 00 00 00 00      	ldxdw r0, [r2 + 0x18]
    25e8: 5d 10 94 0f 00 00 00 00      	jne r0, r1, +0xf94 <entrypoint+0x9a68>
    25f0: 79 31 70 00 00 00 00 00      	ldxdw r1, [r3 + 0x70]
    25f8: 79 20 20 00 00 00 00 00      	ldxdw r0, [r2 + 0x20]
    2600: 5d 10 91 0f 00 00 00 00      	jne r0, r1, +0xf91 <entrypoint+0x9a68>
    2608: 79 31 78 00 00 00 00 00      	ldxdw r1, [r3 + 0x78]
    2610: 18 00 00 00 00 33 90 72 00 00 00 00 8d 34 11 60      	lddw r0, 0x6011348d72903300
    2620: 7b 7a 58 f7 00 00 00 00      	stxdw [r10 - 0x8a8], r7
    2628: 1d 01 32 02 00 00 00 00      	jeq r1, r0, +0x232 <entrypoint+0x2f98>
    2630: 55 01 3d 02 00 00 00 00      	jne r1, 0x0, +0x23d <entrypoint+0x2ff8>
    2638: 79 30 80 00 00 00 00 00      	ldxdw r0, [r3 + 0x80]
    2640: 55 00 3b 02 00 00 00 00      	jne r0, 0x0, +0x23b <entrypoint+0x2ff8>
    2648: 79 30 88 00 00 00 00 00      	ldxdw r0, [r3 + 0x88]
    2650: 55 00 39 02 00 00 00 00      	jne r0, 0x0, +0x239 <entrypoint+0x2ff8>
    2658: 79 30 90 00 00 00 00 00      	ldxdw r0, [r3 + 0x90]
    2660: 55 00 37 02 00 00 00 00      	jne r0, 0x0, +0x237 <entrypoint+0x2ff8>
    2668: 05 00 f7 02 00 00 00 00      	ja +0x2f7 <entrypoint+0x3600>
    2670: a5 04 a3 0f 22 00 00 00      	jlt r4, 0x22, +0xfa3 <entrypoint+0x9b68>
    2678: b7 07 00 00 00 00 00 00      	mov64 r7, 0x0
    2680: 79 a2 d0 f7 00 00 00 00      	ldxdw r2, [r10 - 0x830]
    2688: 71 28 03 00 00 00 00 00      	ldxb r8, [r2 + 0x3]
    2690: 71 21 24 00 00 00 00 00      	ldxb r1, [r2 + 0x24]
    2698: 15 01 04 00 00 00 00 00      	jeq r1, 0x0, +0x4 <entrypoint+0x1e98>
    26a0: 55 01 0e 11 01 00 00 00      	jne r1, 0x1, +0x110e <entrypoint+0xa6f0>
    26a8: a5 04 6b 0e 42 00 00 00      	jlt r4, 0x42, +0xe6b <entrypoint+0x91e0>
    26b0: bf 27 00 00 00 00 00 00      	mov64 r7, r2
    26b8: 07 07 00 00 25 00 00 00      	add64 r7, 0x25
    26c0: b7 06 00 00 0a 00 00 00      	mov64 r6, 0xa
    26c8: 79 a1 d8 f7 00 00 00 00      	ldxdw r1, [r10 - 0x828]
    26d0: 15 01 18 0a 00 00 00 00      	jeq r1, 0x0, +0xa18 <entrypoint+0x6f70>
    26d8: 79 a1 e0 f7 00 00 00 00      	ldxdw r1, [r10 - 0x820]
    26e0: 79 19 00 00 00 00 00 00      	ldxdw r9, [r1 + 0x0]
    26e8: 79 96 50 00 00 00 00 00      	ldxdw r6, [r9 + 0x50]
    26f0: bf a1 00 00 00 00 00 00      	mov64 r1, r10
    26f8: 07 01 00 00 e0 ff ff ff      	add64 r1, -0x20
    2700: 85 10 00 00 54 28 00 00      	call 0x2854
    2708: 61 a1 e0 ff 00 00 00 00      	ldxw r1, [r10 - 0x20]
    2710: 15 01 40 0e 01 00 00 00      	jeq r1, 0x1, +0xe40 <entrypoint+0x90f0>
    2718: 7b 8a b0 f7 00 00 00 00      	stxdw [r10 - 0x850], r8
    2720: 07 06 00 00 80 00 00 00      	add64 r6, 0x80
    2728: 79 a1 e8 ff 00 00 00 00      	ldxdw r1, [r10 - 0x18]
    2730: 2f 61 00 00 00 00 00 00      	mul64 r1, r6
    2738: 79 a6 f0 ff 00 00 00 00      	ldxdw r6, [r10 - 0x10]
    2740: 79 98 48 00 00 00 00 00      	ldxdw r8, [r9 + 0x48]
    2748: 18 02 00 00 00 00 00 00 00 00 00 00 00 00 f0 3f      	lddw r2, 0x3ff0000000000000
    2758: 1d 26 ec 01 00 00 00 00      	jeq r6, r2, +0x1ec <entrypoint+0x2e98>
    2760: 18 02 00 00 00 00 00 00 00 00 00 00 00 00 00 40      	lddw r2, 0x4000000000000000
    2770: 5d 26 d2 01 00 00 00 00      	jne r6, r2, +0x1d2 <entrypoint+0x2de0>
    2778: 67 01 00 00 01 00 00 00      	lsh64 r1, 0x1
    2780: 05 00 e7 01 00 00 00 00      	ja +0x1e7 <entrypoint+0x2e98>
    2788: 79 a1 e0 f7 00 00 00 00      	ldxdw r1, [r10 - 0x820]
    2790: 79 a2 d8 f7 00 00 00 00      	ldxdw r2, [r10 - 0x828]
    2798: bf 83 00 00 00 00 00 00      	mov64 r3, r8
    27a0: 85 10 00 00 86 18 00 00      	call 0x1886
    27a8: bf 19 00 00 00 00 00 00      	mov64 r9, r1
    27b0: 05 00 89 03 00 00 00 00      	ja +0x389 <entrypoint+0x3bd8>
    27b8: 79 42 78 00 00 00 00 00      	ldxdw r2, [r4 + 0x78]
    27c0: 5d 12 ca 0f 00 00 00 00      	jne r2, r1, +0xfca <entrypoint+0x9df0>
    27c8: 79 61 10 00 00 00 00 00      	ldxdw r1, [r6 + 0x10]
    27d0: 79 42 80 00 00 00 00 00      	ldxdw r2, [r4 + 0x80]
    27d8: 5d 12 c7 0f 00 00 00 00      	jne r2, r1, +0xfc7 <entrypoint+0x9df0>
    27e0: 79 61 18 00 00 00 00 00      	ldxdw r1, [r6 + 0x18]
    27e8: 79 42 88 00 00 00 00 00      	ldxdw r2, [r4 + 0x88]
    27f0: 5d 12 c4 0f 00 00 00 00      	jne r2, r1, +0xfc4 <entrypoint+0x9df0>
    27f8: 79 61 20 00 00 00 00 00      	ldxdw r1, [r6 + 0x20]
    2800: 79 42 90 00 00 00 00 00      	ldxdw r2, [r4 + 0x90]
    2808: 5d 12 c1 0f 00 00 00 00      	jne r2, r1, +0xfc1 <entrypoint+0x9df0>
    2810: 79 61 50 00 00 00 00 00      	ldxdw r1, [r6 + 0x50]
    2818: 55 01 d7 02 63 01 00 00      	jne r1, 0x163, +0x2d7 <entrypoint+0x36b0>
    2820: 79 61 28 00 00 00 00 00      	ldxdw r1, [r6 + 0x28]
    2828: 18 02 00 00 06 dd f6 e1 00 00 00 00 ee 75 8f de      	lddw r2, -0x21708a111e0922fa
    2838: 1d 21 c7 02 00 00 00 00      	jeq r1, r2, +0x2c7 <entrypoint+0x3650>
    2840: 18 02 00 00 06 dd f6 e1 00 00 00 00 d7 65 a1 93      	lddw r2, -0x6c5e9a281e0922fa
    2850: 5d 21 d0 02 00 00 00 00      	jne r1, r2, +0x2d0 <entrypoint+0x36b0>
    2858: 79 61 30 00 00 00 00 00      	ldxdw r1, [r6 + 0x30]
    2860: 18 02 00 00 d9 cb e1 46 00 00 00 00 ce eb 79 ac      	lddw r2, -0x53861431b91e3427
    2870: 5d 21 cc 02 00 00 00 00      	jne r1, r2, +0x2cc <entrypoint+0x36b0>
    2878: 79 61 38 00 00 00 00 00      	ldxdw r1, [r6 + 0x38]
    2880: 18 02 00 00 1c b4 85 ed 00 00 00 00 5f 5b 37 91      	lddw r2, -0x6ec8a4a0127a4be4
    2890: 5d 21 c8 02 00 00 00 00      	jne r1, r2, +0x2c8 <entrypoint+0x36b0>
    2898: 79 61 40 00 00 00 00 00      	ldxdw r1, [r6 + 0x40]
    28a0: 18 02 00 00 3a 8c f5 85 00 00 00 00 7e ff 00 a9      	lddw r2, -0x56ff00817a0a73c6
    28b0: 5d 21 c4 02 00 00 00 00      	jne r1, r2, +0x2c4 <entrypoint+0x36b0>
    28b8: 05 00 87 04 00 00 00 00      	ja +0x487 <entrypoint+0x44d0>
    28c0: 18 01 00 00 00 00 00 00 00 00 00 00 ff ff ff ff      	lddw r1, -0x100000000
    28d0: 79 a9 a8 f7 00 00 00 00      	ldxdw r9, [r10 - 0x858]
    28d8: 5f 19 00 00 00 00 00 00      	and64 r9, r1
    28e0: b7 00 00 00 03 00 00 00      	mov64 r0, 0x3
    28e8: 7b 9a a8 f7 00 00 00 00      	stxdw [r10 - 0x858], r9
    28f0: 05 00 61 03 00 00 00 00      	ja +0x361 <entrypoint+0x3bd8>
    28f8: 79 a1 e0 f7 00 00 00 00      	ldxdw r1, [r10 - 0x820]
    2900: 79 19 08 00 00 00 00 00      	ldxdw r9, [r1 + 0x8]
    2908: 79 91 08 00 00 00 00 00      	ldxdw r1, [r9 + 0x8]
    2910: 18 02 00 00 06 a7 d5 17 00 00 00 00 19 2c 5c 51      	lddw r2, 0x515c2c1917d5a706
    2920: 5d 21 7f 10 00 00 00 00      	jne r1, r2, +0x107f <entrypoint+0xa4f8>
    2928: 79 91 10 00 00 00 00 00      	ldxdw r1, [r9 + 0x10]
    2930: 18 02 00 00 21 8c c9 4c 00 00 00 00 3d 4a f1 7f      	lddw r2, 0x7ff14a3d4cc98c21
    2940: 5d 21 7b 10 00 00 00 00      	jne r1, r2, +0x107b <entrypoint+0xa4f8>
    2948: 79 91 18 00 00 00 00 00      	ldxdw r1, [r9 + 0x18]
    2950: 18 02 00 00 58 da ee 08 00 00 00 00 9b a1 fd 44      	lddw r2, 0x44fda19b08eeda58
    2960: 5d 21 77 10 00 00 00 00      	jne r1, r2, +0x1077 <entrypoint+0xa4f8>
    2968: 79 91 20 00 00 00 00 00      	ldxdw r1, [r9 + 0x20]
    2970: 18 02 00 00 e3 db d9 8a 00 00 00 00 00 00 00 00      	lddw r2, 0x8ad9dbe3
    2980: 5d 21 73 10 00 00 00 00      	jne r1, r2, +0x1073 <entrypoint+0xa4f8>
    2988: 79 87 50 00 00 00 00 00      	ldxdw r7, [r8 + 0x50]
    2990: 79 91 58 00 00 00 00 00      	ldxdw r1, [r9 + 0x58]
    2998: bf 72 00 00 00 00 00 00      	mov64 r2, r7
    29a0: 07 02 00 00 80 00 00 00      	add64 r2, 0x80
    29a8: 2f 21 00 00 00 00 00 00      	mul64 r1, r2
    29b0: 79 96 60 00 00 00 00 00      	ldxdw r6, [r9 + 0x60]
    29b8: 07 09 00 00 58 00 00 00      	add64 r9, 0x58
    29c0: 18 02 00 00 00 00 00 00 00 00 00 00 00 00 f0 3f      	lddw r2, 0x3ff0000000000000
    29d0: 1d 26 36 02 00 00 00 00      	jeq r6, r2, +0x236 <entrypoint+0x3360>
    29d8: 18 02 00 00 00 00 00 00 00 00 00 00 00 00 00 40      	lddw r2, 0x4000000000000000
    29e8: 5d 26 1c 02 00 00 00 00      	jne r6, r2, +0x21c <entrypoint+0x32a8>
    29f0: 67 01 00 00 01 00 00 00      	lsh64 r1, 0x1
    29f8: 79 a3 98 f7 00 00 00 00      	ldxdw r3, [r10 - 0x868]
    2a00: 05 00 4a 02 00 00 00 00      	ja +0x24a <entrypoint+0x3430>
    2a08: bf 12 00 00 00 00 00 00      	mov64 r2, r1
    2a10: 07 02 00 00 dd 00 00 00      	add64 r2, 0xdd
    2a18: 79 14 78 00 00 00 00 00      	ldxdw r4, [r1 + 0x78]
    2a20: 18 05 00 00 00 33 90 72 00 00 00 00 8d 34 11 60      	lddw r5, 0x6011348d72903300
    2a30: 5d 54 2d fe 00 00 00 00      	jne r4, r5, -0x1d3 <entrypoint+0x1378>
    2a38: 79 14 80 00 00 00 00 00      	ldxdw r4, [r1 + 0x80]
    2a40: 18 05 00 00 79 bd c9 11 00 00 00 00 bf ff 00 db      	lddw r5, -0x24ff0040ee364287
    2a50: 5d 54 1a 00 00 00 00 00      	jne r4, r5, +0x1a <entrypoint+0x2300>
    2a58: 79 14 88 00 00 00 00 00      	ldxdw r4, [r1 + 0x88]
    2a60: 18 05 00 00 d4 4d 2e cd 00 00 00 00 cc f7 9c a6      	lddw r5, -0x5963083332d1b22c
    2a70: 5d 54 16 00 00 00 00 00      	jne r4, r5, +0x16 <entrypoint+0x2300>
    2a78: 79 14 90 00 00 00 00 00      	ldxdw r4, [r1 + 0x90]
    2a80: 18 05 00 00 e1 00 38 e1 00 00 00 00 00 00 00 00      	lddw r5, 0xe13800e1
    2a90: 5d 54 12 00 00 00 00 00      	jne r4, r5, +0x12 <entrypoint+0x2300>
    2a98: 79 32 08 00 00 00 00 00      	ldxdw r2, [r3 + 0x8]
    2aa0: 18 04 00 00 00 33 90 72 00 00 00 00 8d 34 11 60      	lddw r4, 0x6011348d72903300
    2ab0: 5d 42 92 0f 00 00 00 00      	jne r2, r4, +0xf92 <entrypoint+0x9f20>
    2ab8: 79 32 10 00 00 00 00 00      	ldxdw r2, [r3 + 0x10]
    2ac0: 18 04 00 00 79 bd c9 11 00 00 00 00 bf ff 00 db      	lddw r4, -0x24ff0040ee364287
    2ad0: 5d 42 8e 0f 00 00 00 00      	jne r2, r4, +0xf8e <entrypoint+0x9f20>
    2ad8: b7 06 00 00 03 00 00 00      	mov64 r6, 0x3
    2ae0: 79 32 18 00 00 00 00 00      	ldxdw r2, [r3 + 0x18]
    2ae8: 18 04 00 00 d4 4d 2e cd 00 00 00 00 cc f7 9c a6      	lddw r4, -0x5963083332d1b22c
    2af8: 5d 42 a0 0e 00 00 00 00      	jne r2, r4, +0xea0 <entrypoint+0x97d8>
    2b00: 79 32 20 00 00 00 00 00      	ldxdw r2, [r3 + 0x20]
    2b08: 18 04 00 00 e1 00 38 e1 00 00 00 00 00 00 00 00      	lddw r4, 0xe13800e1
    2b18: 1d 42 99 02 00 00 00 00      	jeq r2, r4, +0x299 <entrypoint+0x37c0>
    2b20: 05 00 8e 09 00 00 00 00      	ja +0x98e <entrypoint+0x6f70>
    2b28: 79 25 00 00 00 00 00 00      	ldxdw r5, [r2 + 0x0]
    2b30: 79 a4 e0 f7 00 00 00 00      	ldxdw r4, [r10 - 0x820]
    2b38: 79 44 10 00 00 00 00 00      	ldxdw r4, [r4 + 0x10]
    2b40: 79 40 08 00 00 00 00 00      	ldxdw r0, [r4 + 0x8]
    2b48: 5d 05 59 0f 00 00 00 00      	jne r5, r0, +0xf59 <entrypoint+0x9df0>
    2b50: 79 45 10 00 00 00 00 00      	ldxdw r5, [r4 + 0x10]
    2b58: 79 20 08 00 00 00 00 00      	ldxdw r0, [r2 + 0x8]
    2b60: 5d 50 56 0f 00 00 00 00      	jne r0, r5, +0xf56 <entrypoint+0x9df0>
    2b68: 79 45 18 00 00 00 00 00      	ldxdw r5, [r4 + 0x18]
    2b70: 79 20 10 00 00 00 00 00      	ldxdw r0, [r2 + 0x10]
    2b78: 5d 50 53 0f 00 00 00 00      	jne r0, r5, +0xf53 <entrypoint+0x9df0>
    2b80: 79 45 20 00 00 00 00 00      	ldxdw r5, [r4 + 0x20]
    2b88: 79 22 18 00 00 00 00 00      	ldxdw r2, [r2 + 0x18]
    2b90: 5d 52 50 0f 00 00 00 00      	jne r2, r5, +0xf50 <entrypoint+0x9df0>
    2b98: 79 42 50 00 00 00 00 00      	ldxdw r2, [r4 + 0x50]
    2ba0: 55 02 86 02 63 01 00 00      	jne r2, 0x163, +0x286 <entrypoint+0x37b0>
    2ba8: 79 42 28 00 00 00 00 00      	ldxdw r2, [r4 + 0x28]
    2bb0: 18 05 00 00 06 dd f6 e1 00 00 00 00 ee 75 8f de      	lddw r5, -0x21708a111e0922fa
    2bc0: 1d 52 76 02 00 00 00 00      	jeq r2, r5, +0x276 <entrypoint+0x3750>
    2bc8: 18 05 00 00 06 dd f6 e1 00 00 00 00 d7 65 a1 93      	lddw r5, -0x6c5e9a281e0922fa
    2bd8: 5d 52 7f 02 00 00 00 00      	jne r2, r5, +0x27f <entrypoint+0x37b0>
    2be0: 79 42 30 00 00 00 00 00      	ldxdw r2, [r4 + 0x30]
    2be8: 18 05 00 00 d9 cb e1 46 00 00 00 00 ce eb 79 ac      	lddw r5, -0x53861431b91e3427
    2bf8: 5d 52 7b 02 00 00 00 00      	jne r2, r5, +0x27b <entrypoint+0x37b0>
    2c00: 79 42 38 00 00 00 00 00      	ldxdw r2, [r4 + 0x38]
    2c08: 18 05 00 00 1c b4 85 ed 00 00 00 00 5f 5b 37 91      	lddw r5, -0x6ec8a4a0127a4be4
    2c18: 5d 52 77 02 00 00 00 00      	jne r2, r5, +0x277 <entrypoint+0x37b0>
    2c20: 79 42 40 00 00 00 00 00      	ldxdw r2, [r4 + 0x40]
    2c28: 18 05 00 00 3a 8c f5 85 00 00 00 00 7e ff 00 a9      	lddw r5, -0x56ff00817a0a73c6
    2c38: 5d 52 73 02 00 00 00 00      	jne r2, r5, +0x273 <entrypoint+0x37b0>
    2c40: 05 00 26 04 00 00 00 00      	ja +0x426 <entrypoint+0x4550>
    2c48: 18 01 00 00 00 00 00 00 00 00 00 00 ff ff ff ff      	lddw r1, -0x100000000
    2c58: 79 a9 70 f7 00 00 00 00      	ldxdw r9, [r10 - 0x890]
    2c60: 5f 19 00 00 00 00 00 00      	and64 r9, r1
    2c68: b7 00 00 00 03 00 00 00      	mov64 r0, 0x3
    2c70: 7b 9a 70 f7 00 00 00 00      	stxdw [r10 - 0x890], r9
    2c78: 05 00 f0 02 00 00 00 00      	ja +0x2f0 <entrypoint+0x3bd8>
    2c80: 7b 5a b0 f7 00 00 00 00      	stxdw [r10 - 0x850], r5
    2c88: 85 10 00 00 ed 2a 00 00      	call 0x2aed
    2c90: bf 61 00 00 00 00 00 00      	mov64 r1, r6
    2c98: bf 02 00 00 00 00 00 00      	mov64 r2, r0
    2ca0: 85 10 00 00 4a 2b 00 00      	call 0x2b4a
    2ca8: bf 06 00 00 00 00 00 00      	mov64 r6, r0
    2cb0: b7 01 00 00 00 00 00 00      	mov64 r1, 0x0
    2cb8: 7b 1a 48 f7 00 00 00 00      	stxdw [r10 - 0x8b8], r1
    2cc0: bf 61 00 00 00 00 00 00      	mov64 r1, r6
    2cc8: b7 02 00 00 00 00 00 00      	mov64 r2, 0x0
    2cd0: 85 10 00 00 24 2b 00 00      	call 0x2b24
    2cd8: 7b 0a 38 f7 00 00 00 00      	stxdw [r10 - 0x8c8], r0
    2ce0: bf 61 00 00 00 00 00 00      	mov64 r1, r6
    2ce8: 85 10 00 00 3e 2c 00 00      	call 0x2c3e
    2cf0: 79 a1 38 f7 00 00 00 00      	ldxdw r1, [r10 - 0x8c8]
    2cf8: c5 01 01 00 00 00 00 00      	jslt r1, 0x0, +0x1 <entrypoint+0x24e0>
    2d00: 7b 0a 48 f7 00 00 00 00      	stxdw [r10 - 0x8b8], r0
    2d08: bf 61 00 00 00 00 00 00      	mov64 r1, r6
    2d10: 18 02 00 00 ff ff ff ff 00 00 00 00 ff ff ef 43      	lddw r2, 0x43efffffffffffff
    2d20: 85 10 00 00 79 2c 00 00      	call 0x2c79
    2d28: b7 01 00 00 ff ff ff ff      	mov64 r1, -0x1
    2d30: 65 00 01 00 00 00 00 00      	jsgt r0, 0x0, +0x1 <entrypoint+0x2518>
    2d38: 79 a1 48 f7 00 00 00 00      	ldxdw r1, [r10 - 0x8b8]
    2d40: 79 a5 b0 f7 00 00 00 00      	ldxdw r5, [r10 - 0x850]
    2d48: 79 a2 e0 f7 00 00 00 00      	ldxdw r2, [r10 - 0x820]
    2d50: 79 22 08 00 00 00 00 00      	ldxdw r2, [r2 + 0x8]
    2d58: 79 23 08 00 00 00 00 00      	ldxdw r3, [r2 + 0x8]
    2d60: 18 04 00 00 06 9b 88 57 00 00 00 00 fe ab 81 84      	lddw r4, -0x7b7e5401a87764fa
    2d70: 5d 43 0d 00 00 00 00 00      	jne r3, r4, +0xd <entrypoint+0x25b8>
    2d78: 79 23 10 00 00 00 00 00      	ldxdw r3, [r2 + 0x10]
    2d80: 18 04 00 00 fb 68 7f 63 00 00 00 00 46 18 c0 35      	lddw r4, 0x35c01846637f68fb
    2d90: 5d 43 09 00 00 00 00 00      	jne r3, r4, +0x9 <entrypoint+0x25b8>
    2d98: 79 23 18 00 00 00 00 00      	ldxdw r3, [r2 + 0x18]
    2da0: 18 04 00 00 da c4 39 dc 00 00 00 00 1a eb 3b 55      	lddw r4, 0x553beb1adc39c4da
    2db0: 5d 43 05 00 00 00 00 00      	jne r3, r4, +0x5 <entrypoint+0x25b8>
    2db8: b7 00 00 00 01 00 00 00      	mov64 r0, 0x1
    2dc0: 79 23 20 00 00 00 00 00      	ldxdw r3, [r2 + 0x20]
    2dc8: 18 04 00 00 98 a0 f0 00 00 00 00 00 00 00 00 01      	lddw r4, 0x100000000f0a098
    2dd8: 1d 43 01 00 00 00 00 00      	jeq r3, r4, +0x1 <entrypoint+0x25c0>
    2de0: b7 00 00 00 00 00 00 00      	mov64 r0, 0x0
    2de8: b7 06 00 00 03 00 00 00      	mov64 r6, 0x3
    2df0: 55 05 94 10 a5 00 00 00      	jne r5, 0xa5, +0x1094 <entrypoint+0xaa70>
    2df8: 71 93 c4 00 00 00 00 00      	ldxb r3, [r9 + 0xc4]
    2e00: 25 03 32 09 02 00 00 00      	jgt r3, 0x2, +0x932 <entrypoint+0x6f70>
    2e08: 55 03 2e 09 00 00 00 00      	jne r3, 0x0, +0x92e <entrypoint+0x6f58>
    2e10: 79 95 48 00 00 00 00 00      	ldxdw r5, [r9 + 0x48]
    2e18: ad 15 b2 0e 00 00 00 00      	jlt r5, r1, +0xeb2 <entrypoint+0x9b88>
    2e20: 07 07 00 00 08 00 00 00      	add64 r7, 0x8
    2e28: 07 08 00 00 58 00 00 00      	add64 r8, 0x58
    2e30: bf 24 00 00 00 00 00 00      	mov64 r4, r2
    2e38: 07 04 00 00 08 00 00 00      	add64 r4, 0x8
    2e40: bf 93 00 00 00 00 00 00      	mov64 r3, r9
    2e48: 07 03 00 00 58 00 00 00      	add64 r3, 0x58
    2e50: 15 00 17 00 00 00 00 00      	jeq r0, 0x0, +0x17 <entrypoint+0x26e8>
    2e58: 72 09 c4 00 01 00 00 00      	stb [r9 + 0xc4], 0x1
    2e60: 79 42 00 00 00 00 00 00      	ldxdw r2, [r4 + 0x0]
    2e68: 79 40 08 00 00 00 00 00      	ldxdw r0, [r4 + 0x8]
    2e70: 79 46 10 00 00 00 00 00      	ldxdw r6, [r4 + 0x10]
    2e78: 79 44 18 00 00 00 00 00      	ldxdw r4, [r4 + 0x18]
    2e80: 7b 43 18 00 00 00 00 00      	stxdw [r3 + 0x18], r4
    2e88: 7b 63 10 00 00 00 00 00      	stxdw [r3 + 0x10], r6
    2e90: 7b 03 08 00 00 00 00 00      	stxdw [r3 + 0x8], r0
    2e98: 7b 23 00 00 00 00 00 00      	stxdw [r3 + 0x0], r2
    2ea0: 79 72 00 00 00 00 00 00      	ldxdw r2, [r7 + 0x0]
    2ea8: 79 73 08 00 00 00 00 00      	ldxdw r3, [r7 + 0x8]
    2eb0: 79 74 10 00 00 00 00 00      	ldxdw r4, [r7 + 0x10]
    2eb8: 79 70 18 00 00 00 00 00      	ldxdw r0, [r7 + 0x18]
    2ec0: 7b 09 90 00 00 00 00 00      	stxdw [r9 + 0x90], r0
    2ec8: 7b 49 88 00 00 00 00 00      	stxdw [r9 + 0x88], r4
    2ed0: 7b 39 80 00 00 00 00 00      	stxdw [r9 + 0x80], r3
    2ed8: 7b 29 78 00 00 00 00 00      	stxdw [r9 + 0x78], r2
    2ee0: 7b 19 c9 00 00 00 00 00      	stxdw [r9 + 0xc9], r1
    2ee8: 1f 15 00 00 00 00 00 00      	sub64 r5, r1
    2ef0: 7b 59 98 00 00 00 00 00      	stxdw [r9 + 0x98], r5
    2ef8: 72 09 c5 00 01 00 00 00      	stb [r9 + 0xc5], 0x1
    2f00: 7b 8a 48 f7 00 00 00 00      	stxdw [r10 - 0x8b8], r8
    2f08: 05 00 a3 02 00 00 00 00      	ja +0x2a3 <entrypoint+0x3c00>
    2f10: b7 06 00 00 06 00 00 00      	mov64 r6, 0x6
    2f18: 79 21 28 00 00 00 00 00      	ldxdw r1, [r2 + 0x28]
    2f20: 18 05 00 00 06 dd f6 e1 00 00 00 00 d7 65 a1 93      	lddw r5, -0x6c5e9a281e0922fa
    2f30: 5d 51 19 0e 00 00 00 00      	jne r1, r5, +0xe19 <entrypoint+0x97d8>
    2f38: 79 21 30 00 00 00 00 00      	ldxdw r1, [r2 + 0x30]
    2f40: 18 05 00 00 d9 cb e1 46 00 00 00 00 ce eb 79 ac      	lddw r5, -0x53861431b91e3427
    2f50: 5d 51 15 0e 00 00 00 00      	jne r1, r5, +0xe15 <entrypoint+0x97d8>
    2f58: 79 21 38 00 00 00 00 00      	ldxdw r1, [r2 + 0x38]
    2f60: 18 05 00 00 1c b4 85 ed 00 00 00 00 5f 5b 37 91      	lddw r5, -0x6ec8a4a0127a4be4
    2f70: 5d 51 11 0e 00 00 00 00      	jne r1, r5, +0xe11 <entrypoint+0x97d8>
    2f78: 79 21 40 00 00 00 00 00      	ldxdw r1, [r2 + 0x40]
    2f80: 18 05 00 00 3a 8c f5 85 00 00 00 00 7e ff 00 a9      	lddw r5, -0x56ff00817a0a73c6
    2f90: 5d 51 00 09 00 00 00 00      	jne r1, r5, +0x900 <entrypoint+0x6f70>
    2f98: b7 01 00 00 02 00 00 00      	mov64 r1, 0x2
    2fa0: 7b 1a b0 f7 00 00 00 00      	stxdw [r10 - 0x850], r1
    2fa8: 79 21 50 00 00 00 00 00      	ldxdw r1, [r2 + 0x50]
    2fb0: 55 01 7b 0e 52 00 00 00      	jne r1, 0x52, +0xe7b <entrypoint+0x9b68>
    2fb8: 71 21 85 00 00 00 00 00      	ldxb r1, [r2 + 0x85]
    2fc0: b7 06 00 00 00 00 00 00      	mov64 r6, 0x0
    2fc8: 55 01 f9 08 01 00 00 00      	jne r1, 0x1, +0x8f9 <entrypoint+0x6f70>
    2fd0: 72 09 c4 00 01 00 00 00      	stb [r9 + 0xc4], 0x1
    2fd8: 79 41 00 00 00 00 00 00      	ldxdw r1, [r4 + 0x0]
    2fe0: 79 42 08 00 00 00 00 00      	ldxdw r2, [r4 + 0x8]
    2fe8: 79 45 10 00 00 00 00 00      	ldxdw r5, [r4 + 0x10]
    2ff0: 79 44 18 00 00 00 00 00      	ldxdw r4, [r4 + 0x18]
    2ff8: 7b 43 18 00 00 00 00 00      	stxdw [r3 + 0x18], r4
    3000: 7b 53 10 00 00 00 00 00      	stxdw [r3 + 0x10], r5
    3008: 7b 23 08 00 00 00 00 00      	stxdw [r3 + 0x8], r2
    3010: 7b 13 00 00 00 00 00 00      	stxdw [r3 + 0x0], r1
    3018: 79 71 00 00 00 00 00 00      	ldxdw r1, [r7 + 0x0]
    3020: 79 72 08 00 00 00 00 00      	ldxdw r2, [r7 + 0x8]
    3028: 79 73 10 00 00 00 00 00      	ldxdw r3, [r7 + 0x10]
    3030: 79 74 18 00 00 00 00 00      	ldxdw r4, [r7 + 0x18]
    3038: 7b 49 90 00 00 00 00 00      	stxdw [r9 + 0x90], r4
    3040: 7b 39 88 00 00 00 00 00      	stxdw [r9 + 0x88], r3
    3048: 7b 29 80 00 00 00 00 00      	stxdw [r9 + 0x80], r2
    3050: 7b 19 78 00 00 00 00 00      	stxdw [r9 + 0x78], r1
    3058: 7b 8a 48 f7 00 00 00 00      	stxdw [r10 - 0x8b8], r8
    3060: 05 00 78 02 00 00 00 00      	ja +0x278 <entrypoint+0x3c00>
    3068: 85 10 00 00 71 2a 00 00      	call 0x2a71
    3070: bf 61 00 00 00 00 00 00      	mov64 r1, r6
    3078: bf 02 00 00 00 00 00 00      	mov64 r2, r0
    3080: 85 10 00 00 ce 2a 00 00      	call 0x2ace
    3088: bf 06 00 00 00 00 00 00      	mov64 r6, r0
    3090: b7 07 00 00 00 00 00 00      	mov64 r7, 0x0
    3098: bf 61 00 00 00 00 00 00      	mov64 r1, r6
    30a0: b7 02 00 00 00 00 00 00      	mov64 r2, 0x0
    30a8: 85 10 00 00 a9 2a 00 00      	call 0x2aa9
    30b0: 7b 0a b0 f7 00 00 00 00      	stxdw [r10 - 0x850], r0
    30b8: bf 61 00 00 00 00 00 00      	mov64 r1, r6
    30c0: 85 10 00 00 c3 2b 00 00      	call 0x2bc3
    30c8: 79 a1 b0 f7 00 00 00 00      	ldxdw r1, [r10 - 0x850]
    30d0: c5 01 01 00 00 00 00 00      	jslt r1, 0x0, +0x1 <entrypoint+0x28b8>
    30d8: bf 07 00 00 00 00 00 00      	mov64 r7, r0
    30e0: bf 61 00 00 00 00 00 00      	mov64 r1, r6
    30e8: 18 02 00 00 ff ff ff ff 00 00 00 00 ff ff ef 43      	lddw r2, 0x43efffffffffffff
    30f8: 85 10 00 00 fe 2b 00 00      	call 0x2bfe
    3100: b7 01 00 00 ff ff ff ff      	mov64 r1, -0x1
    3108: 65 00 01 00 00 00 00 00      	jsgt r0, 0x0, +0x1 <entrypoint+0x28f0>
    3110: bf 71 00 00 00 00 00 00      	mov64 r1, r7
    3118: 79 a2 e0 f7 00 00 00 00      	ldxdw r2, [r10 - 0x820]
    3120: 79 22 08 00 00 00 00 00      	ldxdw r2, [r2 + 0x8]
    3128: 79 23 08 00 00 00 00 00      	ldxdw r3, [r2 + 0x8]
    3130: 18 04 00 00 06 9b 88 57 00 00 00 00 fe ab 81 84      	lddw r4, -0x7b7e5401a87764fa
    3140: 5d 43 0d 00 00 00 00 00      	jne r3, r4, +0xd <entrypoint+0x2988>
    3148: 79 23 10 00 00 00 00 00      	ldxdw r3, [r2 + 0x10]
    3150: 18 04 00 00 fb 68 7f 63 00 00 00 00 46 18 c0 35      	lddw r4, 0x35c01846637f68fb
    3160: 5d 43 09 00 00 00 00 00      	jne r3, r4, +0x9 <entrypoint+0x2988>
    3168: 79 23 18 00 00 00 00 00      	ldxdw r3, [r2 + 0x18]
    3170: 18 04 00 00 da c4 39 dc 00 00 00 00 1a eb 3b 55      	lddw r4, 0x553beb1adc39c4da
    3180: 5d 43 05 00 00 00 00 00      	jne r3, r4, +0x5 <entrypoint+0x2988>
    3188: b7 00 00 00 01 00 00 00      	mov64 r0, 0x1
    3190: 79 23 20 00 00 00 00 00      	ldxdw r3, [r2 + 0x20]
    3198: 18 04 00 00 98 a0 f0 00 00 00 00 00 00 00 00 01      	lddw r4, 0x100000000f0a098
    31a8: 1d 43 01 00 00 00 00 00      	jeq r3, r4, +0x1 <entrypoint+0x2990>
    31b0: b7 00 00 00 00 00 00 00      	mov64 r0, 0x0
    31b8: b7 06 00 00 03 00 00 00      	mov64 r6, 0x3
    31c0: 79 93 50 00 00 00 00 00      	ldxdw r3, [r9 + 0x50]
    31c8: 55 03 19 10 a5 00 00 00      	jne r3, 0xa5, +0x1019 <entrypoint+0xaa70>
    31d0: 71 93 c4 00 00 00 00 00      	ldxb r3, [r9 + 0xc4]
    31d8: 25 03 b7 08 02 00 00 00      	jgt r3, 0x2, +0x8b7 <entrypoint+0x6f70>
    31e0: 55 03 b3 08 00 00 00 00      	jne r3, 0x0, +0x8b3 <entrypoint+0x6f58>
    31e8: 79 95 48 00 00 00 00 00      	ldxdw r5, [r9 + 0x48]
    31f0: ad 15 37 0e 00 00 00 00      	jlt r5, r1, +0xe37 <entrypoint+0x9b88>
    31f8: bf 24 00 00 00 00 00 00      	mov64 r4, r2
    3200: 07 04 00 00 08 00 00 00      	add64 r4, 0x8
    3208: bf 93 00 00 00 00 00 00      	mov64 r3, r9
    3210: 07 03 00 00 58 00 00 00      	add64 r3, 0x58
    3218: 15 00 16 00 00 00 00 00      	jeq r0, 0x0, +0x16 <entrypoint+0x2aa8>
    3220: 72 09 c4 00 01 00 00 00      	stb [r9 + 0xc4], 0x1
    3228: 79 42 00 00 00 00 00 00      	ldxdw r2, [r4 + 0x0]
    3230: 79 40 08 00 00 00 00 00      	ldxdw r0, [r4 + 0x8]
    3238: 79 46 10 00 00 00 00 00      	ldxdw r6, [r4 + 0x10]
    3240: 79 44 18 00 00 00 00 00      	ldxdw r4, [r4 + 0x18]
    3248: 7b 43 18 00 00 00 00 00      	stxdw [r3 + 0x18], r4
    3250: 7b 63 10 00 00 00 00 00      	stxdw [r3 + 0x10], r6
    3258: 7b 03 08 00 00 00 00 00      	stxdw [r3 + 0x8], r0
    3260: 7b 23 00 00 00 00 00 00      	stxdw [r3 + 0x0], r2
    3268: 79 82 18 00 00 00 00 00      	ldxdw r2, [r8 + 0x18]
    3270: 7b 29 90 00 00 00 00 00      	stxdw [r9 + 0x90], r2
    3278: 79 82 10 00 00 00 00 00      	ldxdw r2, [r8 + 0x10]
    3280: 7b 29 88 00 00 00 00 00      	stxdw [r9 + 0x88], r2
    3288: 79 82 08 00 00 00 00 00      	ldxdw r2, [r8 + 0x8]
    3290: 7b 29 80 00 00 00 00 00      	stxdw [r9 + 0x80], r2
    3298: 79 82 00 00 00 00 00 00      	ldxdw r2, [r8 + 0x0]
    32a0: 7b 29 78 00 00 00 00 00      	stxdw [r9 + 0x78], r2
    32a8: 7b 19 c9 00 00 00 00 00      	stxdw [r9 + 0xc9], r1
    32b0: 1f 15 00 00 00 00 00 00      	sub64 r5, r1
    32b8: 7b 59 98 00 00 00 00 00      	stxdw [r9 + 0x98], r5
    32c0: 72 09 c5 00 01 00 00 00      	stb [r9 + 0xc5], 0x1
    32c8: 05 00 2b 02 00 00 00 00      	ja +0x22b <entrypoint+0x3c00>
    32d0: b7 06 00 00 06 00 00 00      	mov64 r6, 0x6
    32d8: 79 21 28 00 00 00 00 00      	ldxdw r1, [r2 + 0x28]
    32e0: 18 05 00 00 06 dd f6 e1 00 00 00 00 d7 65 a1 93      	lddw r5, -0x6c5e9a281e0922fa
    32f0: 5d 51 a1 0d 00 00 00 00      	jne r1, r5, +0xda1 <entrypoint+0x97d8>
    32f8: 79 21 30 00 00 00 00 00      	ldxdw r1, [r2 + 0x30]
    3300: 18 05 00 00 d9 cb e1 46 00 00 00 00 ce eb 79 ac      	lddw r5, -0x53861431b91e3427
    3310: 5d 51 9d 0d 00 00 00 00      	jne r1, r5, +0xd9d <entrypoint+0x97d8>
    3318: 79 21 38 00 00 00 00 00      	ldxdw r1, [r2 + 0x38]
    3320: 18 05 00 00 1c b4 85 ed 00 00 00 00 5f 5b 37 91      	lddw r5, -0x6ec8a4a0127a4be4
    3330: 5d 51 99 0d 00 00 00 00      	jne r1, r5, +0xd99 <entrypoint+0x97d8>
    3338: 79 21 40 00 00 00 00 00      	ldxdw r1, [r2 + 0x40]
    3340: 18 05 00 00 3a 8c f5 85 00 00 00 00 7e ff 00 a9      	lddw r5, -0x56ff00817a0a73c6
    3350: 5d 51 88 08 00 00 00 00      	jne r1, r5, +0x888 <entrypoint+0x6f70>
    3358: b7 01 00 00 02 00 00 00      	mov64 r1, 0x2
    3360: 7b 1a b0 f7 00 00 00 00      	stxdw [r10 - 0x850], r1
    3368: 79 21 50 00 00 00 00 00      	ldxdw r1, [r2 + 0x50]
    3370: 55 01 03 0e 52 00 00 00      	jne r1, 0x52, +0xe03 <entrypoint+0x9b68>
    3378: 71 21 85 00 00 00 00 00      	ldxb r1, [r2 + 0x85]
    3380: b7 06 00 00 00 00 00 00      	mov64 r6, 0x0
    3388: 55 01 81 08 01 00 00 00      	jne r1, 0x1, +0x881 <entrypoint+0x6f70>
    3390: 72 09 c4 00 01 00 00 00      	stb [r9 + 0xc4], 0x1
    3398: 79 41 00 00 00 00 00 00      	ldxdw r1, [r4 + 0x0]
    33a0: 79 42 08 00 00 00 00 00      	ldxdw r2, [r4 + 0x8]
    33a8: 79 45 10 00 00 00 00 00      	ldxdw r5, [r4 + 0x10]
    33b0: 79 44 18 00 00 00 00 00      	ldxdw r4, [r4 + 0x18]
    33b8: 7b 43 18 00 00 00 00 00      	stxdw [r3 + 0x18], r4
    33c0: 7b 53 10 00 00 00 00 00      	stxdw [r3 + 0x10], r5
    33c8: 7b 23 08 00 00 00 00 00      	stxdw [r3 + 0x8], r2
    33d0: 7b 13 00 00 00 00 00 00      	stxdw [r3 + 0x0], r1
    33d8: 79 81 18 00 00 00 00 00      	ldxdw r1, [r8 + 0x18]
    33e0: 7b 19 90 00 00 00 00 00      	stxdw [r9 + 0x90], r1
    33e8: 79 81 10 00 00 00 00 00      	ldxdw r1, [r8 + 0x10]
    33f0: 7b 19 88 00 00 00 00 00      	stxdw [r9 + 0x88], r1
    33f8: 79 81 08 00 00 00 00 00      	ldxdw r1, [r8 + 0x8]
    3400: 7b 19 80 00 00 00 00 00      	stxdw [r9 + 0x80], r1
    3408: 79 81 00 00 00 00 00 00      	ldxdw r1, [r8 + 0x0]
    3410: 7b 19 78 00 00 00 00 00      	stxdw [r9 + 0x78], r1
    3418: 05 00 01 02 00 00 00 00      	ja +0x201 <entrypoint+0x3c00>
    3420: 7b 0a 38 f7 00 00 00 00      	stxdw [r10 - 0x8c8], r0
    3428: 7b 4a 50 f7 00 00 00 00      	stxdw [r10 - 0x8b0], r4
    3430: 7b 5a b0 f7 00 00 00 00      	stxdw [r10 - 0x850], r5
    3438: 85 10 00 00 f7 29 00 00      	call 0x29f7
    3440: bf 61 00 00 00 00 00 00      	mov64 r1, r6
    3448: bf 02 00 00 00 00 00 00      	mov64 r2, r0
    3450: 85 10 00 00 54 2a 00 00      	call 0x2a54
    3458: bf 06 00 00 00 00 00 00      	mov64 r6, r0
    3460: b7 01 00 00 00 00 00 00      	mov64 r1, 0x0
    3468: 7b 1a 30 f7 00 00 00 00      	stxdw [r10 - 0x8d0], r1
    3470: bf 61 00 00 00 00 00 00      	mov64 r1, r6
    3478: b7 02 00 00 00 00 00 00      	mov64 r2, 0x0
    3480: 85 10 00 00 2e 2a 00 00      	call 0x2a2e
    3488: 7b 0a 28 f7 00 00 00 00      	stxdw [r10 - 0x8d8], r0
    3490: bf 61 00 00 00 00 00 00      	mov64 r1, r6
    3498: 85 10 00 00 48 2b 00 00      	call 0x2b48
    34a0: 79 a1 28 f7 00 00 00 00      	ldxdw r1, [r10 - 0x8d8]
    34a8: c5 01 01 00 00 00 00 00      	jslt r1, 0x0, +0x1 <entrypoint+0x2c90>
    34b0: 7b 0a 30 f7 00 00 00 00      	stxdw [r10 - 0x8d0], r0
    34b8: bf 61 00 00 00 00 00 00      	mov64 r1, r6
    34c0: 18 02 00 00 ff ff ff ff 00 00 00 00 ff ff ef 43      	lddw r2, 0x43efffffffffffff
    34d0: 85 10 00 00 83 2b 00 00      	call 0x2b83
    34d8: b7 01 00 00 ff ff ff ff      	mov64 r1, -0x1
    34e0: 65 00 01 00 00 00 00 00      	jsgt r0, 0x0, +0x1 <entrypoint+0x2cc8>
    34e8: 79 a1 30 f7 00 00 00 00      	ldxdw r1, [r10 - 0x8d0]
    34f0: 79 a5 b0 f7 00 00 00 00      	ldxdw r5, [r10 - 0x850]
    34f8: 79 a4 50 f7 00 00 00 00      	ldxdw r4, [r10 - 0x8b0]
    3500: 79 a0 38 f7 00 00 00 00      	ldxdw r0, [r10 - 0x8c8]
    3508: b7 06 00 00 03 00 00 00      	mov64 r6, 0x3
    3510: 79 a3 d0 f7 00 00 00 00      	ldxdw r3, [r10 - 0x830]
    3518: 55 04 af 0f 52 00 00 00      	jne r4, 0x52, +0xfaf <entrypoint+0xaa70>
    3520: 71 82 85 00 00 00 00 00      	ldxb r2, [r8 + 0x85]
    3528: 55 02 ce 0d 00 00 00 00      	jne r2, 0x0, +0xdce <entrypoint+0x9b78>
    3530: ad 10 cf 0d 00 00 00 00      	jlt r0, r1, +0xdcf <entrypoint+0x9b88>
    3538: bf 31 00 00 00 00 00 00      	mov64 r1, r3
    3540: 07 01 00 00 04 00 00 00      	add64 r1, 0x4
    3548: 07 07 00 00 58 00 00 00      	add64 r7, 0x58
    3550: 72 08 58 00 01 00 00 00      	stb [r8 + 0x58], 0x1
    3558: 72 08 85 00 01 00 00 00      	stb [r8 + 0x85], 0x1
    3560: 79 12 00 00 00 00 00 00      	ldxdw r2, [r1 + 0x0]
    3568: 7b 28 5c 00 00 00 00 00      	stxdw [r8 + 0x5c], r2
    3570: 79 12 08 00 00 00 00 00      	ldxdw r2, [r1 + 0x8]
    3578: 7b 28 64 00 00 00 00 00      	stxdw [r8 + 0x64], r2
    3580: 79 12 10 00 00 00 00 00      	ldxdw r2, [r1 + 0x10]
    3588: 7b 28 6c 00 00 00 00 00      	stxdw [r8 + 0x6c], r2
    3590: 79 11 18 00 00 00 00 00      	ldxdw r1, [r1 + 0x18]
    3598: 7b 18 74 00 00 00 00 00      	stxdw [r8 + 0x74], r1
    35a0: 73 58 84 00 00 00 00 00      	stxb [r8 + 0x84], r5
    35a8: 15 09 09 00 00 00 00 00      	jeq r9, 0x0, +0x9 <entrypoint+0x2dd0>
    35b0: 72 08 86 00 01 00 00 00      	stb [r8 + 0x86], 0x1
    35b8: 79 91 00 00 00 00 00 00      	ldxdw r1, [r9 + 0x0]
    35c0: 79 92 08 00 00 00 00 00      	ldxdw r2, [r9 + 0x8]
    35c8: 79 93 10 00 00 00 00 00      	ldxdw r3, [r9 + 0x10]
    35d0: 79 94 18 00 00 00 00 00      	ldxdw r4, [r9 + 0x18]
    35d8: 7b 48 a2 00 00 00 00 00      	stxdw [r8 + 0xa2], r4
    35e0: 7b 38 9a 00 00 00 00 00      	stxdw [r8 + 0x9a], r3
    35e8: 7b 28 92 00 00 00 00 00      	stxdw [r8 + 0x92], r2
    35f0: 7b 18 8a 00 00 00 00 00      	stxdw [r8 + 0x8a], r1
    35f8: 7b 7a 50 f7 00 00 00 00      	stxdw [r10 - 0x8b0], r7
    3600: 05 00 c4 01 00 00 00 00      	ja +0x1c4 <entrypoint+0x3c00>
    3608: 85 10 00 00 bd 29 00 00      	call 0x29bd
    3610: bf 61 00 00 00 00 00 00      	mov64 r1, r6
    3618: bf 02 00 00 00 00 00 00      	mov64 r2, r0
    3620: 85 10 00 00 1a 2a 00 00      	call 0x2a1a
    3628: bf 06 00 00 00 00 00 00      	mov64 r6, r0
    3630: b7 01 00 00 00 00 00 00      	mov64 r1, 0x0
    3638: 7b 1a 38 f7 00 00 00 00      	stxdw [r10 - 0x8c8], r1
    3640: bf 61 00 00 00 00 00 00      	mov64 r1, r6
    3648: b7 02 00 00 00 00 00 00      	mov64 r2, 0x0
    3650: 85 10 00 00 f4 29 00 00      	call 0x29f4
    3658: 7b 0a 30 f7 00 00 00 00      	stxdw [r10 - 0x8d0], r0
    3660: bf 61 00 00 00 00 00 00      	mov64 r1, r6
    3668: 85 10 00 00 0e 2b 00 00      	call 0x2b0e
    3670: 79 a1 30 f7 00 00 00 00      	ldxdw r1, [r10 - 0x8d0]
    3678: c5 01 01 00 00 00 00 00      	jslt r1, 0x0, +0x1 <entrypoint+0x2e60>
    3680: 7b 0a 38 f7 00 00 00 00      	stxdw [r10 - 0x8c8], r0
    3688: bf 61 00 00 00 00 00 00      	mov64 r1, r6
    3690: 18 02 00 00 ff ff ff ff 00 00 00 00 ff ff ef 43      	lddw r2, 0x43efffffffffffff
    36a0: 85 10 00 00 49 2b 00 00      	call 0x2b49
    36a8: b7 01 00 00 ff ff ff ff      	mov64 r1, -0x1
    36b0: 65 00 01 00 00 00 00 00      	jsgt r0, 0x0, +0x1 <entrypoint+0x2e98>
    36b8: 79 a1 38 f7 00 00 00 00      	ldxdw r1, [r10 - 0x8c8]
    36c0: 79 a3 d0 f7 00 00 00 00      	ldxdw r3, [r10 - 0x830]
    36c8: b7 06 00 00 03 00 00 00      	mov64 r6, 0x3
    36d0: 79 92 50 00 00 00 00 00      	ldxdw r2, [r9 + 0x50]
    36d8: 55 02 77 0f 52 00 00 00      	jne r2, 0x52, +0xf77 <entrypoint+0xaa70>
    36e0: 71 92 85 00 00 00 00 00      	ldxb r2, [r9 + 0x85]
    36e8: 55 02 96 0d 00 00 00 00      	jne r2, 0x0, +0xd96 <entrypoint+0x9b78>
    36f0: ad 18 97 0d 00 00 00 00      	jlt r8, r1, +0xd97 <entrypoint+0x9b88>
    36f8: bf 31 00 00 00 00 00 00      	mov64 r1, r3
    3700: 07 01 00 00 04 00 00 00      	add64 r1, 0x4
    3708: 72 09 58 00 01 00 00 00      	stb [r9 + 0x58], 0x1
    3710: 72 09 85 00 01 00 00 00      	stb [r9 + 0x85], 0x1
    3718: 79 12 00 00 00 00 00 00      	ldxdw r2, [r1 + 0x0]
    3720: 7b 29 5c 00 00 00 00 00      	stxdw [r9 + 0x5c], r2
    3728: 79 12 08 00 00 00 00 00      	ldxdw r2, [r1 + 0x8]
    3730: 7b 29 64 00 00 00 00 00      	stxdw [r9 + 0x64], r2
    3738: 79 12 10 00 00 00 00 00      	ldxdw r2, [r1 + 0x10]
    3740: 7b 29 6c 00 00 00 00 00      	stxdw [r9 + 0x6c], r2
    3748: 79 11 18 00 00 00 00 00      	ldxdw r1, [r1 + 0x18]
    3750: 7b 19 74 00 00 00 00 00      	stxdw [r9 + 0x74], r1
    3758: 79 a1 b0 f7 00 00 00 00      	ldxdw r1, [r10 - 0x850]
    3760: 73 19 84 00 00 00 00 00      	stxb [r9 + 0x84], r1
    3768: 15 07 97 01 00 00 00 00      	jeq r7, 0x0, +0x197 <entrypoint+0x3c00>
    3770: 72 09 86 00 01 00 00 00      	stb [r9 + 0x86], 0x1
    3778: 79 71 00 00 00 00 00 00      	ldxdw r1, [r7 + 0x0]
    3780: 79 72 08 00 00 00 00 00      	ldxdw r2, [r7 + 0x8]
    3788: 79 73 10 00 00 00 00 00      	ldxdw r3, [r7 + 0x10]
    3790: 79 74 18 00 00 00 00 00      	ldxdw r4, [r7 + 0x18]
    3798: 7b 49 a2 00 00 00 00 00      	stxdw [r9 + 0xa2], r4
    37a0: 7b 39 9a 00 00 00 00 00      	stxdw [r9 + 0x9a], r3
    37a8: 7b 29 92 00 00 00 00 00      	stxdw [r9 + 0x92], r2
    37b0: 7b 19 8a 00 00 00 00 00      	stxdw [r9 + 0x8a], r1
    37b8: 05 00 8d 01 00 00 00 00      	ja +0x18d <entrypoint+0x3c00>
    37c0: 79 30 80 00 00 00 00 00      	ldxdw r0, [r3 + 0x80]
    37c8: 18 06 00 00 79 bd c9 11 00 00 00 00 bf ff 00 db      	lddw r6, -0x24ff0040ee364287
    37d8: 5d 60 08 00 00 00 00 00      	jne r0, r6, +0x8 <entrypoint+0x2ff8>
    37e0: 79 30 88 00 00 00 00 00      	ldxdw r0, [r3 + 0x88]
    37e8: 18 06 00 00 d4 4d 2e cd 00 00 00 00 cc f7 9c a6      	lddw r6, -0x5963083332d1b22c
    37f8: 5d 60 04 00 00 00 00 00      	jne r0, r6, +0x4 <entrypoint+0x2ff8>
    3800: 79 30 90 00 00 00 00 00      	ldxdw r0, [r3 + 0x90]
    3808: 18 06 00 00 e1 00 38 e1 00 00 00 00 00 00 00 00      	lddw r6, 0xe13800e1
    3818: 1d 60 c1 00 00 00 00 00      	jeq r0, r6, +0xc1 <entrypoint+0x3600>
    3820: 79 a0 e0 f7 00 00 00 00      	ldxdw r0, [r10 - 0x820]
    3828: bf 06 00 00 00 00 00 00      	mov64 r6, r0
    3830: 07 06 00 00 18 00 00 00      	add64 r6, 0x18
    3838: 79 00 10 00 00 00 00 00      	ldxdw r0, [r0 + 0x10]
    3840: 71 37 a0 00 00 00 00 00      	ldxb r7, [r3 + 0xa0]
    3848: 55 07 26 00 01 00 00 00      	jne r7, 0x1, +0x26 <entrypoint+0x3158>
    3850: 79 07 08 00 00 00 00 00      	ldxdw r7, [r0 + 0x8]
    3858: 79 38 a4 00 00 00 00 00      	ldxdw r8, [r3 + 0xa4]
    3860: 5d 87 24 00 00 00 00 00      	jne r7, r8, +0x24 <entrypoint+0x3160>
    3868: 7b 6a 88 f7 00 00 00 00      	stxdw [r10 - 0x878], r6
    3870: b7 06 00 00 01 00 00 00      	mov64 r6, 0x1
    3878: 7b 6a b0 f7 00 00 00 00      	stxdw [r10 - 0x850], r6
    3880: 79 38 ac 00 00 00 00 00      	ldxdw r8, [r3 + 0xac]
    3888: 79 09 10 00 00 00 00 00      	ldxdw r9, [r0 + 0x10]
    3890: 5d 89 44 00 00 00 00 00      	jne r9, r8, +0x44 <entrypoint+0x3290>
    3898: 79 38 b4 00 00 00 00 00      	ldxdw r8, [r3 + 0xb4]
    38a0: 79 09 18 00 00 00 00 00      	ldxdw r9, [r0 + 0x18]
    38a8: 5d 89 41 00 00 00 00 00      	jne r9, r8, +0x41 <entrypoint+0x3290>
    38b0: 79 38 bc 00 00 00 00 00      	ldxdw r8, [r3 + 0xbc]
    38b8: 79 09 20 00 00 00 00 00      	ldxdw r9, [r0 + 0x20]
    38c0: 79 a6 88 f7 00 00 00 00      	ldxdw r6, [r10 - 0x878]
    38c8: 5d 89 17 00 00 00 00 00      	jne r9, r8, +0x17 <entrypoint+0x3160>
    38d0: 79 01 50 00 00 00 00 00      	ldxdw r1, [r0 + 0x50]
    38d8: 55 01 86 01 63 01 00 00      	jne r1, 0x163, +0x186 <entrypoint+0x3ce8>
    38e0: 79 01 28 00 00 00 00 00      	ldxdw r1, [r0 + 0x28]
    38e8: 18 07 00 00 06 dd f6 e1 00 00 00 00 ee 75 8f de      	lddw r7, -0x21708a111e0922fa
    38f8: 1d 71 76 01 00 00 00 00      	jeq r1, r7, +0x176 <entrypoint+0x3c88>
    3900: 18 07 00 00 06 dd f6 e1 00 00 00 00 d7 65 a1 93      	lddw r7, -0x6c5e9a281e0922fa
    3910: 5d 71 7f 01 00 00 00 00      	jne r1, r7, +0x17f <entrypoint+0x3ce8>
    3918: 79 01 30 00 00 00 00 00      	ldxdw r1, [r0 + 0x30]
    3920: 18 07 00 00 d9 cb e1 46 00 00 00 00 ce eb 79 ac      	lddw r7, -0x53861431b91e3427
    3930: 5d 71 7b 01 00 00 00 00      	jne r1, r7, +0x17b <entrypoint+0x3ce8>
    3938: 79 01 38 00 00 00 00 00      	ldxdw r1, [r0 + 0x38]
    3940: 18 07 00 00 1c b4 85 ed 00 00 00 00 5f 5b 37 91      	lddw r7, -0x6ec8a4a0127a4be4
    3950: 5d 71 77 01 00 00 00 00      	jne r1, r7, +0x177 <entrypoint+0x3ce8>
    3958: 79 01 40 00 00 00 00 00      	ldxdw r1, [r0 + 0x40]
    3960: 18 07 00 00 3a 8c f5 85 00 00 00 00 7e ff 00 a9      	lddw r7, -0x56ff00817a0a73c6
    3970: 5d 71 73 01 00 00 00 00      	jne r1, r7, +0x173 <entrypoint+0x3ce8>
    3978: 05 00 8e 04 00 00 00 00      	ja +0x48e <entrypoint+0x55c8>
    3980: 79 07 08 00 00 00 00 00      	ldxdw r7, [r0 + 0x8]
    3988: 5d 71 91 0d 00 00 00 00      	jne r1, r7, +0xd91 <entrypoint+0x9df0>
    3990: 79 01 10 00 00 00 00 00      	ldxdw r1, [r0 + 0x10]
    3998: 79 37 80 00 00 00 00 00      	ldxdw r7, [r3 + 0x80]
    39a0: 5d 17 8e 0d 00 00 00 00      	jne r7, r1, +0xd8e <entrypoint+0x9df0>
    39a8: 79 01 18 00 00 00 00 00      	ldxdw r1, [r0 + 0x18]
    39b0: 79 37 88 00 00 00 00 00      	ldxdw r7, [r3 + 0x88]
    39b8: 5d 17 8b 0d 00 00 00 00      	jne r7, r1, +0xd8b <entrypoint+0x9df0>
    39c0: 79 01 20 00 00 00 00 00      	ldxdw r1, [r0 + 0x20]
    39c8: 79 37 90 00 00 00 00 00      	ldxdw r7, [r3 + 0x90]
    39d0: 5d 17 88 0d 00 00 00 00      	jne r7, r1, +0xd88 <entrypoint+0x9df0>
    39d8: 79 01 50 00 00 00 00 00      	ldxdw r1, [r0 + 0x50]
    39e0: 55 01 86 00 63 01 00 00      	jne r1, 0x163, +0x86 <entrypoint+0x35f0>
    39e8: 79 01 28 00 00 00 00 00      	ldxdw r1, [r0 + 0x28]
    39f0: 18 07 00 00 06 dd f6 e1 00 00 00 00 ee 75 8f de      	lddw r7, -0x21708a111e0922fa
    3a00: 1d 71 76 00 00 00 00 00      	jeq r1, r7, +0x76 <entrypoint+0x3590>
    3a08: 18 07 00 00 06 dd f6 e1 00 00 00 00 d7 65 a1 93      	lddw r7, -0x6c5e9a281e0922fa
    3a18: 5d 71 7f 00 00 00 00 00      	jne r1, r7, +0x7f <entrypoint+0x35f0>
    3a20: 79 01 30 00 00 00 00 00      	ldxdw r1, [r0 + 0x30]
    3a28: 18 07 00 00 d9 cb e1 46 00 00 00 00 ce eb 79 ac      	lddw r7, -0x53861431b91e3427
    3a38: 5d 71 7b 00 00 00 00 00      	jne r1, r7, +0x7b <entrypoint+0x35f0>
    3a40: 79 01 38 00 00 00 00 00      	ldxdw r1, [r0 + 0x38]
    3a48: 18 07 00 00 1c b4 85 ed 00 00 00 00 5f 5b 37 91      	lddw r7, -0x6ec8a4a0127a4be4
    3a58: 5d 71 77 00 00 00 00 00      	jne r1, r7, +0x77 <entrypoint+0x35f0>
    3a60: 79 01 40 00 00 00 00 00      	ldxdw r1, [r0 + 0x40]
    3a68: 18 07 00 00 3a 8c f5 85 00 00 00 00 7e ff 00 a9      	lddw r7, -0x56ff00817a0a73c6
    3a78: 5d 71 73 00 00 00 00 00      	jne r1, r7, +0x73 <entrypoint+0x35f0>
    3a80: 05 00 f1 01 00 00 00 00      	ja +0x1f1 <entrypoint+0x41e8>
    3a88: 18 01 00 00 00 00 00 00 00 00 00 00 ff ff ff ff      	lddw r1, -0x100000000
    3a98: 5f 19 00 00 00 00 00 00      	and64 r9, r1
    3aa0: b7 00 00 00 03 00 00 00      	mov64 r0, 0x3
    3aa8: 7b 9a 68 f7 00 00 00 00      	stxdw [r10 - 0x898], r9
    3ab0: 05 00 29 01 00 00 00 00      	ja +0x129 <entrypoint+0x3bd8>
    3ab8: 79 a6 88 f7 00 00 00 00      	ldxdw r6, [r10 - 0x878]
    3ac0: 1d 71 d9 ff 00 00 00 00      	jeq r1, r7, -0x27 <entrypoint+0x3168>
    3ac8: 05 00 69 0d 00 00 00 00      	ja +0xd69 <entrypoint+0x9df0>
    3ad0: 85 10 00 00 24 29 00 00      	call 0x2924
    3ad8: bf 61 00 00 00 00 00 00      	mov64 r1, r6
    3ae0: bf 02 00 00 00 00 00 00      	mov64 r2, r0
    3ae8: 85 10 00 00 81 29 00 00      	call 0x2981
    3af0: bf 06 00 00 00 00 00 00      	mov64 r6, r0
    3af8: b7 01 00 00 00 00 00 00      	mov64 r1, 0x0
    3b00: 7b 1a b0 f7 00 00 00 00      	stxdw [r10 - 0x850], r1
    3b08: bf 61 00 00 00 00 00 00      	mov64 r1, r6
    3b10: b7 02 00 00 00 00 00 00      	mov64 r2, 0x0
    3b18: 85 10 00 00 5b 29 00 00      	call 0x295b
    3b20: 7b 0a 78 f7 00 00 00 00      	stxdw [r10 - 0x888], r0
    3b28: bf 61 00 00 00 00 00 00      	mov64 r1, r6
    3b30: 85 10 00 00 75 2a 00 00      	call 0x2a75
    3b38: 79 a1 78 f7 00 00 00 00      	ldxdw r1, [r10 - 0x888]
    3b40: c5 01 01 00 00 00 00 00      	jslt r1, 0x0, +0x1 <entrypoint+0x3328>
    3b48: 7b 0a b0 f7 00 00 00 00      	stxdw [r10 - 0x850], r0
    3b50: bf 61 00 00 00 00 00 00      	mov64 r1, r6
    3b58: 18 02 00 00 ff ff ff ff 00 00 00 00 ff ff ef 43      	lddw r2, 0x43efffffffffffff
    3b68: 85 10 00 00 b0 2a 00 00      	call 0x2ab0
    3b70: b7 01 00 00 ff ff ff ff      	mov64 r1, -0x1
    3b78: 65 00 01 00 00 00 00 00      	jsgt r0, 0x0, +0x1 <entrypoint+0x3360>
    3b80: 79 a1 b0 f7 00 00 00 00      	ldxdw r1, [r10 - 0x850]
    3b88: 79 a3 98 f7 00 00 00 00      	ldxdw r3, [r10 - 0x868]
    3b90: 05 00 18 00 00 00 00 00      	ja +0x18 <entrypoint+0x3430>
    3b98: 85 10 00 00 0b 29 00 00      	call 0x290b
    3ba0: bf 61 00 00 00 00 00 00      	mov64 r1, r6
    3ba8: bf 02 00 00 00 00 00 00      	mov64 r2, r0
    3bb0: 85 10 00 00 68 29 00 00      	call 0x2968
    3bb8: bf 06 00 00 00 00 00 00      	mov64 r6, r0
    3bc0: b7 09 00 00 00 00 00 00      	mov64 r9, 0x0
    3bc8: bf 61 00 00 00 00 00 00      	mov64 r1, r6
    3bd0: b7 02 00 00 00 00 00 00      	mov64 r2, 0x0
    3bd8: 85 10 00 00 43 29 00 00      	call 0x2943
    3be0: 7b 0a b0 f7 00 00 00 00      	stxdw [r10 - 0x850], r0
    3be8: bf 61 00 00 00 00 00 00      	mov64 r1, r6
    3bf0: 85 10 00 00 5d 2a 00 00      	call 0x2a5d
    3bf8: 79 a1 b0 f7 00 00 00 00      	ldxdw r1, [r10 - 0x850]
    3c00: c5 01 01 00 00 00 00 00      	jslt r1, 0x0, +0x1 <entrypoint+0x33e8>
    3c08: bf 09 00 00 00 00 00 00      	mov64 r9, r0
    3c10: bf 61 00 00 00 00 00 00      	mov64 r1, r6
    3c18: 18 02 00 00 ff ff ff ff 00 00 00 00 ff ff ef 43      	lddw r2, 0x43efffffffffffff
    3c28: 85 10 00 00 98 2a 00 00      	call 0x2a98
    3c30: b7 01 00 00 ff ff ff ff      	mov64 r1, -0x1
    3c38: 65 00 01 00 00 00 00 00      	jsgt r0, 0x0, +0x1 <entrypoint+0x3420>
    3c40: bf 91 00 00 00 00 00 00      	mov64 r1, r9
    3c48: 79 a3 98 f7 00 00 00 00      	ldxdw r3, [r10 - 0x868]
    3c50: 79 a9 78 f7 00 00 00 00      	ldxdw r9, [r10 - 0x888]
    3c58: 55 07 51 0d a5 00 00 00      	jne r7, 0xa5, +0xd51 <entrypoint+0x9ec0>
    3c60: 71 82 c4 00 00 00 00 00      	ldxb r2, [r8 + 0xc4]
    3c68: 25 02 4f 0d 02 00 00 00      	jgt r2, 0x2, +0xd4f <entrypoint+0x9ec0>
    3c70: 15 02 66 0e 00 00 00 00      	jeq r2, 0x0, +0xe66 <entrypoint+0xa780>
    3c78: 71 82 c5 00 00 00 00 00      	ldxb r2, [r8 + 0xc5]
    3c80: 55 02 5e 0d 01 00 00 00      	jne r2, 0x1, +0xd5e <entrypoint+0x9f50>
    3c88: 79 82 48 00 00 00 00 00      	ldxdw r2, [r8 + 0x48]
    3c90: ad 12 5e 0d 00 00 00 00      	jlt r2, r1, +0xd5e <entrypoint+0x9f60>
    3c98: 7b 9a 78 f7 00 00 00 00      	stxdw [r10 - 0x888], r9
    3ca0: bf 83 00 00 00 00 00 00      	mov64 r3, r8
    3ca8: 07 03 00 00 58 00 00 00      	add64 r3, 0x58
    3cb0: 7b 3a 98 f7 00 00 00 00      	stxdw [r10 - 0x868], r3
    3cb8: 7b 18 c9 00 00 00 00 00      	stxdw [r8 + 0xc9], r1
    3cc0: 1f 12 00 00 00 00 00 00      	sub64 r2, r1
    3cc8: 7b 28 98 00 00 00 00 00      	stxdw [r8 + 0x98], r2
    3cd0: 05 00 ea 00 00 00 00 00      	ja +0xea <entrypoint+0x3c00>
    3cd8: 79 01 30 00 00 00 00 00      	ldxdw r1, [r0 + 0x30]
    3ce0: 18 02 00 00 18 42 5d bc 00 00 00 00 e4 6c cd da      	lddw r2, -0x2532931b43a2bde8
    3cf0: 5d 21 08 00 00 00 00 00      	jne r1, r2, +0x8 <entrypoint+0x3510>
    3cf8: 79 01 38 00 00 00 00 00      	ldxdw r1, [r0 + 0x38]
    3d00: 18 02 00 00 b6 1a fc 4d 00 00 00 00 83 b9 0d 27      	lddw r2, 0x270db9834dfc1ab6
    3d10: 5d 21 04 00 00 00 00 00      	jne r1, r2, +0x4 <entrypoint+0x3510>
    3d18: 79 01 40 00 00 00 00 00      	ldxdw r1, [r0 + 0x40]
    3d20: 18 02 00 00 fe bd f9 28 00 00 00 00 d8 a1 8b fc      	lddw r2, -0x3745e27d7064202
    3d30: 1d 21 69 01 00 00 00 00      	jeq r1, r2, +0x169 <entrypoint+0x4058>
    3d38: 71 01 01 00 00 00 00 00      	ldxb r1, [r0 + 0x1]
    3d40: 15 01 4c 0d 00 00 00 00      	jeq r1, 0x0, +0xd4c <entrypoint+0x9f80>
    3d48: 15 05 76 01 00 00 00 00      	jeq r5, 0x0, +0x176 <entrypoint+0x40d8>
    3d50: 79 40 7c 00 00 00 00 00      	ldxdw r0, [r4 + 0x7c]
    3d58: bf 01 00 00 00 00 00 00      	mov64 r1, r0
    3d60: 0f 51 00 00 00 00 00 00      	add64 r1, r5
    3d68: b7 02 00 00 01 00 00 00      	mov64 r2, 0x1
    3d70: ad 01 01 00 00 00 00 00      	jlt r1, r0, +0x1 <entrypoint+0x3558>
    3d78: b7 02 00 00 00 00 00 00      	mov64 r2, 0x0
    3d80: 57 02 00 00 01 00 00 00      	and64 r2, 0x1
    3d88: 55 02 c8 0d 00 00 00 00      	jne r2, 0x0, +0xdc8 <entrypoint+0xa3a8>
    3d90: 7b 14 7c 00 00 00 00 00      	stxdw [r4 + 0x7c], r1
    3d98: 79 31 98 00 00 00 00 00      	ldxdw r1, [r3 + 0x98]
    3da0: 0f 51 00 00 00 00 00 00      	add64 r1, r5
    3da8: 7b 13 98 00 00 00 00 00      	stxdw [r3 + 0x98], r1
    3db0: 05 00 ce 00 00 00 00 00      	ja +0xce <entrypoint+0x3c00>
    3db8: 79 01 30 00 00 00 00 00      	ldxdw r1, [r0 + 0x30]
    3dc0: 18 07 00 00 18 42 5d bc 00 00 00 00 e4 6c cd da      	lddw r7, -0x2532931b43a2bde8
    3dd0: 5d 71 08 00 00 00 00 00      	jne r1, r7, +0x8 <entrypoint+0x35f0>
    3dd8: 79 01 38 00 00 00 00 00      	ldxdw r1, [r0 + 0x38]
    3de0: 18 07 00 00 b6 1a fc 4d 00 00 00 00 83 b9 0d 27      	lddw r7, 0x270db9834dfc1ab6
    3df0: 5d 71 04 00 00 00 00 00      	jne r1, r7, +0x4 <entrypoint+0x35f0>
    3df8: 79 01 40 00 00 00 00 00      	ldxdw r1, [r0 + 0x40]
    3e00: 18 07 00 00 fe bd f9 28 00 00 00 00 d8 a1 8b fc      	lddw r7, -0x3745e27d7064202
    3e10: 1d 71 7f 01 00 00 00 00      	jeq r1, r7, +0x17f <entrypoint+0x41e8>
    3e18: 71 01 01 00 00 00 00 00      	ldxb r1, [r0 + 0x1]
    3e20: 15 01 30 0d 00 00 00 00      	jeq r1, 0x0, +0xd30 <entrypoint+0x9f80>
    3e28: bf 21 00 00 00 00 00 00      	mov64 r1, r2
    3e30: 07 01 00 00 58 00 00 00      	add64 r1, 0x58
    3e38: 7b 1a 88 f7 00 00 00 00      	stxdw [r10 - 0x878], r1
    3e40: 15 04 20 01 00 00 00 00      	jeq r4, 0x0, +0x120 <entrypoint+0x3f20>
    3e48: 1f 45 00 00 00 00 00 00      	sub64 r5, r4
    3e50: 7b 53 98 00 00 00 00 00      	stxdw [r3 + 0x98], r5
    3e58: 79 21 7c 00 00 00 00 00      	ldxdw r1, [r2 + 0x7c]
    3e60: 1f 41 00 00 00 00 00 00      	sub64 r1, r4
    3e68: 7b 12 7c 00 00 00 00 00      	stxdw [r2 + 0x7c], r1
    3e70: 05 00 b6 00 00 00 00 00      	ja +0xb6 <entrypoint+0x3c00>
    3e78: 79 61 30 00 00 00 00 00      	ldxdw r1, [r6 + 0x30]
    3e80: 18 02 00 00 18 42 5d bc 00 00 00 00 e4 6c cd da      	lddw r2, -0x2532931b43a2bde8
    3e90: 5d 21 08 00 00 00 00 00      	jne r1, r2, +0x8 <entrypoint+0x36b0>
    3e98: 79 61 38 00 00 00 00 00      	ldxdw r1, [r6 + 0x38]
    3ea0: 18 02 00 00 b6 1a fc 4d 00 00 00 00 83 b9 0d 27      	lddw r2, 0x270db9834dfc1ab6
    3eb0: 5d 21 04 00 00 00 00 00      	jne r1, r2, +0x4 <entrypoint+0x36b0>
    3eb8: 79 61 40 00 00 00 00 00      	ldxdw r1, [r6 + 0x40]
    3ec0: 18 02 00 00 fe bd f9 28 00 00 00 00 d8 a1 8b fc      	lddw r2, -0x3745e27d7064202
    3ed0: 1d 21 c4 01 00 00 00 00      	jeq r1, r2, +0x1c4 <entrypoint+0x44d0>
    3ed8: 71 61 01 00 00 00 00 00      	ldxb r1, [r6 + 0x1]
    3ee0: 15 01 18 0d 00 00 00 00      	jeq r1, 0x0, +0xd18 <entrypoint+0x9f80>
    3ee8: 15 05 e5 00 00 00 00 00      	jeq r5, 0x0, +0xe5 <entrypoint+0x3df0>
    3ef0: 1d 34 e4 00 00 00 00 00      	jeq r4, r3, +0xe4 <entrypoint+0x3df0>
    3ef8: 1f 50 00 00 00 00 00 00      	sub64 r0, r5
    3f00: 7b 04 98 00 00 00 00 00      	stxdw [r4 + 0x98], r0
    3f08: 79 31 50 00 00 00 00 00      	ldxdw r1, [r3 + 0x50]
    3f10: 55 01 6f 0e a5 00 00 00      	jne r1, 0xa5, +0xe6f <entrypoint+0xaa68>
    3f18: 79 31 98 00 00 00 00 00      	ldxdw r1, [r3 + 0x98]
    3f20: 0f 51 00 00 00 00 00 00      	add64 r1, r5
    3f28: 7b 13 98 00 00 00 00 00      	stxdw [r3 + 0x98], r1
    3f30: 71 41 c5 00 00 00 00 00      	ldxb r1, [r4 + 0xc5]
    3f38: 55 01 9d 00 01 00 00 00      	jne r1, 0x1, +0x9d <entrypoint+0x3c00>
    3f40: 79 41 48 00 00 00 00 00      	ldxdw r1, [r4 + 0x48]
    3f48: 1f 51 00 00 00 00 00 00      	sub64 r1, r5
    3f50: 7b 14 48 00 00 00 00 00      	stxdw [r4 + 0x48], r1
    3f58: 79 31 48 00 00 00 00 00      	ldxdw r1, [r3 + 0x48]
    3f60: 0f 51 00 00 00 00 00 00      	add64 r1, r5
    3f68: 7b 13 48 00 00 00 00 00      	stxdw [r3 + 0x48], r1
    3f70: 05 00 96 00 00 00 00 00      	ja +0x96 <entrypoint+0x3c00>
    3f78: 79 42 30 00 00 00 00 00      	ldxdw r2, [r4 + 0x30]
    3f80: 18 05 00 00 18 42 5d bc 00 00 00 00 e4 6c cd da      	lddw r5, -0x2532931b43a2bde8
    3f90: 5d 52 08 00 00 00 00 00      	jne r2, r5, +0x8 <entrypoint+0x37b0>
    3f98: 79 42 38 00 00 00 00 00      	ldxdw r2, [r4 + 0x38]
    3fa0: 18 05 00 00 b6 1a fc 4d 00 00 00 00 83 b9 0d 27      	lddw r5, 0x270db9834dfc1ab6
    3fb0: 5d 52 04 00 00 00 00 00      	jne r2, r5, +0x4 <entrypoint+0x37b0>
    3fb8: 79 42 40 00 00 00 00 00      	ldxdw r2, [r4 + 0x40]
    3fc0: 18 05 00 00 fe bd f9 28 00 00 00 00 d8 a1 8b fc      	lddw r5, -0x3745e27d7064202
    3fd0: 1d 52 b4 01 00 00 00 00      	jeq r2, r5, +0x1b4 <entrypoint+0x4550>
    3fd8: 71 42 01 00 00 00 00 00      	ldxb r2, [r4 + 0x1]
    3fe0: 15 02 f8 0c 00 00 00 00      	jeq r2, 0x0, +0xcf8 <entrypoint+0x9f80>
    3fe8: bf 12 00 00 00 00 00 00      	mov64 r2, r1
    3ff0: 07 02 00 00 58 00 00 00      	add64 r2, 0x58
    3ff8: 7b 2a a0 f7 00 00 00 00      	stxdw [r10 - 0x860], r2
    4000: 79 12 48 00 00 00 00 00      	ldxdw r2, [r1 + 0x48]
    4008: 79 34 48 00 00 00 00 00      	ldxdw r4, [r3 + 0x48]
    4010: 0f 24 00 00 00 00 00 00      	add64 r4, r2
    4018: 7b 43 48 00 00 00 00 00      	stxdw [r3 + 0x48], r4
    4020: 07 01 00 00 28 00 00 00      	add64 r1, 0x28
    4028: b7 02 00 00 00 00 00 00      	mov64 r2, 0x0
    4030: b7 03 00 00 30 00 00 00      	mov64 r3, 0x30
    4038: 85 10 00 00 ff ff ff ff      	call -0x1
    4040: 05 00 7c 00 00 00 00 00      	ja +0x7c <entrypoint+0x3c00>
    4048: 18 01 00 00 00 00 00 00 00 00 00 00 ff ff ff ff      	lddw r1, -0x100000000
    4058: 79 a9 20 f7 00 00 00 00      	ldxdw r9, [r10 - 0x8e0]
    4060: 5f 19 00 00 00 00 00 00      	and64 r9, r1
    4068: b7 00 00 00 03 00 00 00      	mov64 r0, 0x3
    4070: 7b 9a 20 f7 00 00 00 00      	stxdw [r10 - 0x8e0], r9
    4078: 05 00 70 00 00 00 00 00      	ja +0x70 <entrypoint+0x3bd8>
    4080: b7 00 00 00 09 00 00 00      	mov64 r0, 0x9
    4088: 79 a9 20 f7 00 00 00 00      	ldxdw r9, [r10 - 0x8e0]
    4090: 7b 9a 20 f7 00 00 00 00      	stxdw [r10 - 0x8e0], r9
    4098: 05 00 6c 00 00 00 00 00      	ja +0x6c <entrypoint+0x3bd8>
    40a0: 79 30 80 00 00 00 00 00      	ldxdw r0, [r3 + 0x80]
    40a8: 18 07 00 00 79 bd c9 11 00 00 00 00 bf ff 00 db      	lddw r7, -0x24ff0040ee364287
    40b8: 5d 70 08 00 00 00 00 00      	jne r0, r7, +0x8 <entrypoint+0x38d8>
    40c0: 79 30 88 00 00 00 00 00      	ldxdw r0, [r3 + 0x88]
    40c8: 18 07 00 00 d4 4d 2e cd 00 00 00 00 cc f7 9c a6      	lddw r7, -0x5963083332d1b22c
    40d8: 5d 70 04 00 00 00 00 00      	jne r0, r7, +0x4 <entrypoint+0x38d8>
    40e0: 79 30 90 00 00 00 00 00      	ldxdw r0, [r3 + 0x90]
    40e8: 18 07 00 00 e1 00 38 e1 00 00 00 00 00 00 00 00      	lddw r7, 0xe13800e1
    40f8: 1d 70 59 00 00 00 00 00      	jeq r0, r7, +0x59 <entrypoint+0x3ba0>
    4100: 79 a0 e0 f7 00 00 00 00      	ldxdw r0, [r10 - 0x820]
    4108: bf 06 00 00 00 00 00 00      	mov64 r6, r0
    4110: 07 06 00 00 18 00 00 00      	add64 r6, 0x18
    4118: 79 00 10 00 00 00 00 00      	ldxdw r0, [r0 + 0x10]
    4120: 71 37 a0 00 00 00 00 00      	ldxb r7, [r3 + 0xa0]
    4128: 7b 6a b0 f7 00 00 00 00      	stxdw [r10 - 0x850], r6
    4130: 55 07 22 00 01 00 00 00      	jne r7, 0x1, +0x22 <entrypoint+0x3a20>
    4138: 79 07 08 00 00 00 00 00      	ldxdw r7, [r0 + 0x8]
    4140: 79 39 a4 00 00 00 00 00      	ldxdw r9, [r3 + 0xa4]
    4148: 5d 97 20 00 00 00 00 00      	jne r7, r9, +0x20 <entrypoint+0x3a28>
    4150: 79 39 ac 00 00 00 00 00      	ldxdw r9, [r3 + 0xac]
    4158: 79 08 10 00 00 00 00 00      	ldxdw r8, [r0 + 0x10]
    4160: 5d 98 1d 00 00 00 00 00      	jne r8, r9, +0x1d <entrypoint+0x3a28>
    4168: 79 38 b4 00 00 00 00 00      	ldxdw r8, [r3 + 0xb4]
    4170: 79 09 18 00 00 00 00 00      	ldxdw r9, [r0 + 0x18]
    4178: 5d 89 1a 00 00 00 00 00      	jne r9, r8, +0x1a <entrypoint+0x3a28>
    4180: 79 38 bc 00 00 00 00 00      	ldxdw r8, [r3 + 0xbc]
    4188: 79 09 20 00 00 00 00 00      	ldxdw r9, [r0 + 0x20]
    4190: 5d 89 17 00 00 00 00 00      	jne r9, r8, +0x17 <entrypoint+0x3a28>
    4198: 79 01 50 00 00 00 00 00      	ldxdw r1, [r0 + 0x50]
    41a0: 55 01 db 01 63 01 00 00      	jne r1, 0x163, +0x1db <entrypoint+0x4858>
    41a8: 79 01 28 00 00 00 00 00      	ldxdw r1, [r0 + 0x28]
    41b0: 18 07 00 00 06 dd f6 e1 00 00 00 00 ee 75 8f de      	lddw r7, -0x21708a111e0922fa
    41c0: 1d 71 cb 01 00 00 00 00      	jeq r1, r7, +0x1cb <entrypoint+0x47f8>
    41c8: 18 07 00 00 06 dd f6 e1 00 00 00 00 d7 65 a1 93      	lddw r7, -0x6c5e9a281e0922fa
    41d8: 5d 71 d4 01 00 00 00 00      	jne r1, r7, +0x1d4 <entrypoint+0x4858>
    41e0: 79 01 30 00 00 00 00 00      	ldxdw r1, [r0 + 0x30]
    41e8: 18 07 00 00 d9 cb e1 46 00 00 00 00 ce eb 79 ac      	lddw r7, -0x53861431b91e3427
    41f8: 5d 71 d0 01 00 00 00 00      	jne r1, r7, +0x1d0 <entrypoint+0x4858>
    4200: 79 01 38 00 00 00 00 00      	ldxdw r1, [r0 + 0x38]
    4208: 18 07 00 00 1c b4 85 ed 00 00 00 00 5f 5b 37 91      	lddw r7, -0x6ec8a4a0127a4be4
    4218: 5d 71 cc 01 00 00 00 00      	jne r1, r7, +0x1cc <entrypoint+0x4858>
    4220: 79 01 40 00 00 00 00 00      	ldxdw r1, [r0 + 0x40]
    4228: 18 07 00 00 3a 8c f5 85 00 00 00 00 7e ff 00 a9      	lddw r7, -0x56ff00817a0a73c6
    4238: 5d 71 c8 01 00 00 00 00      	jne r1, r7, +0x1c8 <entrypoint+0x4858>
    4240: 05 00 52 04 00 00 00 00      	ja +0x452 <entrypoint+0x5cb0>
    4248: 79 07 08 00 00 00 00 00      	ldxdw r7, [r0 + 0x8]
    4250: b7 09 00 00 04 00 00 00      	mov64 r9, 0x4
    4258: 5d 71 48 00 00 00 00 00      	jne r1, r7, +0x48 <entrypoint+0x3c78>
    4260: 79 01 10 00 00 00 00 00      	ldxdw r1, [r0 + 0x10]
    4268: 79 37 80 00 00 00 00 00      	ldxdw r7, [r3 + 0x80]
    4270: 5d 17 45 00 00 00 00 00      	jne r7, r1, +0x45 <entrypoint+0x3c78>
    4278: 79 01 18 00 00 00 00 00      	ldxdw r1, [r0 + 0x18]
    4280: 79 37 88 00 00 00 00 00      	ldxdw r7, [r3 + 0x88]
    4288: 5d 17 42 00 00 00 00 00      	jne r7, r1, +0x42 <entrypoint+0x3c78>
    4290: 79 01 20 00 00 00 00 00      	ldxdw r1, [r0 + 0x20]
    4298: 79 37 90 00 00 00 00 00      	ldxdw r7, [r3 + 0x90]
    42a0: 5d 17 3f 00 00 00 00 00      	jne r7, r1, +0x3f <entrypoint+0x3c78>
    42a8: 79 01 50 00 00 00 00 00      	ldxdw r1, [r0 + 0x50]
    42b0: 55 01 20 00 63 01 00 00      	jne r1, 0x163, +0x20 <entrypoint+0x3b90>
    42b8: 79 01 28 00 00 00 00 00      	ldxdw r1, [r0 + 0x28]
    42c0: 18 06 00 00 06 dd f6 e1 00 00 00 00 ee 75 8f de      	lddw r6, -0x21708a111e0922fa
    42d0: 1d 61 10 00 00 00 00 00      	jeq r1, r6, +0x10 <entrypoint+0x3b30>
    42d8: 18 06 00 00 06 dd f6 e1 00 00 00 00 d7 65 a1 93      	lddw r6, -0x6c5e9a281e0922fa
    42e8: 5d 61 19 00 00 00 00 00      	jne r1, r6, +0x19 <entrypoint+0x3b90>
    42f0: 79 01 30 00 00 00 00 00      	ldxdw r1, [r0 + 0x30]
    42f8: 18 06 00 00 d9 cb e1 46 00 00 00 00 ce eb 79 ac      	lddw r6, -0x53861431b91e3427
    4308: 5d 61 15 00 00 00 00 00      	jne r1, r6, +0x15 <entrypoint+0x3b90>
    4310: 79 01 38 00 00 00 00 00      	ldxdw r1, [r0 + 0x38]
    4318: 18 06 00 00 1c b4 85 ed 00 00 00 00 5f 5b 37 91      	lddw r6, -0x6ec8a4a0127a4be4
    4328: 5d 61 11 00 00 00 00 00      	jne r1, r6, +0x11 <entrypoint+0x3b90>
    4330: 79 01 40 00 00 00 00 00      	ldxdw r1, [r0 + 0x40]
    4338: 18 06 00 00 3a 8c f5 85 00 00 00 00 7e ff 00 a9      	lddw r6, -0x56ff00817a0a73c6
    4348: 5d 61 0d 00 00 00 00 00      	jne r1, r6, +0xd <entrypoint+0x3b90>
    4350: 05 00 d8 02 00 00 00 00      	ja +0x2d8 <entrypoint+0x51f0>
    4358: 79 01 30 00 00 00 00 00      	ldxdw r1, [r0 + 0x30]
    4360: 18 06 00 00 18 42 5d bc 00 00 00 00 e4 6c cd da      	lddw r6, -0x2532931b43a2bde8
    4370: 5d 61 08 00 00 00 00 00      	jne r1, r6, +0x8 <entrypoint+0x3b90>
    4378: 79 01 38 00 00 00 00 00      	ldxdw r1, [r0 + 0x38]
    4380: 18 06 00 00 b6 1a fc 4d 00 00 00 00 83 b9 0d 27      	lddw r6, 0x270db9834dfc1ab6
    4390: 5d 61 04 00 00 00 00 00      	jne r1, r6, +0x4 <entrypoint+0x3b90>
    4398: 79 01 40 00 00 00 00 00      	ldxdw r1, [r0 + 0x40]
    43a0: 18 06 00 00 fe bd f9 28 00 00 00 00 d8 a1 8b fc      	lddw r6, -0x3745e27d7064202
    43b0: 1d 61 cc 02 00 00 00 00      	jeq r1, r6, +0x2cc <entrypoint+0x51f0>
    43b8: 71 01 01 00 00 00 00 00      	ldxb r1, [r0 + 0x1]
    43c0: 15 01 20 04 00 00 00 00      	jeq r1, 0x0, +0x420 <entrypoint+0x5ca0>
    43c8: 15 04 a7 02 00 00 00 00      	jeq r4, 0x0, +0x2a7 <entrypoint+0x50e0>
    43d0: 1f 45 00 00 00 00 00 00      	sub64 r5, r4
    43d8: 7b 53 98 00 00 00 00 00      	stxdw [r3 + 0x98], r5
    43e0: 79 21 7c 00 00 00 00 00      	ldxdw r1, [r2 + 0x7c]
    43e8: 1f 41 00 00 00 00 00 00      	sub64 r1, r4
    43f0: 7b 12 7c 00 00 00 00 00      	stxdw [r2 + 0x7c], r1
    43f8: b7 00 00 00 1a 00 00 00      	mov64 r0, 0x1a
    4400: bf 06 00 00 00 00 00 00      	mov64 r6, r0
    4408: bf 01 00 00 00 00 00 00      	mov64 r1, r0
    4410: 67 01 00 00 20 00 00 00      	lsh64 r1, 0x20
    4418: 77 01 00 00 20 00 00 00      	rsh64 r1, 0x20
    4420: 55 01 6f 06 1a 00 00 00      	jne r1, 0x1a, +0x66f <entrypoint+0x6f78>
    4428: 79 a9 c8 f7 00 00 00 00      	ldxdw r9, [r10 - 0x838]
    4430: 79 a2 c0 f7 00 00 00 00      	ldxdw r2, [r10 - 0x840]
    4438: 1d 29 9b 06 00 00 00 00      	jeq r9, r2, +0x69b <entrypoint+0x70f0>
    4440: 79 a7 b8 f7 00 00 00 00      	ldxdw r7, [r10 - 0x848]
    4448: 79 a3 d8 f7 00 00 00 00      	ldxdw r3, [r10 - 0x828]
    4450: 1f 37 00 00 00 00 00 00      	sub64 r7, r3
    4458: 67 03 00 00 03 00 00 00      	lsh64 r3, 0x3
    4460: 79 a1 e0 f7 00 00 00 00      	ldxdw r1, [r10 - 0x820]
    4468: 0f 31 00 00 00 00 00 00      	add64 r1, r3
    4470: 7b 1a e0 f7 00 00 00 00      	stxdw [r10 - 0x820], r1
    4478: 79 a0 d0 f7 00 00 00 00      	ldxdw r0, [r10 - 0x830]
    4480: 0f 20 00 00 00 00 00 00      	add64 r0, r2
    4488: 1f 29 00 00 00 00 00 00      	sub64 r9, r2
    4490: 35 09 63 f9 02 00 00 00      	jge r9, 0x2, -0x69d <entrypoint+0x788>
    4498: 05 00 ad 0a 00 00 00 00      	ja +0xaad <entrypoint+0x91e0>
    44a0: b7 00 00 00 00 00 00 00      	mov64 r0, 0x0
    44a8: 05 00 ea ff 00 00 00 00      	ja -0x16 <entrypoint+0x3bd8>
    44b0: 79 01 30 00 00 00 00 00      	ldxdw r1, [r0 + 0x30]
    44b8: 18 07 00 00 18 42 5d bc 00 00 00 00 e4 6c cd da      	lddw r7, -0x2532931b43a2bde8
    44c8: 5d 71 08 00 00 00 00 00      	jne r1, r7, +0x8 <entrypoint+0x3ce8>
    44d0: 79 01 38 00 00 00 00 00      	ldxdw r1, [r0 + 0x38]
    44d8: 18 07 00 00 b6 1a fc 4d 00 00 00 00 83 b9 0d 27      	lddw r7, 0x270db9834dfc1ab6
    44e8: 5d 71 04 00 00 00 00 00      	jne r1, r7, +0x4 <entrypoint+0x3ce8>
    44f0: 79 01 40 00 00 00 00 00      	ldxdw r1, [r0 + 0x40]
    44f8: 18 07 00 00 fe bd f9 28 00 00 00 00 d8 a1 8b fc      	lddw r7, -0x3745e27d7064202
    4508: 1d 71 1c 03 00 00 00 00      	jeq r1, r7, +0x31c <entrypoint+0x55c8>
    4510: 71 01 01 00 00 00 00 00      	ldxb r1, [r0 + 0x1]
    4518: 15 01 51 0c 00 00 00 00      	jeq r1, 0x0, +0xc51 <entrypoint+0x9f80>
    4520: 79 31 d1 00 00 00 00 00      	ldxdw r1, [r3 + 0xd1]
    4528: ad 41 cc 0b 00 00 00 00      	jlt r1, r4, +0xbcc <entrypoint+0x9b68>
    4530: bf 10 00 00 00 00 00 00      	mov64 r0, r1
    4538: 1f 40 00 00 00 00 00 00      	sub64 r0, r4
    4540: 7b 03 d1 00 00 00 00 00      	stxdw [r3 + 0xd1], r0
    4548: 5d 41 1b ff 00 00 00 00      	jne r1, r4, -0xe5 <entrypoint+0x3600>
    4550: 72 03 a0 00 00 00 00 00      	stb [r3 + 0xa0], 0x0
    4558: 05 00 19 ff 00 00 00 00      	ja -0xe7 <entrypoint+0x3600>
    4560: 79 61 30 00 00 00 00 00      	ldxdw r1, [r6 + 0x30]
    4568: 18 02 00 00 18 42 5d bc 00 00 00 00 e4 6c cd da      	lddw r2, -0x2532931b43a2bde8
    4578: 5d 21 08 00 00 00 00 00      	jne r1, r2, +0x8 <entrypoint+0x3d98>
    4580: 79 61 38 00 00 00 00 00      	ldxdw r1, [r6 + 0x38]
    4588: 18 02 00 00 b6 1a fc 4d 00 00 00 00 83 b9 0d 27      	lddw r2, 0x270db9834dfc1ab6
    4598: 5d 21 04 00 00 00 00 00      	jne r1, r2, +0x4 <entrypoint+0x3d98>
    45a0: 79 61 40 00 00 00 00 00      	ldxdw r1, [r6 + 0x40]
    45a8: 18 02 00 00 fe bd f9 28 00 00 00 00 d8 a1 8b fc      	lddw r2, -0x3745e27d7064202
    45b8: 1d 21 5c 03 00 00 00 00      	jeq r1, r2, +0x35c <entrypoint+0x5878>
    45c0: 71 61 01 00 00 00 00 00      	ldxb r1, [r6 + 0x1]
    45c8: 15 01 3b 0c 00 00 00 00      	jeq r1, 0x0, +0xc3b <entrypoint+0x9f80>
    45d0: 79 41 d1 00 00 00 00 00      	ldxdw r1, [r4 + 0xd1]
    45d8: ad 51 0b 0c 00 00 00 00      	jlt r1, r5, +0xc0b <entrypoint+0x9e10>
    45e0: 1d 34 06 00 00 00 00 00      	jeq r4, r3, +0x6 <entrypoint+0x3df0>
    45e8: bf 12 00 00 00 00 00 00      	mov64 r2, r1
    45f0: 1f 52 00 00 00 00 00 00      	sub64 r2, r5
    45f8: 7b 24 d1 00 00 00 00 00      	stxdw [r4 + 0xd1], r2
    4600: 5d 51 01 00 00 00 00 00      	jne r1, r5, +0x1 <entrypoint+0x3de8>
    4608: 72 04 a0 00 00 00 00 00      	stb [r4 + 0xa0], 0x0
    4610: 55 05 1c ff 00 00 00 00      	jne r5, 0x0, -0xe4 <entrypoint+0x36d0>
    4618: 79 41 28 00 00 00 00 00      	ldxdw r1, [r4 + 0x28]
    4620: 18 02 00 00 06 dd f6 e1 00 00 00 00 d7 65 a1 93      	lddw r2, -0x6c5e9a281e0922fa
    4630: 5d 21 5a 0a 00 00 00 00      	jne r1, r2, +0xa5a <entrypoint+0x90e0>
    4638: 79 41 30 00 00 00 00 00      	ldxdw r1, [r4 + 0x30]
    4640: 18 02 00 00 d9 cb e1 46 00 00 00 00 ce eb 79 ac      	lddw r2, -0x53861431b91e3427
    4650: 5d 21 56 0a 00 00 00 00      	jne r1, r2, +0xa56 <entrypoint+0x90e0>
    4658: 79 41 38 00 00 00 00 00      	ldxdw r1, [r4 + 0x38]
    4660: 18 02 00 00 1c b4 85 ed 00 00 00 00 5f 5b 37 91      	lddw r2, -0x6ec8a4a0127a4be4
    4670: 5d 21 52 0a 00 00 00 00      	jne r1, r2, +0xa52 <entrypoint+0x90e0>
    4678: 79 41 40 00 00 00 00 00      	ldxdw r1, [r4 + 0x40]
    4680: 18 02 00 00 3a 8c f5 85 00 00 00 00 7e ff 00 a9      	lddw r2, -0x56ff00817a0a73c6
    4690: 5d 21 4e 0a 00 00 00 00      	jne r1, r2, +0xa4e <entrypoint+0x90e0>
    4698: 79 31 28 00 00 00 00 00      	ldxdw r1, [r3 + 0x28]
    46a0: 18 02 00 00 06 dd f6 e1 00 00 00 00 d7 65 a1 93      	lddw r2, -0x6c5e9a281e0922fa
    46b0: 5d 21 4a 0a 00 00 00 00      	jne r1, r2, +0xa4a <entrypoint+0x90e0>
    46b8: 79 31 30 00 00 00 00 00      	ldxdw r1, [r3 + 0x30]
    46c0: b7 06 00 00 06 00 00 00      	mov64 r6, 0x6
    46c8: 18 02 00 00 d9 cb e1 46 00 00 00 00 ce eb 79 ac      	lddw r2, -0x53861431b91e3427
    46d8: 5d 21 24 0b 00 00 00 00      	jne r1, r2, +0xb24 <entrypoint+0x97d8>
    46e0: 79 31 38 00 00 00 00 00      	ldxdw r1, [r3 + 0x38]
    46e8: 18 02 00 00 1c b4 85 ed 00 00 00 00 5f 5b 37 91      	lddw r2, -0x6ec8a4a0127a4be4
    46f8: 1d 21 5d 00 00 00 00 00      	jeq r1, r2, +0x5d <entrypoint+0x41c0>
    4700: 05 00 1f 0b 00 00 00 00      	ja +0xb1f <entrypoint+0x97d8>
    4708: b7 09 00 00 0c 00 00 00      	mov64 r9, 0xc
    4710: b7 00 00 00 00 00 00 00      	mov64 r0, 0x0
    4718: 05 00 9c ff 00 00 00 00      	ja -0x64 <entrypoint+0x3bd8>
    4720: 15 01 ee 0b 02 00 00 00      	jeq r1, 0x2, +0xbee <entrypoint+0x9e70>
    4728: 79 40 98 00 00 00 00 00      	ldxdw r0, [r4 + 0x98]
    4730: 79 a7 80 f7 00 00 00 00      	ldxdw r7, [r10 - 0x880]
    4738: 3d 50 7b f9 00 00 00 00      	jge r0, r5, -0x685 <entrypoint+0xaf0>
    4740: 05 00 de 0b 00 00 00 00      	ja +0xbde <entrypoint+0x9e10>
    4748: b7 06 00 00 06 00 00 00      	mov64 r6, 0x6
    4750: 79 31 28 00 00 00 00 00      	ldxdw r1, [r3 + 0x28]
    4758: 18 04 00 00 06 dd f6 e1 00 00 00 00 d7 65 a1 93      	lddw r4, -0x6c5e9a281e0922fa
    4768: 5d 41 12 0b 00 00 00 00      	jne r1, r4, +0xb12 <entrypoint+0x97d8>
    4770: 79 31 30 00 00 00 00 00      	ldxdw r1, [r3 + 0x30]
    4778: 18 04 00 00 d9 cb e1 46 00 00 00 00 ce eb 79 ac      	lddw r4, -0x53861431b91e3427
    4788: 5d 41 0e 0b 00 00 00 00      	jne r1, r4, +0xb0e <entrypoint+0x97d8>
    4790: 79 31 38 00 00 00 00 00      	ldxdw r1, [r3 + 0x38]
    4798: 18 04 00 00 1c b4 85 ed 00 00 00 00 5f 5b 37 91      	lddw r4, -0x6ec8a4a0127a4be4
    47a8: 5d 41 0a 0b 00 00 00 00      	jne r1, r4, +0xb0a <entrypoint+0x97d8>
    47b0: 79 31 40 00 00 00 00 00      	ldxdw r1, [r3 + 0x40]
    47b8: 18 03 00 00 3a 8c f5 85 00 00 00 00 7e ff 00 a9      	lddw r3, -0x56ff00817a0a73c6
    47c8: 5d 31 06 0b 00 00 00 00      	jne r1, r3, +0xb06 <entrypoint+0x97d8>
    47d0: 79 21 28 00 00 00 00 00      	ldxdw r1, [r2 + 0x28]
    47d8: 18 03 00 00 06 dd f6 e1 00 00 00 00 d7 65 a1 93      	lddw r3, -0x6c5e9a281e0922fa
    47e8: 5d 31 02 0b 00 00 00 00      	jne r1, r3, +0xb02 <entrypoint+0x97d8>
    47f0: 79 21 30 00 00 00 00 00      	ldxdw r1, [r2 + 0x30]
    47f8: 18 03 00 00 d9 cb e1 46 00 00 00 00 ce eb 79 ac      	lddw r3, -0x53861431b91e3427
    4808: 5d 31 fe 0a 00 00 00 00      	jne r1, r3, +0xafe <entrypoint+0x97d8>
    4810: 79 21 38 00 00 00 00 00      	ldxdw r1, [r2 + 0x38]
    4818: 18 03 00 00 1c b4 85 ed 00 00 00 00 5f 5b 37 91      	lddw r3, -0x6ec8a4a0127a4be4
    4828: 5d 31 fa 0a 00 00 00 00      	jne r1, r3, +0xafa <entrypoint+0x97d8>
    4830: 79 21 40 00 00 00 00 00      	ldxdw r1, [r2 + 0x40]
    4838: 05 00 36 00 00 00 00 00      	ja +0x36 <entrypoint+0x41c8>
    4840: b7 00 00 00 09 00 00 00      	mov64 r0, 0x9
    4848: 79 a9 a8 f7 00 00 00 00      	ldxdw r9, [r10 - 0x858]
    4850: 7b 9a a8 f7 00 00 00 00      	stxdw [r10 - 0x858], r9
    4858: 05 00 74 ff 00 00 00 00      	ja -0x8c <entrypoint+0x3bd8>
    4860: 55 02 10 01 02 00 00 00      	jne r2, 0x2, +0x110 <entrypoint+0x48c0>
    4868: b7 09 00 00 11 00 00 00      	mov64 r9, 0x11
    4870: b7 00 00 00 00 00 00 00      	mov64 r0, 0x0
    4878: 05 00 70 ff 00 00 00 00      	ja -0x90 <entrypoint+0x3bd8>
    4880: 71 01 5a 00 00 00 00 00      	ldxb r1, [r0 + 0x5a]
    4888: 55 01 87 10 01 00 00 00      	jne r1, 0x1, +0x1087 <entrypoint+0xc4a0>
    4890: b7 01 00 00 00 00 00 00      	mov64 r1, 0x0
    4898: 7b 1a 28 f7 00 00 00 00      	stxdw [r10 - 0x8d8], r1
    48a0: 62 0a e7 ff 00 00 00 00      	stw [r10 - 0x19], 0x0
    48a8: 7a 0a e0 ff 00 00 00 00      	stdw [r10 - 0x20], 0x0
    48b0: 79 a1 d8 f7 00 00 00 00      	ldxdw r1, [r10 - 0x828]
    48b8: 55 01 0f 01 03 00 00 00      	jne r1, 0x3, +0x10f <entrypoint+0x4910>
    48c0: 07 00 00 00 58 00 00 00      	add64 r0, 0x58
    48c8: 71 01 00 00 00 00 00 00      	ldxb r1, [r0 + 0x0]
    48d0: 79 a2 28 f7 00 00 00 00      	ldxdw r2, [r10 - 0x8d8]
    48d8: 57 02 00 00 ff 00 00 00      	and64 r2, 0xff
    48e0: ad 12 9c 11 00 00 00 00      	jlt r2, r1, +0x119c <entrypoint+0xcda0>
    48e8: 7b 0a d0 f6 00 00 00 00      	stxdw [r10 - 0x930], r0
    48f0: 79 a6 60 f7 00 00 00 00      	ldxdw r6, [r10 - 0x8a0]
    48f8: 55 05 8a fe 00 00 00 00      	jne r5, 0x0, -0x176 <entrypoint+0x3528>
    4900: 79 41 28 00 00 00 00 00      	ldxdw r1, [r4 + 0x28]
    4908: 18 02 00 00 06 dd f6 e1 00 00 00 00 d7 65 a1 93      	lddw r2, -0x6c5e9a281e0922fa
    4918: 5d 21 fd 09 00 00 00 00      	jne r1, r2, +0x9fd <entrypoint+0x90e0>
    4920: 79 41 30 00 00 00 00 00      	ldxdw r1, [r4 + 0x30]
    4928: 18 02 00 00 d9 cb e1 46 00 00 00 00 ce eb 79 ac      	lddw r2, -0x53861431b91e3427
    4938: 5d 21 f9 09 00 00 00 00      	jne r1, r2, +0x9f9 <entrypoint+0x90e0>
    4940: 79 41 38 00 00 00 00 00      	ldxdw r1, [r4 + 0x38]
    4948: 18 02 00 00 1c b4 85 ed 00 00 00 00 5f 5b 37 91      	lddw r2, -0x6ec8a4a0127a4be4
    4958: 5d 21 f5 09 00 00 00 00      	jne r1, r2, +0x9f5 <entrypoint+0x90e0>
    4960: 79 41 40 00 00 00 00 00      	ldxdw r1, [r4 + 0x40]
    4968: 18 02 00 00 3a 8c f5 85 00 00 00 00 7e ff 00 a9      	lddw r2, -0x56ff00817a0a73c6
    4978: 5d 21 f1 09 00 00 00 00      	jne r1, r2, +0x9f1 <entrypoint+0x90e0>
    4980: 79 31 28 00 00 00 00 00      	ldxdw r1, [r3 + 0x28]
    4988: 18 02 00 00 06 dd f6 e1 00 00 00 00 d7 65 a1 93      	lddw r2, -0x6c5e9a281e0922fa
    4998: 5d 21 ed 09 00 00 00 00      	jne r1, r2, +0x9ed <entrypoint+0x90e0>
    49a0: 79 31 30 00 00 00 00 00      	ldxdw r1, [r3 + 0x30]
    49a8: 18 02 00 00 d9 cb e1 46 00 00 00 00 ce eb 79 ac      	lddw r2, -0x53861431b91e3427
    49b8: 5d 21 e9 09 00 00 00 00      	jne r1, r2, +0x9e9 <entrypoint+0x90e0>
    49c0: b7 06 00 00 06 00 00 00      	mov64 r6, 0x6
    49c8: 79 31 38 00 00 00 00 00      	ldxdw r1, [r3 + 0x38]
    49d0: 18 02 00 00 1c b4 85 ed 00 00 00 00 5f 5b 37 91      	lddw r2, -0x6ec8a4a0127a4be4
    49e0: 5d 21 c3 0a 00 00 00 00      	jne r1, r2, +0xac3 <entrypoint+0x97d8>
    49e8: 79 31 40 00 00 00 00 00      	ldxdw r1, [r3 + 0x40]
    49f0: 18 02 00 00 3a 8c f5 85 00 00 00 00 7e ff 00 a9      	lddw r2, -0x56ff00817a0a73c6
    4a00: 1d 21 44 ff 00 00 00 00      	jeq r1, r2, -0xbc <entrypoint+0x3c00>
    4a08: 05 00 b1 05 00 00 00 00      	ja +0x5b1 <entrypoint+0x6f70>
    4a10: 71 01 5a 00 00 00 00 00      	ldxb r1, [r0 + 0x5a]
    4a18: 55 01 59 10 01 00 00 00      	jne r1, 0x1, +0x1059 <entrypoint+0xc4c0>
    4a20: b7 01 00 00 00 00 00 00      	mov64 r1, 0x0
    4a28: 7b 1a 18 f7 00 00 00 00      	stxdw [r10 - 0x8e8], r1
    4a30: 62 0a e7 ff 00 00 00 00      	stw [r10 - 0x19], 0x0
    4a38: 7a 0a e0 ff 00 00 00 00      	stdw [r10 - 0x20], 0x0
    4a40: 79 a1 d8 f7 00 00 00 00      	ldxdw r1, [r10 - 0x828]
    4a48: 15 01 c1 01 03 00 00 00      	jeq r1, 0x3, +0x1c1 <entrypoint+0x5030>
    4a50: 71 01 59 00 00 00 00 00      	ldxb r1, [r0 + 0x59]
    4a58: b7 07 00 00 01 00 00 00      	mov64 r7, 0x1
    4a60: 7b 7a 10 f7 00 00 00 00      	stxdw [r10 - 0x8f0], r7
    4a68: 55 01 02 00 00 00 00 00      	jne r1, 0x0, +0x2 <entrypoint+0x4258>
    4a70: b7 07 00 00 00 00 00 00      	mov64 r7, 0x0
    4a78: 7b 7a 10 f7 00 00 00 00      	stxdw [r10 - 0x8f0], r7
    4a80: 25 01 d4 11 0b 00 00 00      	jgt r1, 0xb, +0x11d4 <entrypoint+0xd100>
    4a88: 15 01 b7 01 00 00 00 00      	jeq r1, 0x0, +0x1b7 <entrypoint+0x5020>
    4a90: 79 a9 d8 f7 00 00 00 00      	ldxdw r9, [r10 - 0x828]
    4a98: 67 09 00 00 03 00 00 00      	lsh64 r9, 0x3
    4aa0: 79 a8 e0 f7 00 00 00 00      	ldxdw r8, [r10 - 0x820]
    4aa8: bf 87 00 00 00 00 00 00      	mov64 r7, r8
    4ab0: 0f 97 00 00 00 00 00 00      	add64 r7, r9
    4ab8: 7b 7a f8 f6 00 00 00 00      	stxdw [r10 - 0x908], r7
    4ac0: 67 01 00 00 05 00 00 00      	lsh64 r1, 0x5
    4ac8: 79 a9 10 f7 00 00 00 00      	ldxdw r9, [r10 - 0x8f0]
    4ad0: 67 09 00 00 05 00 00 00      	lsh64 r9, 0x5
    4ad8: bf 07 00 00 00 00 00 00      	mov64 r7, r0
    4ae0: 07 07 00 00 5b 00 00 00      	add64 r7, 0x5b
    4ae8: 7b 7a 08 f7 00 00 00 00      	stxdw [r10 - 0x8f8], r7
    4af0: 0f 97 00 00 00 00 00 00      	add64 r7, r9
    4af8: 7b 7a 00 f7 00 00 00 00      	stxdw [r10 - 0x900], r7
    4b00: 1f 19 00 00 00 00 00 00      	sub64 r9, r1
    4b08: 7b 9a 10 f7 00 00 00 00      	stxdw [r10 - 0x8f0], r9
    4b10: b7 01 00 00 00 00 00 00      	mov64 r1, 0x0
    4b18: 7b 1a 18 f7 00 00 00 00      	stxdw [r10 - 0x8e8], r1
    4b20: bf 81 00 00 00 00 00 00      	mov64 r1, r8
    4b28: 07 01 00 00 20 00 00 00      	add64 r1, 0x20
    4b30: 05 00 05 00 00 00 00 00      	ja +0x5 <entrypoint+0x4338>
    4b38: 79 a6 88 f7 00 00 00 00      	ldxdw r6, [r10 - 0x878]
    4b40: bf 61 00 00 00 00 00 00      	mov64 r1, r6
    4b48: 07 01 00 00 08 00 00 00      	add64 r1, 0x8
    4b50: 79 a7 f8 f6 00 00 00 00      	ldxdw r7, [r10 - 0x908]
    4b58: 1d 76 9f 01 00 00 00 00      	jeq r6, r7, +0x19f <entrypoint+0x5030>
    4b60: bf 67 00 00 00 00 00 00      	mov64 r7, r6
    4b68: 7b 1a 88 f7 00 00 00 00      	stxdw [r10 - 0x878], r1
    4b70: 79 71 00 00 00 00 00 00      	ldxdw r1, [r7 + 0x0]
    4b78: 7b 1a 28 f7 00 00 00 00      	stxdw [r10 - 0x8d8], r1
    4b80: 79 11 08 00 00 00 00 00      	ldxdw r1, [r1 + 0x8]
    4b88: 7b 1a 38 f7 00 00 00 00      	stxdw [r10 - 0x8c8], r1
    4b90: 79 a8 10 f7 00 00 00 00      	ldxdw r8, [r10 - 0x8f0]
    4b98: 79 a7 00 f7 00 00 00 00      	ldxdw r7, [r10 - 0x900]
    4ba0: b7 01 00 00 00 00 00 00      	mov64 r1, 0x0
    4ba8: 79 a9 08 f7 00 00 00 00      	ldxdw r9, [r10 - 0x8f8]
    4bb0: 05 00 0a 00 00 00 00 00      	ja +0xa <entrypoint+0x43e0>
    4bb8: 72 07 00 00 01 00 00 00      	stb [r7 + 0x0], 0x1
    4bc0: 79 a7 18 f7 00 00 00 00      	ldxdw r7, [r10 - 0x8e8]
    4bc8: 07 07 00 00 01 00 00 00      	add64 r7, 0x1
    4bd0: 7b 7a 18 f7 00 00 00 00      	stxdw [r10 - 0x8e8], r7
    4bd8: 79 a9 b0 f7 00 00 00 00      	ldxdw r9, [r10 - 0x850]
    4be0: bf 97 00 00 00 00 00 00      	mov64 r7, r9
    4be8: 07 07 00 00 20 00 00 00      	add64 r7, 0x20
    4bf0: 07 01 00 00 01 00 00 00      	add64 r1, 0x1
    4bf8: 07 08 00 00 20 00 00 00      	add64 r8, 0x20
    4c00: 15 08 e6 ff 20 00 00 00      	jeq r8, 0x20, -0x1a <entrypoint+0x4310>
    4c08: 7b 7a b0 f7 00 00 00 00      	stxdw [r10 - 0x850], r7
    4c10: 79 97 00 00 00 00 00 00      	ldxdw r7, [r9 + 0x0]
    4c18: 79 a6 38 f7 00 00 00 00      	ldxdw r6, [r10 - 0x8c8]
    4c20: 5d 67 f6 ff 00 00 00 00      	jne r7, r6, -0xa <entrypoint+0x43b0>
    4c28: 79 a6 28 f7 00 00 00 00      	ldxdw r6, [r10 - 0x8d8]
    4c30: 79 67 10 00 00 00 00 00      	ldxdw r7, [r6 + 0x10]
    4c38: 7b 7a 30 f7 00 00 00 00      	stxdw [r10 - 0x8d0], r7
    4c40: 79 97 08 00 00 00 00 00      	ldxdw r7, [r9 + 0x8]
    4c48: 79 a6 30 f7 00 00 00 00      	ldxdw r6, [r10 - 0x8d0]
    4c50: 5d 67 f0 ff 00 00 00 00      	jne r7, r6, -0x10 <entrypoint+0x43b0>
    4c58: 79 a6 28 f7 00 00 00 00      	ldxdw r6, [r10 - 0x8d8]
    4c60: 79 67 18 00 00 00 00 00      	ldxdw r7, [r6 + 0x18]
    4c68: 7b 7a 30 f7 00 00 00 00      	stxdw [r10 - 0x8d0], r7
    4c70: 79 97 10 00 00 00 00 00      	ldxdw r7, [r9 + 0x10]
    4c78: 79 a6 30 f7 00 00 00 00      	ldxdw r6, [r10 - 0x8d0]
    4c80: 5d 67 ea ff 00 00 00 00      	jne r7, r6, -0x16 <entrypoint+0x43b0>
    4c88: 79 a6 28 f7 00 00 00 00      	ldxdw r6, [r10 - 0x8d8]
    4c90: 79 67 20 00 00 00 00 00      	ldxdw r7, [r6 + 0x20]
    4c98: 79 99 18 00 00 00 00 00      	ldxdw r9, [r9 + 0x18]
    4ca0: 5d 79 e6 ff 00 00 00 00      	jne r9, r7, -0x1a <entrypoint+0x43b0>
    4ca8: 25 01 47 13 0a 00 00 00      	jgt r1, 0xa, +0x1347 <entrypoint+0xdec0>
    4cb0: bf a7 00 00 00 00 00 00      	mov64 r7, r10
    4cb8: 07 07 00 00 e0 ff ff ff      	add64 r7, -0x20
    4cc0: 0f 17 00 00 00 00 00 00      	add64 r7, r1
    4cc8: 71 79 00 00 00 00 00 00      	ldxb r9, [r7 + 0x0]
    4cd0: 55 09 e0 ff 00 00 00 00      	jne r9, 0x0, -0x20 <entrypoint+0x43b0>
    4cd8: 79 a6 28 f7 00 00 00 00      	ldxdw r6, [r10 - 0x8d8]
    4ce0: 71 69 01 00 00 00 00 00      	ldxb r9, [r6 + 0x1]
    4ce8: 55 09 d9 ff 00 00 00 00      	jne r9, 0x0, -0x27 <entrypoint+0x4390>
    4cf0: 05 00 1a 11 00 00 00 00      	ja +0x111a <entrypoint+0xcda0>
    4cf8: 71 61 5a 00 00 00 00 00      	ldxb r1, [r6 + 0x5a]
    4d00: 55 01 00 10 01 00 00 00      	jne r1, 0x1, +0x1000 <entrypoint+0xc4e0>
    4d08: b7 01 00 00 00 00 00 00      	mov64 r1, 0x0
    4d10: 7b 1a 08 f7 00 00 00 00      	stxdw [r10 - 0x8f8], r1
    4d18: 62 0a e7 ff 00 00 00 00      	stw [r10 - 0x19], 0x0
    4d20: 7a 0a e0 ff 00 00 00 00      	stdw [r10 - 0x20], 0x0
    4d28: 79 a1 d8 f7 00 00 00 00      	ldxdw r1, [r10 - 0x828]
    4d30: 55 01 d3 00 03 00 00 00      	jne r1, 0x3, +0xd3 <entrypoint+0x4ba8>
    4d38: 07 06 00 00 58 00 00 00      	add64 r6, 0x58
    4d40: 71 61 00 00 00 00 00 00      	ldxb r1, [r6 + 0x0]
    4d48: 79 a2 08 f7 00 00 00 00      	ldxdw r2, [r10 - 0x8f8]
    4d50: 57 02 00 00 ff 00 00 00      	and64 r2, 0xff
    4d58: ad 12 0d 11 00 00 00 00      	jlt r2, r1, +0x110d <entrypoint+0xcda0>
    4d60: 7b 6a f0 f6 00 00 00 00      	stxdw [r10 - 0x910], r6
    4d68: 55 05 30 fe 00 00 00 00      	jne r5, 0x0, -0x1d0 <entrypoint+0x36c8>
    4d70: 05 00 14 ff 00 00 00 00      	ja -0xec <entrypoint+0x3df0>
    4d78: 71 42 5a 00 00 00 00 00      	ldxb r2, [r4 + 0x5a]
    4d80: 55 02 f4 0f 01 00 00 00      	jne r2, 0x1, +0xff4 <entrypoint+0xc500>
    4d88: b7 02 00 00 00 00 00 00      	mov64 r2, 0x0
    4d90: 7b 2a 38 f7 00 00 00 00      	stxdw [r10 - 0x8c8], r2
    4d98: 62 0a e7 ff 00 00 00 00      	stw [r10 - 0x19], 0x0
    4da0: 7a 0a e0 ff 00 00 00 00      	stdw [r10 - 0x20], 0x0
    4da8: 79 a2 d8 f7 00 00 00 00      	ldxdw r2, [r10 - 0x828]
    4db0: 15 02 5d 01 03 00 00 00      	jeq r2, 0x3, +0x15d <entrypoint+0x5078>
    4db8: 71 42 59 00 00 00 00 00      	ldxb r2, [r4 + 0x59]
    4dc0: b7 06 00 00 01 00 00 00      	mov64 r6, 0x1
    4dc8: 55 02 01 00 00 00 00 00      	jne r2, 0x0, +0x1 <entrypoint+0x45b0>
    4dd0: b7 06 00 00 00 00 00 00      	mov64 r6, 0x0
    4dd8: 25 02 68 11 0b 00 00 00      	jgt r2, 0xb, +0x1168 <entrypoint+0xd0f8>
    4de0: 15 02 55 01 00 00 00 00      	jeq r2, 0x0, +0x155 <entrypoint+0x5068>
    4de8: 79 a0 e0 f7 00 00 00 00      	ldxdw r0, [r10 - 0x820]
    4df0: bf 07 00 00 00 00 00 00      	mov64 r7, r0
    4df8: 07 07 00 00 18 00 00 00      	add64 r7, 0x18
    4e00: 79 a5 d8 f7 00 00 00 00      	ldxdw r5, [r10 - 0x828]
    4e08: 67 05 00 00 03 00 00 00      	lsh64 r5, 0x3
    4e10: bf 08 00 00 00 00 00 00      	mov64 r8, r0
    4e18: 0f 58 00 00 00 00 00 00      	add64 r8, r5
    4e20: 7b 8a 08 f7 00 00 00 00      	stxdw [r10 - 0x8f8], r8
    4e28: 67 02 00 00 05 00 00 00      	lsh64 r2, 0x5
    4e30: 67 06 00 00 05 00 00 00      	lsh64 r6, 0x5
    4e38: bf 45 00 00 00 00 00 00      	mov64 r5, r4
    4e40: 07 05 00 00 5b 00 00 00      	add64 r5, 0x5b
    4e48: 7b 5a 18 f7 00 00 00 00      	stxdw [r10 - 0x8e8], r5
    4e50: 0f 65 00 00 00 00 00 00      	add64 r5, r6
    4e58: 7b 5a 10 f7 00 00 00 00      	stxdw [r10 - 0x8f0], r5
    4e60: 1f 26 00 00 00 00 00 00      	sub64 r6, r2
    4e68: 7b 6a 28 f7 00 00 00 00      	stxdw [r10 - 0x8d8], r6
    4e70: b7 02 00 00 00 00 00 00      	mov64 r2, 0x0
    4e78: 7b 2a 38 f7 00 00 00 00      	stxdw [r10 - 0x8c8], r2
    4e80: bf 02 00 00 00 00 00 00      	mov64 r2, r0
    4e88: 07 02 00 00 20 00 00 00      	add64 r2, 0x20
    4e90: 05 00 05 00 00 00 00 00      	ja +0x5 <entrypoint+0x4698>
    4e98: 79 a7 30 f7 00 00 00 00      	ldxdw r7, [r10 - 0x8d0]
    4ea0: bf 72 00 00 00 00 00 00      	mov64 r2, r7
    4ea8: 07 02 00 00 08 00 00 00      	add64 r2, 0x8
    4eb0: 79 a5 08 f7 00 00 00 00      	ldxdw r5, [r10 - 0x8f8]
    4eb8: 1d 57 3c 01 00 00 00 00      	jeq r7, r5, +0x13c <entrypoint+0x5078>
    4ec0: bf 75 00 00 00 00 00 00      	mov64 r5, r7
    4ec8: 7b 2a 30 f7 00 00 00 00      	stxdw [r10 - 0x8d0], r2
    4ed0: 79 52 00 00 00 00 00 00      	ldxdw r2, [r5 + 0x0]
    4ed8: 7b 2a b0 f7 00 00 00 00      	stxdw [r10 - 0x850], r2
    4ee0: 79 25 08 00 00 00 00 00      	ldxdw r5, [r2 + 0x8]
    4ee8: 79 a9 28 f7 00 00 00 00      	ldxdw r9, [r10 - 0x8d8]
    4ef0: 79 a8 10 f7 00 00 00 00      	ldxdw r8, [r10 - 0x8f0]
    4ef8: b7 02 00 00 00 00 00 00      	mov64 r2, 0x0
    4f00: 79 a6 18 f7 00 00 00 00      	ldxdw r6, [r10 - 0x8e8]
    4f08: 7b 5a a0 f7 00 00 00 00      	stxdw [r10 - 0x860], r5
    4f10: 05 00 06 00 00 00 00 00      	ja +0x6 <entrypoint+0x4720>
    4f18: 79 a5 a0 f7 00 00 00 00      	ldxdw r5, [r10 - 0x860]
    4f20: bf 68 00 00 00 00 00 00      	mov64 r8, r6
    4f28: 07 08 00 00 20 00 00 00      	add64 r8, 0x20
    4f30: 07 02 00 00 01 00 00 00      	add64 r2, 0x1
    4f38: 07 09 00 00 20 00 00 00      	add64 r9, 0x20
    4f40: 15 09 ea ff 20 00 00 00      	jeq r9, 0x20, -0x16 <entrypoint+0x4670>
    4f48: bf 60 00 00 00 00 00 00      	mov64 r0, r6
    4f50: bf 86 00 00 00 00 00 00      	mov64 r6, r8
    4f58: 79 08 00 00 00 00 00 00      	ldxdw r8, [r0 + 0x0]
    4f60: 5d 58 f7 ff 00 00 00 00      	jne r8, r5, -0x9 <entrypoint+0x46f8>
    4f68: 79 a5 b0 f7 00 00 00 00      	ldxdw r5, [r10 - 0x850]
    4f70: 79 58 10 00 00 00 00 00      	ldxdw r8, [r5 + 0x10]
    4f78: 79 07 08 00 00 00 00 00      	ldxdw r7, [r0 + 0x8]
    4f80: 5d 87 f2 ff 00 00 00 00      	jne r7, r8, -0xe <entrypoint+0x46f0>
    4f88: 79 57 18 00 00 00 00 00      	ldxdw r7, [r5 + 0x18]
    4f90: 79 08 10 00 00 00 00 00      	ldxdw r8, [r0 + 0x10]
    4f98: 5d 78 ef ff 00 00 00 00      	jne r8, r7, -0x11 <entrypoint+0x46f0>
    4fa0: 79 57 20 00 00 00 00 00      	ldxdw r7, [r5 + 0x20]
    4fa8: 79 00 18 00 00 00 00 00      	ldxdw r0, [r0 + 0x18]
    4fb0: 5d 70 ec ff 00 00 00 00      	jne r0, r7, -0x14 <entrypoint+0x46f0>
    4fb8: 25 02 e4 12 0a 00 00 00      	jgt r2, 0xa, +0x12e4 <entrypoint+0xdeb8>
    4fc0: bf a0 00 00 00 00 00 00      	mov64 r0, r10
    4fc8: 07 00 00 00 e0 ff ff ff      	add64 r0, -0x20
    4fd0: 0f 20 00 00 00 00 00 00      	add64 r0, r2
    4fd8: 71 07 00 00 00 00 00 00      	ldxb r7, [r0 + 0x0]
    4fe0: 55 07 e6 ff 00 00 00 00      	jne r7, 0x0, -0x1a <entrypoint+0x46f0>
    4fe8: 71 57 01 00 00 00 00 00      	ldxb r7, [r5 + 0x1]
    4ff0: 15 07 ba 10 00 00 00 00      	jeq r7, 0x0, +0x10ba <entrypoint+0xcda0>
    4ff8: 72 00 00 00 01 00 00 00      	stb [r0 + 0x0], 0x1
    5000: 79 a0 38 f7 00 00 00 00      	ldxdw r0, [r10 - 0x8c8]
    5008: 07 00 00 00 01 00 00 00      	add64 r0, 0x1
    5010: 7b 0a 38 f7 00 00 00 00      	stxdw [r10 - 0x8c8], r0
    5018: 05 00 df ff 00 00 00 00      	ja -0x21 <entrypoint+0x46f0>
    5020: 79 01 30 00 00 00 00 00      	ldxdw r1, [r0 + 0x30]
    5028: 18 07 00 00 18 42 5d bc 00 00 00 00 e4 6c cd da      	lddw r7, -0x2532931b43a2bde8
    5038: 5d 71 08 00 00 00 00 00      	jne r1, r7, +0x8 <entrypoint+0x4858>
    5040: 79 01 38 00 00 00 00 00      	ldxdw r1, [r0 + 0x38]
    5048: 18 07 00 00 b6 1a fc 4d 00 00 00 00 83 b9 0d 27      	lddw r7, 0x270db9834dfc1ab6
    5058: 5d 71 04 00 00 00 00 00      	jne r1, r7, +0x4 <entrypoint+0x4858>
    5060: 79 01 40 00 00 00 00 00      	ldxdw r1, [r0 + 0x40]
    5068: 18 07 00 00 fe bd f9 28 00 00 00 00 d8 a1 8b fc      	lddw r7, -0x3745e27d7064202
    5078: 1d 71 8b 02 00 00 00 00      	jeq r1, r7, +0x28b <entrypoint+0x5cb0>
    5080: 71 01 01 00 00 00 00 00      	ldxb r1, [r0 + 0x1]
    5088: 15 01 87 02 00 00 00 00      	jeq r1, 0x0, +0x287 <entrypoint+0x5ca0>
    5090: 79 31 d1 00 00 00 00 00      	ldxdw r1, [r3 + 0xd1]
    5098: 3d 41 03 00 00 00 00 00      	jge r1, r4, +0x3 <entrypoint+0x4890>
    50a0: b7 09 00 00 01 00 00 00      	mov64 r9, 0x1
    50a8: b7 00 00 00 00 00 00 00      	mov64 r0, 0x0
    50b0: 05 00 69 fe 00 00 00 00      	ja -0x197 <entrypoint+0x3bd8>
    50b8: bf 10 00 00 00 00 00 00      	mov64 r0, r1
    50c0: 1f 40 00 00 00 00 00 00      	sub64 r0, r4
    50c8: 7b 03 d1 00 00 00 00 00      	stxdw [r3 + 0xd1], r0
    50d0: 5d 41 5e fe 00 00 00 00      	jne r1, r4, -0x1a2 <entrypoint+0x3ba0>
    50d8: 72 03 a0 00 00 00 00 00      	stb [r3 + 0xa0], 0x0
    50e0: 05 00 5c fe 00 00 00 00      	ja -0x1a4 <entrypoint+0x3ba0>
    50e8: 79 42 98 00 00 00 00 00      	ldxdw r2, [r4 + 0x98]
    50f0: bf 26 00 00 00 00 00 00      	mov64 r6, r2
    50f8: ad 52 f4 ff 00 00 00 00      	jlt r2, r5, -0xc <entrypoint+0x4878>
    5100: 79 a2 a8 f7 00 00 00 00      	ldxdw r2, [r10 - 0x858]
    5108: 79 27 00 00 00 00 00 00      	ldxdw r7, [r2 + 0x0]
    5110: 05 00 f5 f8 00 00 00 00      	ja -0x70b <entrypoint+0x1098>
    5118: b7 00 00 00 09 00 00 00      	mov64 r0, 0x9
    5120: 79 a9 70 f7 00 00 00 00      	ldxdw r9, [r10 - 0x890]
    5128: 7b 9a 70 f7 00 00 00 00      	stxdw [r10 - 0x890], r9
    5130: 05 00 59 fe 00 00 00 00      	ja -0x1a7 <entrypoint+0x3bd8>
    5138: 71 01 59 00 00 00 00 00      	ldxb r1, [r0 + 0x59]
    5140: b7 06 00 00 01 00 00 00      	mov64 r6, 0x1
    5148: 7b 1a 18 f7 00 00 00 00      	stxdw [r10 - 0x8e8], r1
    5150: 55 01 01 00 00 00 00 00      	jne r1, 0x0, +0x1 <entrypoint+0x4938>
    5158: b7 06 00 00 00 00 00 00      	mov64 r6, 0x0
    5160: 79 a1 18 f7 00 00 00 00      	ldxdw r1, [r10 - 0x8e8]
    5168: 25 01 e3 10 0b 00 00 00      	jgt r1, 0xb, +0x10e3 <entrypoint+0xd060>
    5170: 79 a2 e0 f7 00 00 00 00      	ldxdw r2, [r10 - 0x820]
    5178: bf 27 00 00 00 00 00 00      	mov64 r7, r2
    5180: 07 07 00 00 18 00 00 00      	add64 r7, 0x18
    5188: 79 a1 d8 f7 00 00 00 00      	ldxdw r1, [r10 - 0x828]
    5190: 67 01 00 00 03 00 00 00      	lsh64 r1, 0x3
    5198: bf 28 00 00 00 00 00 00      	mov64 r8, r2
    51a0: 0f 18 00 00 00 00 00 00      	add64 r8, r1
    51a8: 7b 8a 10 f7 00 00 00 00      	stxdw [r10 - 0x8f0], r8
    51b0: 79 a1 18 f7 00 00 00 00      	ldxdw r1, [r10 - 0x8e8]
    51b8: 67 01 00 00 05 00 00 00      	lsh64 r1, 0x5
    51c0: 67 06 00 00 05 00 00 00      	lsh64 r6, 0x5
    51c8: bf 08 00 00 00 00 00 00      	mov64 r8, r0
    51d0: 07 08 00 00 5b 00 00 00      	add64 r8, 0x5b
    51d8: 7b 8a 00 f7 00 00 00 00      	stxdw [r10 - 0x900], r8
    51e0: 0f 68 00 00 00 00 00 00      	add64 r8, r6
    51e8: 7b 8a f8 f6 00 00 00 00      	stxdw [r10 - 0x908], r8
    51f0: 1f 16 00 00 00 00 00 00      	sub64 r6, r1
    51f8: 7b 6a 08 f7 00 00 00 00      	stxdw [r10 - 0x8f8], r6
    5200: b7 01 00 00 00 00 00 00      	mov64 r1, 0x0
    5208: 7b 1a 28 f7 00 00 00 00      	stxdw [r10 - 0x8d8], r1
    5210: bf 21 00 00 00 00 00 00      	mov64 r1, r2
    5218: 07 01 00 00 20 00 00 00      	add64 r1, 0x20
    5220: 05 00 05 00 00 00 00 00      	ja +0x5 <entrypoint+0x4a28>
    5228: 79 a7 30 f7 00 00 00 00      	ldxdw r7, [r10 - 0x8d0]
    5230: bf 71 00 00 00 00 00 00      	mov64 r1, r7
    5238: 07 01 00 00 08 00 00 00      	add64 r1, 0x8
    5240: 79 a2 10 f7 00 00 00 00      	ldxdw r2, [r10 - 0x8f0]
    5248: 1d 27 ce fe 00 00 00 00      	jeq r7, r2, -0x132 <entrypoint+0x4098>
    5250: bf 76 00 00 00 00 00 00      	mov64 r6, r7
    5258: 7b 1a 30 f7 00 00 00 00      	stxdw [r10 - 0x8d0], r1
    5260: 79 a1 18 f7 00 00 00 00      	ldxdw r1, [r10 - 0x8e8]
    5268: 15 01 f7 ff 00 00 00 00      	jeq r1, 0x0, -0x9 <entrypoint+0x4a00>
    5270: b7 02 00 00 00 00 00 00      	mov64 r2, 0x0
    5278: 79 69 00 00 00 00 00 00      	ldxdw r9, [r6 + 0x0]
    5280: 79 96 08 00 00 00 00 00      	ldxdw r6, [r9 + 0x8]
    5288: 79 a1 08 f7 00 00 00 00      	ldxdw r1, [r10 - 0x8f8]
    5290: 79 a8 f8 f6 00 00 00 00      	ldxdw r8, [r10 - 0x908]
    5298: 79 a7 00 f7 00 00 00 00      	ldxdw r7, [r10 - 0x900]
    52a0: 7b 6a 38 f7 00 00 00 00      	stxdw [r10 - 0x8c8], r6
    52a8: 05 00 08 00 00 00 00 00      	ja +0x8 <entrypoint+0x4ac8>
    52b0: bf 69 00 00 00 00 00 00      	mov64 r9, r6
    52b8: 79 a6 38 f7 00 00 00 00      	ldxdw r6, [r10 - 0x8c8]
    52c0: 79 a7 b0 f7 00 00 00 00      	ldxdw r7, [r10 - 0x850]
    52c8: bf 78 00 00 00 00 00 00      	mov64 r8, r7
    52d0: 07 08 00 00 20 00 00 00      	add64 r8, 0x20
    52d8: 07 02 00 00 01 00 00 00      	add64 r2, 0x1
    52e0: 07 01 00 00 20 00 00 00      	add64 r1, 0x20
    52e8: 15 01 e7 ff 20 00 00 00      	jeq r1, 0x20, -0x19 <entrypoint+0x4a00>
    52f0: 7b 8a b0 f7 00 00 00 00      	stxdw [r10 - 0x850], r8
    52f8: 79 78 00 00 00 00 00 00      	ldxdw r8, [r7 + 0x0]
    5300: 5d 68 f7 ff 00 00 00 00      	jne r8, r6, -0x9 <entrypoint+0x4a98>
    5308: 79 98 10 00 00 00 00 00      	ldxdw r8, [r9 + 0x10]
    5310: bf 96 00 00 00 00 00 00      	mov64 r6, r9
    5318: 79 79 08 00 00 00 00 00      	ldxdw r9, [r7 + 0x8]
    5320: 5d 89 f1 ff 00 00 00 00      	jne r9, r8, -0xf <entrypoint+0x4a88>
    5328: 79 68 18 00 00 00 00 00      	ldxdw r8, [r6 + 0x18]
    5330: 79 79 10 00 00 00 00 00      	ldxdw r9, [r7 + 0x10]
    5338: 5d 89 ee ff 00 00 00 00      	jne r9, r8, -0x12 <entrypoint+0x4a88>
    5340: 79 68 20 00 00 00 00 00      	ldxdw r8, [r6 + 0x20]
    5348: 79 77 18 00 00 00 00 00      	ldxdw r7, [r7 + 0x18]
    5350: bf 69 00 00 00 00 00 00      	mov64 r9, r6
    5358: 5d 87 eb ff 00 00 00 00      	jne r7, r8, -0x15 <entrypoint+0x4a90>
    5360: 79 a6 38 f7 00 00 00 00      	ldxdw r6, [r10 - 0x8c8]
    5368: 25 02 6e 12 0a 00 00 00      	jgt r2, 0xa, +0x126e <entrypoint+0xdeb8>
    5370: bf a7 00 00 00 00 00 00      	mov64 r7, r10
    5378: 07 07 00 00 e0 ff ff ff      	add64 r7, -0x20
    5380: 0f 27 00 00 00 00 00 00      	add64 r7, r2
    5388: 71 78 00 00 00 00 00 00      	ldxb r8, [r7 + 0x0]
    5390: 55 08 e5 ff 00 00 00 00      	jne r8, 0x0, -0x1b <entrypoint+0x4a98>
    5398: 71 98 01 00 00 00 00 00      	ldxb r8, [r9 + 0x1]
    53a0: 15 08 44 10 00 00 00 00      	jeq r8, 0x0, +0x1044 <entrypoint+0xcda0>
    53a8: 72 07 00 00 01 00 00 00      	stb [r7 + 0x0], 0x1
    53b0: 79 a7 28 f7 00 00 00 00      	ldxdw r7, [r10 - 0x8d8]
    53b8: 07 07 00 00 01 00 00 00      	add64 r7, 0x1
    53c0: 7b 7a 28 f7 00 00 00 00      	stxdw [r10 - 0x8d8], r7
    53c8: 05 00 de ff 00 00 00 00      	ja -0x22 <entrypoint+0x4a98>
    53d0: 71 61 59 00 00 00 00 00      	ldxb r1, [r6 + 0x59]
    53d8: b7 07 00 00 01 00 00 00      	mov64 r7, 0x1
    53e0: 7b 1a 00 f7 00 00 00 00      	stxdw [r10 - 0x900], r1
    53e8: 55 01 01 00 00 00 00 00      	jne r1, 0x0, +0x1 <entrypoint+0x4bd0>
    53f0: b7 07 00 00 00 00 00 00      	mov64 r7, 0x0
    53f8: 79 a1 00 f7 00 00 00 00      	ldxdw r1, [r10 - 0x900]
    5400: 25 01 9e 10 0b 00 00 00      	jgt r1, 0xb, +0x109e <entrypoint+0xd0d0>
    5408: 79 a1 d8 f7 00 00 00 00      	ldxdw r1, [r10 - 0x828]
    5410: 67 01 00 00 03 00 00 00      	lsh64 r1, 0x3
    5418: 79 a2 e0 f7 00 00 00 00      	ldxdw r2, [r10 - 0x820]
    5420: bf 29 00 00 00 00 00 00      	mov64 r9, r2
    5428: 0f 19 00 00 00 00 00 00      	add64 r9, r1
    5430: 7b 9a f8 f6 00 00 00 00      	stxdw [r10 - 0x908], r9
    5438: 79 a1 00 f7 00 00 00 00      	ldxdw r1, [r10 - 0x900]
    5440: 67 01 00 00 05 00 00 00      	lsh64 r1, 0x5
    5448: 67 07 00 00 05 00 00 00      	lsh64 r7, 0x5
    5450: bf 69 00 00 00 00 00 00      	mov64 r9, r6
    5458: 07 09 00 00 5b 00 00 00      	add64 r9, 0x5b
    5460: 7b 9a e8 f6 00 00 00 00      	stxdw [r10 - 0x918], r9
    5468: 0f 79 00 00 00 00 00 00      	add64 r9, r7
    5470: 7b 9a e0 f6 00 00 00 00      	stxdw [r10 - 0x920], r9
    5478: 1f 17 00 00 00 00 00 00      	sub64 r7, r1
    5480: 7b 7a f0 f6 00 00 00 00      	stxdw [r10 - 0x910], r7
    5488: b7 01 00 00 00 00 00 00      	mov64 r1, 0x0
    5490: 7b 1a 08 f7 00 00 00 00      	stxdw [r10 - 0x8f8], r1
    5498: bf 21 00 00 00 00 00 00      	mov64 r1, r2
    54a0: 07 01 00 00 20 00 00 00      	add64 r1, 0x20
    54a8: 05 00 04 00 00 00 00 00      	ja +0x4 <entrypoint+0x4ca8>
    54b0: bf 81 00 00 00 00 00 00      	mov64 r1, r8
    54b8: 07 01 00 00 08 00 00 00      	add64 r1, 0x8
    54c0: 79 a2 f8 f6 00 00 00 00      	ldxdw r2, [r10 - 0x908]
    54c8: 1d 28 0d ff 00 00 00 00      	jeq r8, r2, -0xf3 <entrypoint+0x4510>
    54d0: bf 87 00 00 00 00 00 00      	mov64 r7, r8
    54d8: bf 18 00 00 00 00 00 00      	mov64 r8, r1
    54e0: 79 a1 00 f7 00 00 00 00      	ldxdw r1, [r10 - 0x900]
    54e8: 15 01 f8 ff 00 00 00 00      	jeq r1, 0x0, -0x8 <entrypoint+0x4c88>
    54f0: b7 02 00 00 00 00 00 00      	mov64 r2, 0x0
    54f8: 79 71 00 00 00 00 00 00      	ldxdw r1, [r7 + 0x0]
    5500: 7b 1a 18 f7 00 00 00 00      	stxdw [r10 - 0x8e8], r1
    5508: 79 11 08 00 00 00 00 00      	ldxdw r1, [r1 + 0x8]
    5510: 7b 1a 30 f7 00 00 00 00      	stxdw [r10 - 0x8d0], r1
    5518: 79 a9 f0 f6 00 00 00 00      	ldxdw r9, [r10 - 0x910]
    5520: 79 a7 e0 f6 00 00 00 00      	ldxdw r7, [r10 - 0x920]
    5528: 79 a1 e8 f6 00 00 00 00      	ldxdw r1, [r10 - 0x918]
    5530: 05 00 07 00 00 00 00 00      	ja +0x7 <entrypoint+0x4d48>
    5538: 79 a2 b0 f7 00 00 00 00      	ldxdw r2, [r10 - 0x850]
    5540: 79 a1 38 f7 00 00 00 00      	ldxdw r1, [r10 - 0x8c8]
    5548: bf 17 00 00 00 00 00 00      	mov64 r7, r1
    5550: 07 07 00 00 20 00 00 00      	add64 r7, 0x20
    5558: 07 02 00 00 01 00 00 00      	add64 r2, 0x1
    5560: 07 09 00 00 20 00 00 00      	add64 r9, 0x20
    5568: 15 09 e8 ff 20 00 00 00      	jeq r9, 0x20, -0x18 <entrypoint+0x4c88>
    5570: 7b 2a b0 f7 00 00 00 00      	stxdw [r10 - 0x850], r2
    5578: 7b 7a 38 f7 00 00 00 00      	stxdw [r10 - 0x8c8], r7
    5580: 79 17 00 00 00 00 00 00      	ldxdw r7, [r1 + 0x0]
    5588: 79 a2 30 f7 00 00 00 00      	ldxdw r2, [r10 - 0x8d0]
    5590: 5d 27 f4 ff 00 00 00 00      	jne r7, r2, -0xc <entrypoint+0x4d10>
    5598: 79 a2 18 f7 00 00 00 00      	ldxdw r2, [r10 - 0x8e8]
    55a0: 79 27 10 00 00 00 00 00      	ldxdw r7, [r2 + 0x10]
    55a8: 7b 7a 28 f7 00 00 00 00      	stxdw [r10 - 0x8d8], r7
    55b0: 79 17 08 00 00 00 00 00      	ldxdw r7, [r1 + 0x8]
    55b8: 79 a2 28 f7 00 00 00 00      	ldxdw r2, [r10 - 0x8d8]
    55c0: 5d 27 ee ff 00 00 00 00      	jne r7, r2, -0x12 <entrypoint+0x4d10>
    55c8: 79 a2 18 f7 00 00 00 00      	ldxdw r2, [r10 - 0x8e8]
    55d0: 79 22 18 00 00 00 00 00      	ldxdw r2, [r2 + 0x18]
    55d8: 7b 2a 28 f7 00 00 00 00      	stxdw [r10 - 0x8d8], r2
    55e0: 7b 1a 10 f7 00 00 00 00      	stxdw [r10 - 0x8f0], r1
    55e8: 79 17 10 00 00 00 00 00      	ldxdw r7, [r1 + 0x10]
    55f0: 79 a2 b0 f7 00 00 00 00      	ldxdw r2, [r10 - 0x850]
    55f8: 79 a1 28 f7 00 00 00 00      	ldxdw r1, [r10 - 0x8d8]
    5600: 5d 17 e7 ff 00 00 00 00      	jne r7, r1, -0x19 <entrypoint+0x4d18>
    5608: 79 a7 18 f7 00 00 00 00      	ldxdw r7, [r10 - 0x8e8]
    5610: 79 77 20 00 00 00 00 00      	ldxdw r7, [r7 + 0x20]
    5618: 79 a1 10 f7 00 00 00 00      	ldxdw r1, [r10 - 0x8f0]
    5620: 79 11 18 00 00 00 00 00      	ldxdw r1, [r1 + 0x18]
    5628: 5d 71 e2 ff 00 00 00 00      	jne r1, r7, -0x1e <entrypoint+0x4d18>
    5630: 25 02 15 12 0a 00 00 00      	jgt r2, 0xa, +0x1215 <entrypoint+0xdeb8>
    5638: bf a1 00 00 00 00 00 00      	mov64 r1, r10
    5640: 07 01 00 00 e0 ff ff ff      	add64 r1, -0x20
    5648: 0f 21 00 00 00 00 00 00      	add64 r1, r2
    5650: 71 17 00 00 00 00 00 00      	ldxb r7, [r1 + 0x0]
    5658: 55 07 dc ff 00 00 00 00      	jne r7, 0x0, -0x24 <entrypoint+0x4d18>
    5660: 79 a7 18 f7 00 00 00 00      	ldxdw r7, [r10 - 0x8e8]
    5668: 71 77 01 00 00 00 00 00      	ldxb r7, [r7 + 0x1]
    5670: 15 07 ea 0f 00 00 00 00      	jeq r7, 0x0, +0xfea <entrypoint+0xcda0>
    5678: 72 01 00 00 01 00 00 00      	stb [r1 + 0x0], 0x1
    5680: 79 a1 08 f7 00 00 00 00      	ldxdw r1, [r10 - 0x8f8]
    5688: 07 01 00 00 01 00 00 00      	add64 r1, 0x1
    5690: 7b 1a 08 f7 00 00 00 00      	stxdw [r10 - 0x8f8], r1
    5698: 05 00 d4 ff 00 00 00 00      	ja -0x2c <entrypoint+0x4d18>
    56a0: 18 01 00 00 00 00 00 00 00 00 00 00 ff ff ff ff      	lddw r1, -0x100000000
    56b0: 79 a2 d8 f6 00 00 00 00      	ldxdw r2, [r10 - 0x928]
    56b8: 5f 12 00 00 00 00 00 00      	and64 r2, r1
    56c0: 7b 2a d8 f6 00 00 00 00      	stxdw [r10 - 0x928], r2
    56c8: b7 00 00 00 03 00 00 00      	mov64 r0, 0x3
    56d0: 79 a9 d8 f6 00 00 00 00      	ldxdw r9, [r10 - 0x928]
    56d8: 05 00 a4 fd 00 00 00 00      	ja -0x25c <entrypoint+0x3bd8>
    56e0: b7 00 00 00 09 00 00 00      	mov64 r0, 0x9
    56e8: 79 a9 d8 f6 00 00 00 00      	ldxdw r9, [r10 - 0x928]
    56f0: 05 00 a1 fd 00 00 00 00      	ja -0x25f <entrypoint+0x3bd8>
    56f8: b7 00 00 00 09 00 00 00      	mov64 r0, 0x9
    5700: 7b 9a 68 f7 00 00 00 00      	stxdw [r10 - 0x898], r9
    5708: 05 00 9e fd 00 00 00 00      	ja -0x262 <entrypoint+0x3bd8>
    5710: 7b 2a d8 f6 00 00 00 00      	stxdw [r10 - 0x928], r2
    5718: b7 09 00 00 12 00 00 00      	mov64 r9, 0x12
    5720: b7 00 00 00 00 00 00 00      	mov64 r0, 0x0
    5728: 05 00 9a fd 00 00 00 00      	ja -0x266 <entrypoint+0x3bd8>
    5730: 79 41 78 00 00 00 00 00      	ldxdw r1, [r4 + 0x78]
    5738: 5d 71 5a 02 00 00 00 00      	jne r1, r7, +0x25a <entrypoint+0x61e8>
    5740: 79 81 10 00 00 00 00 00      	ldxdw r1, [r8 + 0x10]
    5748: 79 47 80 00 00 00 00 00      	ldxdw r7, [r4 + 0x80]
    5750: 5d 17 57 02 00 00 00 00      	jne r7, r1, +0x257 <entrypoint+0x61e8>
    5758: 79 81 18 00 00 00 00 00      	ldxdw r1, [r8 + 0x18]
    5760: 79 47 88 00 00 00 00 00      	ldxdw r7, [r4 + 0x88]
    5768: 5d 17 54 02 00 00 00 00      	jne r7, r1, +0x254 <entrypoint+0x61e8>
    5770: 79 81 20 00 00 00 00 00      	ldxdw r1, [r8 + 0x20]
    5778: 79 47 90 00 00 00 00 00      	ldxdw r7, [r4 + 0x90]
    5780: 5d 17 51 02 00 00 00 00      	jne r7, r1, +0x251 <entrypoint+0x61e8>
    5788: 79 81 50 00 00 00 00 00      	ldxdw r1, [r8 + 0x50]
    5790: 55 01 b5 00 63 01 00 00      	jne r1, 0x163, +0xb5 <entrypoint+0x5518>
    5798: 79 86 28 00 00 00 00 00      	ldxdw r6, [r8 + 0x28]
    57a0: 18 01 00 00 06 dd f6 e1 00 00 00 00 ee 75 8f de      	lddw r1, -0x21708a111e0922fa
    57b0: 1d 16 a5 00 00 00 00 00      	jeq r6, r1, +0xa5 <entrypoint+0x54b8>
    57b8: 18 01 00 00 06 dd f6 e1 00 00 00 00 d7 65 a1 93      	lddw r1, -0x6c5e9a281e0922fa
    57c8: 5d 16 ae 00 00 00 00 00      	jne r6, r1, +0xae <entrypoint+0x5518>
    57d0: 79 81 30 00 00 00 00 00      	ldxdw r1, [r8 + 0x30]
    57d8: 18 06 00 00 d9 cb e1 46 00 00 00 00 ce eb 79 ac      	lddw r6, -0x53861431b91e3427
    57e8: 5d 61 aa 00 00 00 00 00      	jne r1, r6, +0xaa <entrypoint+0x5518>
    57f0: 79 81 38 00 00 00 00 00      	ldxdw r1, [r8 + 0x38]
    57f8: 18 06 00 00 1c b4 85 ed 00 00 00 00 5f 5b 37 91      	lddw r6, -0x6ec8a4a0127a4be4
    5808: 5d 61 a6 00 00 00 00 00      	jne r1, r6, +0xa6 <entrypoint+0x5518>
    5810: 79 81 40 00 00 00 00 00      	ldxdw r1, [r8 + 0x40]
    5818: 18 06 00 00 3a 8c f5 85 00 00 00 00 7e ff 00 a9      	lddw r6, -0x56ff00817a0a73c6
    5828: 5d 61 a2 00 00 00 00 00      	jne r1, r6, +0xa2 <entrypoint+0x5518>
    5830: 05 00 47 02 00 00 00 00      	ja +0x247 <entrypoint+0x6248>
    5838: b7 09 00 00 03 00 00 00      	mov64 r9, 0x3
    5840: 05 00 77 fd 00 00 00 00      	ja -0x289 <entrypoint+0x3bd8>
    5848: b7 01 00 00 00 00 00 00      	mov64 r1, 0x0
    5850: 7b 1a 18 f7 00 00 00 00      	stxdw [r10 - 0x8e8], r1
    5858: 07 00 00 00 58 00 00 00      	add64 r0, 0x58
    5860: 71 01 00 00 00 00 00 00      	ldxb r1, [r0 + 0x0]
    5868: 79 a6 18 f7 00 00 00 00      	ldxdw r6, [r10 - 0x8e8]
    5870: 57 06 00 00 ff 00 00 00      	and64 r6, 0xff
    5878: ad 16 a9 0f 00 00 00 00      	jlt r6, r1, +0xfa9 <entrypoint+0xcda0>
    5880: 7b 0a c8 f6 00 00 00 00      	stxdw [r10 - 0x938], r0
    5888: 05 00 b3 fc 00 00 00 00      	ja -0x34d <entrypoint+0x3600>
    5890: b7 02 00 00 00 00 00 00      	mov64 r2, 0x0
    5898: 7b 2a 38 f7 00 00 00 00      	stxdw [r10 - 0x8c8], r2
    58a0: 07 04 00 00 58 00 00 00      	add64 r4, 0x58
    58a8: 71 42 00 00 00 00 00 00      	ldxb r2, [r4 + 0x0]
    58b0: 79 a5 38 f7 00 00 00 00      	ldxdw r5, [r10 - 0x8c8]
    58b8: 57 05 00 00 ff 00 00 00      	and64 r5, 0xff
    58c0: ad 25 a0 0f 00 00 00 00      	jlt r5, r2, +0xfa0 <entrypoint+0xcda0>
    58c8: 7b 4a c0 f6 00 00 00 00      	stxdw [r10 - 0x940], r4
    58d0: 05 00 e2 fc 00 00 00 00      	ja -0x31e <entrypoint+0x37c0>
    58d8: b7 09 00 00 11 00 00 00      	mov64 r9, 0x11
    58e0: 05 00 63 fd 00 00 00 00      	ja -0x29d <entrypoint+0x3bd8>
    58e8: b7 09 00 00 0a 00 00 00      	mov64 r9, 0xa
    58f0: 05 00 61 fd 00 00 00 00      	ja -0x29f <entrypoint+0x3bd8>
    58f8: b7 09 00 00 12 00 00 00      	mov64 r9, 0x12
    5900: 05 00 5f fd 00 00 00 00      	ja -0x2a1 <entrypoint+0x3bd8>
    5908: 79 31 28 00 00 00 00 00      	ldxdw r1, [r3 + 0x28]
    5910: 18 04 00 00 06 dd f6 e1 00 00 00 00 d7 65 a1 93      	lddw r4, -0x6c5e9a281e0922fa
    5920: 5d 41 1b 02 00 00 00 00      	jne r1, r4, +0x21b <entrypoint+0x61d8>
    5928: 79 31 30 00 00 00 00 00      	ldxdw r1, [r3 + 0x30]
    5930: 18 04 00 00 d9 cb e1 46 00 00 00 00 ce eb 79 ac      	lddw r4, -0x53861431b91e3427
    5940: 5d 41 17 02 00 00 00 00      	jne r1, r4, +0x217 <entrypoint+0x61d8>
    5948: 79 31 38 00 00 00 00 00      	ldxdw r1, [r3 + 0x38]
    5950: 18 04 00 00 1c b4 85 ed 00 00 00 00 5f 5b 37 91      	lddw r4, -0x6ec8a4a0127a4be4
    5960: 5d 41 13 02 00 00 00 00      	jne r1, r4, +0x213 <entrypoint+0x61d8>
    5968: 79 31 40 00 00 00 00 00      	ldxdw r1, [r3 + 0x40]
    5970: 18 03 00 00 3a 8c f5 85 00 00 00 00 7e ff 00 a9      	lddw r3, -0x56ff00817a0a73c6
    5980: 5d 31 0f 02 00 00 00 00      	jne r1, r3, +0x20f <entrypoint+0x61d8>
    5988: 79 21 28 00 00 00 00 00      	ldxdw r1, [r2 + 0x28]
    5990: 18 03 00 00 06 dd f6 e1 00 00 00 00 d7 65 a1 93      	lddw r3, -0x6c5e9a281e0922fa
    59a0: 5d 31 0b 02 00 00 00 00      	jne r1, r3, +0x20b <entrypoint+0x61d8>
    59a8: 79 21 30 00 00 00 00 00      	ldxdw r1, [r2 + 0x30]
    59b0: 18 03 00 00 d9 cb e1 46 00 00 00 00 ce eb 79 ac      	lddw r3, -0x53861431b91e3427
    59c0: 5d 31 07 02 00 00 00 00      	jne r1, r3, +0x207 <entrypoint+0x61d8>
    59c8: 79 21 38 00 00 00 00 00      	ldxdw r1, [r2 + 0x38]
    59d0: 18 03 00 00 1c b4 85 ed 00 00 00 00 5f 5b 37 91      	lddw r3, -0x6ec8a4a0127a4be4
    59e0: 5d 31 03 02 00 00 00 00      	jne r1, r3, +0x203 <entrypoint+0x61d8>
    59e8: 79 21 40 00 00 00 00 00      	ldxdw r1, [r2 + 0x40]
    59f0: 18 02 00 00 3a 8c f5 85 00 00 00 00 7e ff 00 a9      	lddw r2, -0x56ff00817a0a73c6
    5a00: 5d 21 ff 01 00 00 00 00      	jne r1, r2, +0x1ff <entrypoint+0x61d8>
    5a08: b7 00 00 00 1a 00 00 00      	mov64 r0, 0x1a
    5a10: 05 00 3d fd 00 00 00 00      	ja -0x2c3 <entrypoint+0x3bd8>
    5a18: 71 01 5a 00 00 00 00 00      	ldxb r1, [r0 + 0x5a]
    5a20: 15 01 37 01 00 00 00 00      	jeq r1, 0x0, +0x137 <entrypoint+0x5bb8>
    5a28: 55 01 39 01 01 00 00 00      	jne r1, 0x1, +0x139 <entrypoint+0x5bd0>
    5a30: bf 01 00 00 00 00 00 00      	mov64 r1, r0
    5a38: 07 01 00 00 58 00 00 00      	add64 r1, 0x58
    5a40: 7b 1a b8 f6 00 00 00 00      	stxdw [r10 - 0x948], r1
    5a48: b7 01 00 00 00 00 00 00      	mov64 r1, 0x0
    5a50: 7b 1a 18 f7 00 00 00 00      	stxdw [r10 - 0x8e8], r1
    5a58: 62 0a e7 ff 00 00 00 00      	stw [r10 - 0x19], 0x0
    5a60: 7a 0a e0 ff 00 00 00 00      	stdw [r10 - 0x20], 0x0
    5a68: 79 a1 d8 f7 00 00 00 00      	ldxdw r1, [r10 - 0x828]
    5a70: 15 01 45 01 03 00 00 00      	jeq r1, 0x3, +0x145 <entrypoint+0x5c78>
    5a78: 71 01 59 00 00 00 00 00      	ldxb r1, [r0 + 0x59]
    5a80: b7 08 00 00 01 00 00 00      	mov64 r8, 0x1
    5a88: 55 01 01 00 00 00 00 00      	jne r1, 0x0, +0x1 <entrypoint+0x5270>
    5a90: b7 08 00 00 00 00 00 00      	mov64 r8, 0x0
    5a98: 25 01 d1 0f 0b 00 00 00      	jgt r1, 0xb, +0xfd1 <entrypoint+0xd100>
    5aa0: 15 01 3d 01 00 00 00 00      	jeq r1, 0x0, +0x13d <entrypoint+0x5c68>
    5aa8: 79 a6 d8 f7 00 00 00 00      	ldxdw r6, [r10 - 0x828]
    5ab0: 67 06 00 00 03 00 00 00      	lsh64 r6, 0x3
    5ab8: 79 a7 e0 f7 00 00 00 00      	ldxdw r7, [r10 - 0x820]
    5ac0: bf 79 00 00 00 00 00 00      	mov64 r9, r7
    5ac8: 0f 69 00 00 00 00 00 00      	add64 r9, r6
    5ad0: 7b 9a 00 f7 00 00 00 00      	stxdw [r10 - 0x900], r9
    5ad8: 67 01 00 00 05 00 00 00      	lsh64 r1, 0x5
    5ae0: 67 08 00 00 05 00 00 00      	lsh64 r8, 0x5
    5ae8: 07 00 00 00 5b 00 00 00      	add64 r0, 0x5b
    5af0: bf 06 00 00 00 00 00 00      	mov64 r6, r0
    5af8: 0f 86 00 00 00 00 00 00      	add64 r6, r8
    5b00: 7b 6a 08 f7 00 00 00 00      	stxdw [r10 - 0x8f8], r6
    5b08: 1f 18 00 00 00 00 00 00      	sub64 r8, r1
    5b10: 7b 8a 10 f7 00 00 00 00      	stxdw [r10 - 0x8f0], r8
    5b18: b7 01 00 00 00 00 00 00      	mov64 r1, 0x0
    5b20: 7b 1a 18 f7 00 00 00 00      	stxdw [r10 - 0x8e8], r1
    5b28: bf 71 00 00 00 00 00 00      	mov64 r1, r7
    5b30: 07 01 00 00 20 00 00 00      	add64 r1, 0x20
    5b38: 05 00 05 00 00 00 00 00      	ja +0x5 <entrypoint+0x5340>
    5b40: 79 a6 b0 f7 00 00 00 00      	ldxdw r6, [r10 - 0x850]
    5b48: bf 61 00 00 00 00 00 00      	mov64 r1, r6
    5b50: 07 01 00 00 08 00 00 00      	add64 r1, 0x8
    5b58: 79 a7 00 f7 00 00 00 00      	ldxdw r7, [r10 - 0x900]
    5b60: 1d 76 27 01 00 00 00 00      	jeq r6, r7, +0x127 <entrypoint+0x5c78>
    5b68: 79 a6 b0 f7 00 00 00 00      	ldxdw r6, [r10 - 0x850]
    5b70: 7b 1a b0 f7 00 00 00 00      	stxdw [r10 - 0x850], r1
    5b78: 79 61 00 00 00 00 00 00      	ldxdw r1, [r6 + 0x0]
    5b80: 7b 1a 28 f7 00 00 00 00      	stxdw [r10 - 0x8d8], r1
    5b88: 79 11 08 00 00 00 00 00      	ldxdw r1, [r1 + 0x8]
    5b90: 7b 1a 30 f7 00 00 00 00      	stxdw [r10 - 0x8d0], r1
    5b98: 79 a7 10 f7 00 00 00 00      	ldxdw r7, [r10 - 0x8f0]
    5ba0: 79 a9 08 f7 00 00 00 00      	ldxdw r9, [r10 - 0x8f8]
    5ba8: b7 01 00 00 00 00 00 00      	mov64 r1, 0x0
    5bb0: bf 06 00 00 00 00 00 00      	mov64 r6, r0
    5bb8: 05 00 06 00 00 00 00 00      	ja +0x6 <entrypoint+0x53c8>
    5bc0: 79 a6 38 f7 00 00 00 00      	ldxdw r6, [r10 - 0x8c8]
    5bc8: bf 69 00 00 00 00 00 00      	mov64 r9, r6
    5bd0: 07 09 00 00 20 00 00 00      	add64 r9, 0x20
    5bd8: 07 01 00 00 01 00 00 00      	add64 r1, 0x1
    5be0: 07 07 00 00 20 00 00 00      	add64 r7, 0x20
    5be8: 15 07 ea ff 20 00 00 00      	jeq r7, 0x20, -0x16 <entrypoint+0x5318>
    5bf0: 7b 9a 38 f7 00 00 00 00      	stxdw [r10 - 0x8c8], r9
    5bf8: 79 68 00 00 00 00 00 00      	ldxdw r8, [r6 + 0x0]
    5c00: 79 a9 30 f7 00 00 00 00      	ldxdw r9, [r10 - 0x8d0]
    5c08: 5d 98 f6 ff 00 00 00 00      	jne r8, r9, -0xa <entrypoint+0x5398>
    5c10: 79 a8 28 f7 00 00 00 00      	ldxdw r8, [r10 - 0x8d8]
    5c18: 79 88 10 00 00 00 00 00      	ldxdw r8, [r8 + 0x10]
    5c20: 79 69 08 00 00 00 00 00      	ldxdw r9, [r6 + 0x8]
    5c28: 5d 89 f2 ff 00 00 00 00      	jne r9, r8, -0xe <entrypoint+0x5398>
    5c30: 79 a8 28 f7 00 00 00 00      	ldxdw r8, [r10 - 0x8d8]
    5c38: 79 88 18 00 00 00 00 00      	ldxdw r8, [r8 + 0x18]
    5c40: 79 69 10 00 00 00 00 00      	ldxdw r9, [r6 + 0x10]
    5c48: 5d 89 ee ff 00 00 00 00      	jne r9, r8, -0x12 <entrypoint+0x5398>
    5c50: 79 a8 28 f7 00 00 00 00      	ldxdw r8, [r10 - 0x8d8]
    5c58: 79 88 20 00 00 00 00 00      	ldxdw r8, [r8 + 0x20]
    5c60: 79 66 18 00 00 00 00 00      	ldxdw r6, [r6 + 0x18]
    5c68: 5d 86 ea ff 00 00 00 00      	jne r6, r8, -0x16 <entrypoint+0x5398>
    5c70: 25 01 4e 11 0a 00 00 00      	jgt r1, 0xa, +0x114e <entrypoint+0xdec0>
    5c78: bf a6 00 00 00 00 00 00      	mov64 r6, r10
    5c80: 07 06 00 00 e0 ff ff ff      	add64 r6, -0x20
    5c88: 0f 16 00 00 00 00 00 00      	add64 r6, r1
    5c90: 71 68 00 00 00 00 00 00      	ldxb r8, [r6 + 0x0]
    5c98: 55 08 e4 ff 00 00 00 00      	jne r8, 0x0, -0x1c <entrypoint+0x5398>
    5ca0: 79 a8 28 f7 00 00 00 00      	ldxdw r8, [r10 - 0x8d8]
    5ca8: 71 88 01 00 00 00 00 00      	ldxb r8, [r8 + 0x1]
    5cb0: 15 08 02 01 00 00 00 00      	jeq r8, 0x0, +0x102 <entrypoint+0x5ca0>
    5cb8: 72 06 00 00 01 00 00 00      	stb [r6 + 0x0], 0x1
    5cc0: 79 a6 18 f7 00 00 00 00      	ldxdw r6, [r10 - 0x8e8]
    5cc8: 07 06 00 00 01 00 00 00      	add64 r6, 0x1
    5cd0: 7b 6a 18 f7 00 00 00 00      	stxdw [r10 - 0x8e8], r6
    5cd8: 05 00 dc ff 00 00 00 00      	ja -0x24 <entrypoint+0x5398>
    5ce0: 79 81 30 00 00 00 00 00      	ldxdw r1, [r8 + 0x30]
    5ce8: 18 06 00 00 18 42 5d bc 00 00 00 00 e4 6c cd da      	lddw r6, -0x2532931b43a2bde8
    5cf8: 5d 61 08 00 00 00 00 00      	jne r1, r6, +0x8 <entrypoint+0x5518>
    5d00: 79 81 38 00 00 00 00 00      	ldxdw r1, [r8 + 0x38]
    5d08: 18 06 00 00 b6 1a fc 4d 00 00 00 00 83 b9 0d 27      	lddw r6, 0x270db9834dfc1ab6
    5d18: 5d 61 04 00 00 00 00 00      	jne r1, r6, +0x4 <entrypoint+0x5518>
    5d20: 79 81 40 00 00 00 00 00      	ldxdw r1, [r8 + 0x40]
    5d28: 18 06 00 00 fe bd f9 28 00 00 00 00 d8 a1 8b fc      	lddw r6, -0x3745e27d7064202
    5d38: 1d 61 a6 01 00 00 00 00      	jeq r1, r6, +0x1a6 <entrypoint+0x6248>
    5d40: 71 81 01 00 00 00 00 00      	ldxb r1, [r8 + 0x1]
    5d48: 15 01 1b 02 00 00 00 00      	jeq r1, 0x0, +0x21b <entrypoint+0x6600>
    5d50: 15 05 66 01 00 00 00 00      	jeq r5, 0x0, +0x166 <entrypoint+0x6060>
    5d58: 1d 34 65 01 00 00 00 00      	jeq r4, r3, +0x165 <entrypoint+0x6060>
    5d60: 1f 50 00 00 00 00 00 00      	sub64 r0, r5
    5d68: 7b 04 98 00 00 00 00 00      	stxdw [r4 + 0x98], r0
    5d70: 79 31 50 00 00 00 00 00      	ldxdw r1, [r3 + 0x50]
    5d78: 55 01 ff 01 a5 00 00 00      	jne r1, 0xa5, +0x1ff <entrypoint+0x6550>
    5d80: 79 31 98 00 00 00 00 00      	ldxdw r1, [r3 + 0x98]
    5d88: 0f 51 00 00 00 00 00 00      	add64 r1, r5
    5d90: 7b 13 98 00 00 00 00 00      	stxdw [r3 + 0x98], r1
    5d98: 71 41 c5 00 00 00 00 00      	ldxb r1, [r4 + 0xc5]
    5da0: 55 01 7c 01 01 00 00 00      	jne r1, 0x1, +0x17c <entrypoint+0x6160>
    5da8: 79 41 48 00 00 00 00 00      	ldxdw r1, [r4 + 0x48]
    5db0: 1f 51 00 00 00 00 00 00      	sub64 r1, r5
    5db8: 7b 14 48 00 00 00 00 00      	stxdw [r4 + 0x48], r1
    5dc0: 79 31 48 00 00 00 00 00      	ldxdw r1, [r3 + 0x48]
    5dc8: 0f 51 00 00 00 00 00 00      	add64 r1, r5
    5dd0: 7b 13 48 00 00 00 00 00      	stxdw [r3 + 0x48], r1
    5dd8: 7b 2a d8 f6 00 00 00 00      	stxdw [r10 - 0x928], r2
    5de0: b7 00 00 00 1a 00 00 00      	mov64 r0, 0x1a
    5de8: 05 00 c2 fc 00 00 00 00      	ja -0x33e <entrypoint+0x3bd8>
    5df0: 71 01 5a 00 00 00 00 00      	ldxb r1, [r0 + 0x5a]
    5df8: 55 01 6f 0f 01 00 00 00      	jne r1, 0x1, +0xf6f <entrypoint+0xd150>
    5e00: b7 01 00 00 00 00 00 00      	mov64 r1, 0x0
    5e08: 7b 1a 18 f7 00 00 00 00      	stxdw [r10 - 0x8e8], r1
    5e10: 62 0a e7 ff 00 00 00 00      	stw [r10 - 0x19], 0x0
    5e18: 7a 0a e0 ff 00 00 00 00      	stdw [r10 - 0x20], 0x0
    5e20: 79 a1 d8 f7 00 00 00 00      	ldxdw r1, [r10 - 0x828]
    5e28: 15 01 c3 00 03 00 00 00      	jeq r1, 0x3, +0xc3 <entrypoint+0x5c20>
    5e30: 71 01 59 00 00 00 00 00      	ldxb r1, [r0 + 0x59]
    5e38: b7 06 00 00 01 00 00 00      	mov64 r6, 0x1
    5e40: 55 01 01 00 00 00 00 00      	jne r1, 0x0, +0x1 <entrypoint+0x5628>
    5e48: b7 06 00 00 00 00 00 00      	mov64 r6, 0x0
    5e50: 25 01 5a 0f 0b 00 00 00      	jgt r1, 0xb, +0xf5a <entrypoint+0xd100>
    5e58: 15 01 bb 00 00 00 00 00      	jeq r1, 0x0, +0xbb <entrypoint+0x5c10>
    5e60: 79 a7 d8 f7 00 00 00 00      	ldxdw r7, [r10 - 0x828]
    5e68: 67 07 00 00 03 00 00 00      	lsh64 r7, 0x3
    5e70: 79 a8 e0 f7 00 00 00 00      	ldxdw r8, [r10 - 0x820]
    5e78: bf 89 00 00 00 00 00 00      	mov64 r9, r8
    5e80: 0f 79 00 00 00 00 00 00      	add64 r9, r7
    5e88: 7b 9a f8 f6 00 00 00 00      	stxdw [r10 - 0x908], r9
    5e90: 67 01 00 00 05 00 00 00      	lsh64 r1, 0x5
    5e98: 67 06 00 00 05 00 00 00      	lsh64 r6, 0x5
    5ea0: bf 07 00 00 00 00 00 00      	mov64 r7, r0
    5ea8: 07 07 00 00 5b 00 00 00      	add64 r7, 0x5b
    5eb0: 7b 7a 08 f7 00 00 00 00      	stxdw [r10 - 0x8f8], r7
    5eb8: 0f 67 00 00 00 00 00 00      	add64 r7, r6
    5ec0: 7b 7a 00 f7 00 00 00 00      	stxdw [r10 - 0x900], r7
    5ec8: 1f 16 00 00 00 00 00 00      	sub64 r6, r1
    5ed0: 7b 6a 10 f7 00 00 00 00      	stxdw [r10 - 0x8f0], r6
    5ed8: b7 01 00 00 00 00 00 00      	mov64 r1, 0x0
    5ee0: 7b 1a 18 f7 00 00 00 00      	stxdw [r10 - 0x8e8], r1
    5ee8: bf 81 00 00 00 00 00 00      	mov64 r1, r8
    5ef0: 07 01 00 00 20 00 00 00      	add64 r1, 0x20
    5ef8: 05 00 05 00 00 00 00 00      	ja +0x5 <entrypoint+0x5700>
    5f00: 79 a6 88 f7 00 00 00 00      	ldxdw r6, [r10 - 0x878]
    5f08: bf 61 00 00 00 00 00 00      	mov64 r1, r6
    5f10: 07 01 00 00 08 00 00 00      	add64 r1, 0x8
    5f18: 79 a7 f8 f6 00 00 00 00      	ldxdw r7, [r10 - 0x908]
    5f20: 1d 76 a4 00 00 00 00 00      	jeq r6, r7, +0xa4 <entrypoint+0x5c20>
    5f28: 79 a7 88 f7 00 00 00 00      	ldxdw r7, [r10 - 0x878]
    5f30: 7b 1a 88 f7 00 00 00 00      	stxdw [r10 - 0x878], r1
    5f38: 79 71 00 00 00 00 00 00      	ldxdw r1, [r7 + 0x0]
    5f40: 7b 1a 28 f7 00 00 00 00      	stxdw [r10 - 0x8d8], r1
    5f48: 79 11 08 00 00 00 00 00      	ldxdw r1, [r1 + 0x8]
    5f50: 7b 1a 30 f7 00 00 00 00      	stxdw [r10 - 0x8d0], r1
    5f58: 79 a8 10 f7 00 00 00 00      	ldxdw r8, [r10 - 0x8f0]
    5f60: 79 a7 00 f7 00 00 00 00      	ldxdw r7, [r10 - 0x900]
    5f68: b7 01 00 00 00 00 00 00      	mov64 r1, 0x0
    5f70: 79 a9 08 f7 00 00 00 00      	ldxdw r9, [r10 - 0x8f8]
    5f78: 05 00 06 00 00 00 00 00      	ja +0x6 <entrypoint+0x5788>
    5f80: 79 a9 38 f7 00 00 00 00      	ldxdw r9, [r10 - 0x8c8]
    5f88: bf 97 00 00 00 00 00 00      	mov64 r7, r9
    5f90: 07 07 00 00 20 00 00 00      	add64 r7, 0x20
    5f98: 07 01 00 00 01 00 00 00      	add64 r1, 0x1
    5fa0: 07 08 00 00 20 00 00 00      	add64 r8, 0x20
    5fa8: 15 08 ea ff 20 00 00 00      	jeq r8, 0x20, -0x16 <entrypoint+0x56d8>
    5fb0: 7b 7a 38 f7 00 00 00 00      	stxdw [r10 - 0x8c8], r7
    5fb8: 79 97 00 00 00 00 00 00      	ldxdw r7, [r9 + 0x0]
    5fc0: 79 a6 30 f7 00 00 00 00      	ldxdw r6, [r10 - 0x8d0]
    5fc8: 5d 67 f6 ff 00 00 00 00      	jne r7, r6, -0xa <entrypoint+0x5758>
    5fd0: 79 a6 28 f7 00 00 00 00      	ldxdw r6, [r10 - 0x8d8]
    5fd8: 79 66 10 00 00 00 00 00      	ldxdw r6, [r6 + 0x10]
    5fe0: 79 97 08 00 00 00 00 00      	ldxdw r7, [r9 + 0x8]
    5fe8: 5d 67 f2 ff 00 00 00 00      	jne r7, r6, -0xe <entrypoint+0x5758>
    5ff0: 79 a6 28 f7 00 00 00 00      	ldxdw r6, [r10 - 0x8d8]
    5ff8: 79 66 18 00 00 00 00 00      	ldxdw r6, [r6 + 0x18]
    6000: 79 97 10 00 00 00 00 00      	ldxdw r7, [r9 + 0x10]
    6008: 5d 67 ee ff 00 00 00 00      	jne r7, r6, -0x12 <entrypoint+0x5758>
    6010: 79 a6 28 f7 00 00 00 00      	ldxdw r6, [r10 - 0x8d8]
    6018: 79 67 20 00 00 00 00 00      	ldxdw r7, [r6 + 0x20]
    6020: 79 99 18 00 00 00 00 00      	ldxdw r9, [r9 + 0x18]
    6028: 5d 79 ea ff 00 00 00 00      	jne r9, r7, -0x16 <entrypoint+0x5758>
    6030: 25 01 d6 10 0a 00 00 00      	jgt r1, 0xa, +0x10d6 <entrypoint+0xdec0>
    6038: bf a7 00 00 00 00 00 00      	mov64 r7, r10
    6040: 07 07 00 00 e0 ff ff ff      	add64 r7, -0x20
    6048: 0f 17 00 00 00 00 00 00      	add64 r7, r1
    6050: 71 79 00 00 00 00 00 00      	ldxb r9, [r7 + 0x0]
    6058: 55 09 e4 ff 00 00 00 00      	jne r9, 0x0, -0x1c <entrypoint+0x5758>
    6060: 79 a6 28 f7 00 00 00 00      	ldxdw r6, [r10 - 0x8d8]
    6068: 71 69 01 00 00 00 00 00      	ldxb r9, [r6 + 0x1]
    6070: 15 09 aa 0e 00 00 00 00      	jeq r9, 0x0, +0xeaa <entrypoint+0xcda0>
    6078: 72 07 00 00 01 00 00 00      	stb [r7 + 0x0], 0x1
    6080: 79 a6 18 f7 00 00 00 00      	ldxdw r6, [r10 - 0x8e8]
    6088: 07 06 00 00 01 00 00 00      	add64 r6, 0x1
    6090: 7b 6a 18 f7 00 00 00 00      	stxdw [r10 - 0x8e8], r6
    6098: 05 00 dc ff 00 00 00 00      	ja -0x24 <entrypoint+0x5758>
    60a0: 71 61 5a 00 00 00 00 00      	ldxb r1, [r6 + 0x5a]
    60a8: 55 01 1d 0f 01 00 00 00      	jne r1, 0x1, +0xf1d <entrypoint+0xd170>
    60b0: b7 01 00 00 00 00 00 00      	mov64 r1, 0x0
    60b8: 7b 1a 18 f7 00 00 00 00      	stxdw [r10 - 0x8e8], r1
    60c0: 62 0a e7 ff 00 00 00 00      	stw [r10 - 0x19], 0x0
    60c8: 7a 0a e0 ff 00 00 00 00      	stdw [r10 - 0x20], 0x0
    60d0: 79 a1 d8 f7 00 00 00 00      	ldxdw r1, [r10 - 0x828]
    60d8: 55 01 09 00 03 00 00 00      	jne r1, 0x3, +0x9 <entrypoint+0x5900>
    60e0: 07 06 00 00 58 00 00 00      	add64 r6, 0x58
    60e8: 71 61 00 00 00 00 00 00      	ldxb r1, [r6 + 0x0]
    60f0: 79 a2 18 f7 00 00 00 00      	ldxdw r2, [r10 - 0x8e8]
    60f8: 57 02 00 00 ff 00 00 00      	and64 r2, 0xff
    6100: ad 12 98 0e 00 00 00 00      	jlt r2, r1, +0xe98 <entrypoint+0xcda0>
    6108: 7b 6a a8 f6 00 00 00 00      	stxdw [r10 - 0x958], r6
    6110: 79 41 d1 00 00 00 00 00      	ldxdw r1, [r4 + 0xd1]
    6118: 3d 51 98 fc 00 00 00 00      	jge r1, r5, -0x368 <entrypoint+0x3db8>
    6120: 05 00 a2 08 00 00 00 00      	ja +0x8a2 <entrypoint+0x9e10>
    6128: 71 61 59 00 00 00 00 00      	ldxb r1, [r6 + 0x59]
    6130: b7 07 00 00 01 00 00 00      	mov64 r7, 0x1
    6138: 7b 1a 10 f7 00 00 00 00      	stxdw [r10 - 0x8f0], r1
    6140: 55 01 01 00 00 00 00 00      	jne r1, 0x0, +0x1 <entrypoint+0x5928>
    6148: b7 07 00 00 00 00 00 00      	mov64 r7, 0x0
    6150: 79 a1 10 f7 00 00 00 00      	ldxdw r1, [r10 - 0x8f0]
    6158: 25 01 cb 0f 0b 00 00 00      	jgt r1, 0xb, +0xfcb <entrypoint+0xd790>
    6160: 79 a1 d8 f7 00 00 00 00      	ldxdw r1, [r10 - 0x828]
    6168: 67 01 00 00 03 00 00 00      	lsh64 r1, 0x3
    6170: 79 a2 e0 f7 00 00 00 00      	ldxdw r2, [r10 - 0x820]
    6178: bf 29 00 00 00 00 00 00      	mov64 r9, r2
    6180: 0f 19 00 00 00 00 00 00      	add64 r9, r1
    6188: 7b 9a 08 f7 00 00 00 00      	stxdw [r10 - 0x8f8], r9
    6190: 79 a1 10 f7 00 00 00 00      	ldxdw r1, [r10 - 0x8f0]
    6198: 67 01 00 00 05 00 00 00      	lsh64 r1, 0x5
    61a0: 67 07 00 00 05 00 00 00      	lsh64 r7, 0x5
    61a8: bf 69 00 00 00 00 00 00      	mov64 r9, r6
    61b0: 07 09 00 00 5b 00 00 00      	add64 r9, 0x5b
    61b8: 7b 9a f8 f6 00 00 00 00      	stxdw [r10 - 0x908], r9
    61c0: 0f 79 00 00 00 00 00 00      	add64 r9, r7
    61c8: 7b 9a e8 f6 00 00 00 00      	stxdw [r10 - 0x918], r9
    61d0: 1f 17 00 00 00 00 00 00      	sub64 r7, r1
    61d8: 7b 7a 00 f7 00 00 00 00      	stxdw [r10 - 0x900], r7
    61e0: b7 01 00 00 00 00 00 00      	mov64 r1, 0x0
    61e8: 7b 1a 18 f7 00 00 00 00      	stxdw [r10 - 0x8e8], r1
    61f0: bf 21 00 00 00 00 00 00      	mov64 r1, r2
    61f8: 07 01 00 00 20 00 00 00      	add64 r1, 0x20
    6200: 05 00 04 00 00 00 00 00      	ja +0x4 <entrypoint+0x5a00>
    6208: bf 81 00 00 00 00 00 00      	mov64 r1, r8
    6210: 07 01 00 00 08 00 00 00      	add64 r1, 0x8
    6218: 79 a2 08 f7 00 00 00 00      	ldxdw r2, [r10 - 0x8f8]
    6220: 1d 28 d7 ff 00 00 00 00      	jeq r8, r2, -0x29 <entrypoint+0x58b8>
    6228: bf 87 00 00 00 00 00 00      	mov64 r7, r8
    6230: bf 18 00 00 00 00 00 00      	mov64 r8, r1
    6238: 79 a1 10 f7 00 00 00 00      	ldxdw r1, [r10 - 0x8f0]
    6240: 15 01 f8 ff 00 00 00 00      	jeq r1, 0x0, -0x8 <entrypoint+0x59e0>
    6248: b7 01 00 00 00 00 00 00      	mov64 r1, 0x0
    6250: 7b 1a b0 f7 00 00 00 00      	stxdw [r10 - 0x850], r1
    6258: 79 71 00 00 00 00 00 00      	ldxdw r1, [r7 + 0x0]
    6260: 7b 1a 28 f7 00 00 00 00      	stxdw [r10 - 0x8d8], r1
    6268: 79 11 08 00 00 00 00 00      	ldxdw r1, [r1 + 0x8]
    6270: 7b 1a 30 f7 00 00 00 00      	stxdw [r10 - 0x8d0], r1
    6278: 79 a9 00 f7 00 00 00 00      	ldxdw r9, [r10 - 0x900]
    6280: 79 a7 e8 f6 00 00 00 00      	ldxdw r7, [r10 - 0x918]
    6288: 79 a2 f8 f6 00 00 00 00      	ldxdw r2, [r10 - 0x908]
    6290: 05 00 0c 00 00 00 00 00      	ja +0xc <entrypoint+0x5ad0>
    6298: 72 01 00 00 01 00 00 00      	stb [r1 + 0x0], 0x1
    62a0: 79 a1 18 f7 00 00 00 00      	ldxdw r1, [r10 - 0x8e8]
    62a8: 07 01 00 00 01 00 00 00      	add64 r1, 0x1
    62b0: 7b 1a 18 f7 00 00 00 00      	stxdw [r10 - 0x8e8], r1
    62b8: 79 a2 38 f7 00 00 00 00      	ldxdw r2, [r10 - 0x8c8]
    62c0: bf 27 00 00 00 00 00 00      	mov64 r7, r2
    62c8: 07 07 00 00 20 00 00 00      	add64 r7, 0x20
    62d0: 79 a1 b0 f7 00 00 00 00      	ldxdw r1, [r10 - 0x850]
    62d8: 07 01 00 00 01 00 00 00      	add64 r1, 0x1
    62e0: 7b 1a b0 f7 00 00 00 00      	stxdw [r10 - 0x850], r1
    62e8: 07 09 00 00 20 00 00 00      	add64 r9, 0x20
    62f0: 15 09 e2 ff 20 00 00 00      	jeq r9, 0x20, -0x1e <entrypoint+0x59e0>
    62f8: bf 21 00 00 00 00 00 00      	mov64 r1, r2
    6300: 7b 7a 38 f7 00 00 00 00      	stxdw [r10 - 0x8c8], r7
    6308: 79 17 00 00 00 00 00 00      	ldxdw r7, [r1 + 0x0]
    6310: 79 a2 30 f7 00 00 00 00      	ldxdw r2, [r10 - 0x8d0]
    6318: 5d 27 f3 ff 00 00 00 00      	jne r7, r2, -0xd <entrypoint+0x5a90>
    6320: 79 a7 28 f7 00 00 00 00      	ldxdw r7, [r10 - 0x8d8]
    6328: 79 72 10 00 00 00 00 00      	ldxdw r2, [r7 + 0x10]
    6330: 79 17 08 00 00 00 00 00      	ldxdw r7, [r1 + 0x8]
    6338: 5d 27 ef ff 00 00 00 00      	jne r7, r2, -0x11 <entrypoint+0x5a90>
    6340: 79 a7 28 f7 00 00 00 00      	ldxdw r7, [r10 - 0x8d8]
    6348: 79 72 18 00 00 00 00 00      	ldxdw r2, [r7 + 0x18]
    6350: 79 17 10 00 00 00 00 00      	ldxdw r7, [r1 + 0x10]
    6358: 5d 27 eb ff 00 00 00 00      	jne r7, r2, -0x15 <entrypoint+0x5a90>
    6360: 79 a7 28 f7 00 00 00 00      	ldxdw r7, [r10 - 0x8d8]
    6368: 79 77 20 00 00 00 00 00      	ldxdw r7, [r7 + 0x20]
    6370: 79 11 18 00 00 00 00 00      	ldxdw r1, [r1 + 0x18]
    6378: 5d 71 e7 ff 00 00 00 00      	jne r1, r7, -0x19 <entrypoint+0x5a90>
    6380: 79 a1 b0 f7 00 00 00 00      	ldxdw r1, [r10 - 0x850]
    6388: 25 01 93 0f 0a 00 00 00      	jgt r1, 0xa, +0xf93 <entrypoint+0xd800>
    6390: bf a1 00 00 00 00 00 00      	mov64 r1, r10
    6398: 07 01 00 00 e0 ff ff ff      	add64 r1, -0x20
    63a0: 79 a2 b0 f7 00 00 00 00      	ldxdw r2, [r10 - 0x850]
    63a8: 0f 21 00 00 00 00 00 00      	add64 r1, r2
    63b0: 71 17 00 00 00 00 00 00      	ldxb r7, [r1 + 0x0]
    63b8: 55 07 df ff 00 00 00 00      	jne r7, 0x0, -0x21 <entrypoint+0x5a90>
    63c0: 79 a7 28 f7 00 00 00 00      	ldxdw r7, [r10 - 0x8d8]
    63c8: 71 77 01 00 00 00 00 00      	ldxb r7, [r7 + 0x1]
    63d0: 55 07 d8 ff 00 00 00 00      	jne r7, 0x0, -0x28 <entrypoint+0x5a70>
    63d8: 05 00 3d 0e 00 00 00 00      	ja +0xe3d <entrypoint+0xcda0>
    63e0: b7 00 00 00 09 00 00 00      	mov64 r0, 0x9
    63e8: 79 a9 b8 f6 00 00 00 00      	ldxdw r9, [r10 - 0x948]
    63f0: 05 00 01 fc 00 00 00 00      	ja -0x3ff <entrypoint+0x3bd8>
    63f8: 18 01 00 00 00 00 00 00 00 00 00 00 ff ff ff ff      	lddw r1, -0x100000000
    6408: 79 a2 b8 f6 00 00 00 00      	ldxdw r2, [r10 - 0x948]
    6410: 5f 12 00 00 00 00 00 00      	and64 r2, r1
    6418: 7b 2a b8 f6 00 00 00 00      	stxdw [r10 - 0x948], r2
    6420: b7 00 00 00 03 00 00 00      	mov64 r0, 0x3
    6428: 79 a9 b8 f6 00 00 00 00      	ldxdw r9, [r10 - 0x948]
    6430: 05 00 f9 fb 00 00 00 00      	ja -0x407 <entrypoint+0x3bd8>
    6438: b7 01 00 00 00 00 00 00      	mov64 r1, 0x0
    6440: 7b 1a 18 f7 00 00 00 00      	stxdw [r10 - 0x8e8], r1
    6448: 07 00 00 00 58 00 00 00      	add64 r0, 0x58
    6450: 71 01 00 00 00 00 00 00      	ldxb r1, [r0 + 0x0]
    6458: 79 a6 18 f7 00 00 00 00      	ldxdw r6, [r10 - 0x8e8]
    6460: 57 06 00 00 ff 00 00 00      	and64 r6, 0xff
    6468: ad 16 2b 0e 00 00 00 00      	jlt r6, r1, +0xe2b <entrypoint+0xcda0>
    6470: 7b 0a b0 f6 00 00 00 00      	stxdw [r10 - 0x950], r0
    6478: 79 31 d1 00 00 00 00 00      	ldxdw r1, [r3 + 0xd1]
    6480: 3d 41 15 fc 00 00 00 00      	jge r1, r4, -0x3eb <entrypoint+0x3d08>
    6488: 05 00 e0 07 00 00 00 00      	ja +0x7e0 <entrypoint+0x9b68>
    6490: b7 01 00 00 00 00 00 00      	mov64 r1, 0x0
    6498: 7b 1a 18 f7 00 00 00 00      	stxdw [r10 - 0x8e8], r1
    64a0: 79 a1 b8 f6 00 00 00 00      	ldxdw r1, [r10 - 0x948]
    64a8: 71 11 00 00 00 00 00 00      	ldxb r1, [r1 + 0x0]
    64b0: 79 a0 18 f7 00 00 00 00      	ldxdw r0, [r10 - 0x8e8]
    64b8: 57 00 00 00 ff 00 00 00      	and64 r0, 0xff
    64c0: 3d 10 e0 fb 00 00 00 00      	jge r0, r1, -0x420 <entrypoint+0x3ba0>
    64c8: b7 00 00 00 07 00 00 00      	mov64 r0, 0x7
    64d0: 05 00 e5 fb 00 00 00 00      	ja -0x41b <entrypoint+0x3bd8>
    64d8: 71 01 5a 00 00 00 00 00      	ldxb r1, [r0 + 0x5a]
    64e0: 15 01 97 00 00 00 00 00      	jeq r1, 0x0, +0x97 <entrypoint+0x6178>
    64e8: 55 01 99 00 01 00 00 00      	jne r1, 0x1, +0x99 <entrypoint+0x6190>
    64f0: bf 01 00 00 00 00 00 00      	mov64 r1, r0
    64f8: 07 01 00 00 58 00 00 00      	add64 r1, 0x58
    6500: 7b 1a a0 f6 00 00 00 00      	stxdw [r10 - 0x960], r1
    6508: b7 01 00 00 00 00 00 00      	mov64 r1, 0x0
    6510: 7b 1a 18 f7 00 00 00 00      	stxdw [r10 - 0x8e8], r1
    6518: 62 0a e7 ff 00 00 00 00      	stw [r10 - 0x19], 0x0
    6520: 7a 0a e0 ff 00 00 00 00      	stdw [r10 - 0x20], 0x0
    6528: 79 a1 d8 f7 00 00 00 00      	ldxdw r1, [r10 - 0x828]
    6530: 15 01 a1 00 03 00 00 00      	jeq r1, 0x3, +0xa1 <entrypoint+0x6218>
    6538: 71 01 59 00 00 00 00 00      	ldxb r1, [r0 + 0x59]
    6540: b7 07 00 00 01 00 00 00      	mov64 r7, 0x1
    6548: 7b 7a 10 f7 00 00 00 00      	stxdw [r10 - 0x8f0], r7
    6550: 55 01 02 00 00 00 00 00      	jne r1, 0x0, +0x2 <entrypoint+0x5d40>
    6558: b7 07 00 00 00 00 00 00      	mov64 r7, 0x0
    6560: 7b 7a 10 f7 00 00 00 00      	stxdw [r10 - 0x8f0], r7
    6568: 25 01 77 0e 0b 00 00 00      	jgt r1, 0xb, +0xe77 <entrypoint+0xd100>
    6570: 15 01 97 00 00 00 00 00      	jeq r1, 0x0, +0x97 <entrypoint+0x6208>
    6578: 79 a9 d8 f7 00 00 00 00      	ldxdw r9, [r10 - 0x828]
    6580: 67 09 00 00 03 00 00 00      	lsh64 r9, 0x3
    6588: 79 a8 e0 f7 00 00 00 00      	ldxdw r8, [r10 - 0x820]
    6590: bf 87 00 00 00 00 00 00      	mov64 r7, r8
    6598: 0f 97 00 00 00 00 00 00      	add64 r7, r9
    65a0: 7b 7a 00 f7 00 00 00 00      	stxdw [r10 - 0x900], r7
    65a8: 67 01 00 00 05 00 00 00      	lsh64 r1, 0x5
    65b0: 79 a9 10 f7 00 00 00 00      	ldxdw r9, [r10 - 0x8f0]
    65b8: 67 09 00 00 05 00 00 00      	lsh64 r9, 0x5
    65c0: 07 00 00 00 5b 00 00 00      	add64 r0, 0x5b
    65c8: bf 07 00 00 00 00 00 00      	mov64 r7, r0
    65d0: 0f 97 00 00 00 00 00 00      	add64 r7, r9
    65d8: 7b 7a 08 f7 00 00 00 00      	stxdw [r10 - 0x8f8], r7
    65e0: 1f 19 00 00 00 00 00 00      	sub64 r9, r1
    65e8: 7b 9a 10 f7 00 00 00 00      	stxdw [r10 - 0x8f0], r9
    65f0: b7 01 00 00 00 00 00 00      	mov64 r1, 0x0
    65f8: 7b 1a 18 f7 00 00 00 00      	stxdw [r10 - 0x8e8], r1
    6600: bf 81 00 00 00 00 00 00      	mov64 r1, r8
    6608: 07 01 00 00 20 00 00 00      	add64 r1, 0x20
    6610: 05 00 05 00 00 00 00 00      	ja +0x5 <entrypoint+0x5e18>
    6618: 79 a7 b0 f7 00 00 00 00      	ldxdw r7, [r10 - 0x850]
    6620: bf 71 00 00 00 00 00 00      	mov64 r1, r7
    6628: 07 01 00 00 08 00 00 00      	add64 r1, 0x8
    6630: 79 a8 00 f7 00 00 00 00      	ldxdw r8, [r10 - 0x900]
    6638: 1d 87 80 00 00 00 00 00      	jeq r7, r8, +0x80 <entrypoint+0x6218>
    6640: 79 a7 b0 f7 00 00 00 00      	ldxdw r7, [r10 - 0x850]
    6648: 7b 1a b0 f7 00 00 00 00      	stxdw [r10 - 0x850], r1
    6650: 79 71 00 00 00 00 00 00      	ldxdw r1, [r7 + 0x0]
    6658: bf 16 00 00 00 00 00 00      	mov64 r6, r1
    6660: 79 11 08 00 00 00 00 00      	ldxdw r1, [r1 + 0x8]
    6668: 7b 1a 28 f7 00 00 00 00      	stxdw [r10 - 0x8d8], r1
    6670: 79 a7 10 f7 00 00 00 00      	ldxdw r7, [r10 - 0x8f0]
    6678: 79 a9 08 f7 00 00 00 00      	ldxdw r9, [r10 - 0x8f8]
    6680: b7 01 00 00 00 00 00 00      	mov64 r1, 0x0
    6688: 7b 1a 30 f7 00 00 00 00      	stxdw [r10 - 0x8d0], r1
    6690: 7b 0a 38 f7 00 00 00 00      	stxdw [r10 - 0x8c8], r0
    6698: 05 00 07 00 00 00 00 00      	ja +0x7 <entrypoint+0x5eb0>
    66a0: 79 a9 38 f7 00 00 00 00      	ldxdw r9, [r10 - 0x8c8]
    66a8: 07 09 00 00 20 00 00 00      	add64 r9, 0x20
    66b0: 79 a1 30 f7 00 00 00 00      	ldxdw r1, [r10 - 0x8d0]
    66b8: 07 01 00 00 01 00 00 00      	add64 r1, 0x1
    66c0: 7b 1a 30 f7 00 00 00 00      	stxdw [r10 - 0x8d0], r1
    66c8: 07 07 00 00 20 00 00 00      	add64 r7, 0x20
    66d0: 15 07 e8 ff 20 00 00 00      	jeq r7, 0x20, -0x18 <entrypoint+0x5df0>
    66d8: 79 a1 38 f7 00 00 00 00      	ldxdw r1, [r10 - 0x8c8]
    66e0: 7b 9a 38 f7 00 00 00 00      	stxdw [r10 - 0x8c8], r9
    66e8: 79 18 00 00 00 00 00 00      	ldxdw r8, [r1 + 0x0]
    66f0: 79 a9 28 f7 00 00 00 00      	ldxdw r9, [r10 - 0x8d8]
    66f8: 5d 98 f4 ff 00 00 00 00      	jne r8, r9, -0xc <entrypoint+0x5e78>
    6700: 79 68 10 00 00 00 00 00      	ldxdw r8, [r6 + 0x10]
    6708: 79 19 08 00 00 00 00 00      	ldxdw r9, [r1 + 0x8]
    6710: 5d 89 f1 ff 00 00 00 00      	jne r9, r8, -0xf <entrypoint+0x5e78>
    6718: 79 68 18 00 00 00 00 00      	ldxdw r8, [r6 + 0x18]
    6720: 79 19 10 00 00 00 00 00      	ldxdw r9, [r1 + 0x10]
    6728: 5d 89 ee ff 00 00 00 00      	jne r9, r8, -0x12 <entrypoint+0x5e78>
    6730: 79 68 20 00 00 00 00 00      	ldxdw r8, [r6 + 0x20]
    6738: 79 11 18 00 00 00 00 00      	ldxdw r1, [r1 + 0x18]
    6740: 5d 81 eb ff 00 00 00 00      	jne r1, r8, -0x15 <entrypoint+0x5e78>
    6748: 79 a1 30 f7 00 00 00 00      	ldxdw r1, [r10 - 0x8d0]
    6750: 25 01 24 0f 0a 00 00 00      	jgt r1, 0xa, +0xf24 <entrypoint+0xd850>
    6758: bf a1 00 00 00 00 00 00      	mov64 r1, r10
    6760: 07 01 00 00 e0 ff ff ff      	add64 r1, -0x20
    6768: 79 a8 30 f7 00 00 00 00      	ldxdw r8, [r10 - 0x8d0]
    6770: 0f 81 00 00 00 00 00 00      	add64 r1, r8
    6778: 71 18 00 00 00 00 00 00      	ldxb r8, [r1 + 0x0]
    6780: 55 08 e3 ff 00 00 00 00      	jne r8, 0x0, -0x1d <entrypoint+0x5e78>
    6788: 71 68 01 00 00 00 00 00      	ldxb r8, [r6 + 0x1]
    6790: 15 08 a6 ff 00 00 00 00      	jeq r8, 0x0, -0x5a <entrypoint+0x5ca0>
    6798: 72 01 00 00 01 00 00 00      	stb [r1 + 0x0], 0x1
    67a0: 79 a1 18 f7 00 00 00 00      	ldxdw r1, [r10 - 0x8e8]
    67a8: 07 01 00 00 01 00 00 00      	add64 r1, 0x1
    67b0: 7b 1a 18 f7 00 00 00 00      	stxdw [r10 - 0x8e8], r1
    67b8: 05 00 dc ff 00 00 00 00      	ja -0x24 <entrypoint+0x5e78>
    67c0: 79 81 30 00 00 00 00 00      	ldxdw r1, [r8 + 0x30]
    67c8: 18 07 00 00 18 42 5d bc 00 00 00 00 e4 6c cd da      	lddw r7, -0x2532931b43a2bde8
    67d8: 5d 71 08 00 00 00 00 00      	jne r1, r7, +0x8 <entrypoint+0x5ff8>
    67e0: 79 81 38 00 00 00 00 00      	ldxdw r1, [r8 + 0x38]
    67e8: 18 07 00 00 b6 1a fc 4d 00 00 00 00 83 b9 0d 27      	lddw r7, 0x270db9834dfc1ab6
    67f8: 5d 71 04 00 00 00 00 00      	jne r1, r7, +0x4 <entrypoint+0x5ff8>
    6800: 79 81 40 00 00 00 00 00      	ldxdw r1, [r8 + 0x40]
    6808: 18 07 00 00 fe bd f9 28 00 00 00 00 d8 a1 8b fc      	lddw r7, -0x3745e27d7064202
    6818: 1d 71 c4 00 00 00 00 00      	jeq r1, r7, +0xc4 <entrypoint+0x6618>
    6820: 71 81 01 00 00 00 00 00      	ldxb r1, [r8 + 0x1]
    6828: 15 01 bf 00 00 00 00 00      	jeq r1, 0x0, +0xbf <entrypoint+0x6600>
    6830: 79 41 d1 00 00 00 00 00      	ldxdw r1, [r4 + 0xd1]
    6838: 3d 51 02 00 00 00 00 00      	jge r1, r5, +0x2 <entrypoint+0x6028>
    6840: 7b 2a d8 f6 00 00 00 00      	stxdw [r10 - 0x928], r2
    6848: 05 00 0a fd 00 00 00 00      	ja -0x2f6 <entrypoint+0x4878>
    6850: 1d 34 06 00 00 00 00 00      	jeq r4, r3, +0x6 <entrypoint+0x6060>
    6858: bf 16 00 00 00 00 00 00      	mov64 r6, r1
    6860: 1f 56 00 00 00 00 00 00      	sub64 r6, r5
    6868: 7b 64 d1 00 00 00 00 00      	stxdw [r4 + 0xd1], r6
    6870: 5d 51 01 00 00 00 00 00      	jne r1, r5, +0x1 <entrypoint+0x6058>
    6878: 72 04 a0 00 00 00 00 00      	stb [r4 + 0xa0], 0x0
    6880: 55 05 9b fe 00 00 00 00      	jne r5, 0x0, -0x165 <entrypoint+0x5538>
    6888: 79 41 28 00 00 00 00 00      	ldxdw r1, [r4 + 0x28]
    6890: 18 05 00 00 06 dd f6 e1 00 00 00 00 d7 65 a1 93      	lddw r5, -0x6c5e9a281e0922fa
    68a0: 5d 51 2a 00 00 00 00 00      	jne r1, r5, +0x2a <entrypoint+0x61d0>
    68a8: 79 41 30 00 00 00 00 00      	ldxdw r1, [r4 + 0x30]
    68b0: 18 05 00 00 d9 cb e1 46 00 00 00 00 ce eb 79 ac      	lddw r5, -0x53861431b91e3427
    68c0: 5d 51 26 00 00 00 00 00      	jne r1, r5, +0x26 <entrypoint+0x61d0>
    68c8: 79 41 38 00 00 00 00 00      	ldxdw r1, [r4 + 0x38]
    68d0: 18 05 00 00 1c b4 85 ed 00 00 00 00 5f 5b 37 91      	lddw r5, -0x6ec8a4a0127a4be4
    68e0: 5d 51 22 00 00 00 00 00      	jne r1, r5, +0x22 <entrypoint+0x61d0>
    68e8: 79 41 40 00 00 00 00 00      	ldxdw r1, [r4 + 0x40]
    68f0: 18 04 00 00 3a 8c f5 85 00 00 00 00 7e ff 00 a9      	lddw r4, -0x56ff00817a0a73c6
    6900: 5d 41 1e 00 00 00 00 00      	jne r1, r4, +0x1e <entrypoint+0x61d0>
    6908: 79 31 28 00 00 00 00 00      	ldxdw r1, [r3 + 0x28]
    6910: 18 04 00 00 06 dd f6 e1 00 00 00 00 d7 65 a1 93      	lddw r4, -0x6c5e9a281e0922fa
    6920: 5d 41 1a 00 00 00 00 00      	jne r1, r4, +0x1a <entrypoint+0x61d0>
    6928: 79 31 30 00 00 00 00 00      	ldxdw r1, [r3 + 0x30]
    6930: 18 04 00 00 d9 cb e1 46 00 00 00 00 ce eb 79 ac      	lddw r4, -0x53861431b91e3427
    6940: 5d 41 16 00 00 00 00 00      	jne r1, r4, +0x16 <entrypoint+0x61d0>
    6948: 79 31 38 00 00 00 00 00      	ldxdw r1, [r3 + 0x38]
    6950: 18 04 00 00 1c b4 85 ed 00 00 00 00 5f 5b 37 91      	lddw r4, -0x6ec8a4a0127a4be4
    6960: 5d 41 12 00 00 00 00 00      	jne r1, r4, +0x12 <entrypoint+0x61d0>
    6968: 79 31 40 00 00 00 00 00      	ldxdw r1, [r3 + 0x40]
    6970: 18 03 00 00 3a 8c f5 85 00 00 00 00 7e ff 00 a9      	lddw r3, -0x56ff00817a0a73c6
    6980: 5d 31 0e 00 00 00 00 00      	jne r1, r3, +0xe <entrypoint+0x61d0>
    6988: 7b 2a d8 f6 00 00 00 00      	stxdw [r10 - 0x928], r2
    6990: b7 00 00 00 1a 00 00 00      	mov64 r0, 0x1a
    6998: 05 00 4c fb 00 00 00 00      	ja -0x4b4 <entrypoint+0x3bd8>
    69a0: b7 00 00 00 09 00 00 00      	mov64 r0, 0x9
    69a8: 79 a9 a0 f6 00 00 00 00      	ldxdw r9, [r10 - 0x960]
    69b0: 05 00 49 fb 00 00 00 00      	ja -0x4b7 <entrypoint+0x3bd8>
    69b8: 18 01 00 00 00 00 00 00 00 00 00 00 ff ff ff ff      	lddw r1, -0x100000000
    69c8: 79 a2 a0 f6 00 00 00 00      	ldxdw r2, [r10 - 0x960]
    69d0: 5f 12 00 00 00 00 00 00      	and64 r2, r1
    69d8: 7b 2a a0 f6 00 00 00 00      	stxdw [r10 - 0x960], r2
    69e0: b7 00 00 00 03 00 00 00      	mov64 r0, 0x3
    69e8: 79 a9 a0 f6 00 00 00 00      	ldxdw r9, [r10 - 0x960]
    69f0: 05 00 41 fb 00 00 00 00      	ja -0x4bf <entrypoint+0x3bd8>
    69f8: 7b 2a d8 f6 00 00 00 00      	stxdw [r10 - 0x928], r2
    6a00: b7 00 00 00 06 00 00 00      	mov64 r0, 0x6
    6a08: 05 00 3e fb 00 00 00 00      	ja -0x4c2 <entrypoint+0x3bd8>
    6a10: 7b 2a d8 f6 00 00 00 00      	stxdw [r10 - 0x928], r2
    6a18: b7 09 00 00 04 00 00 00      	mov64 r9, 0x4
    6a20: b7 00 00 00 00 00 00 00      	mov64 r0, 0x0
    6a28: 05 00 3a fb 00 00 00 00      	ja -0x4c6 <entrypoint+0x3bd8>
    6a30: b7 01 00 00 00 00 00 00      	mov64 r1, 0x0
    6a38: 7b 1a 18 f7 00 00 00 00      	stxdw [r10 - 0x8e8], r1
    6a40: 79 a1 a0 f6 00 00 00 00      	ldxdw r1, [r10 - 0x960]
    6a48: 71 11 00 00 00 00 00 00      	ldxb r1, [r1 + 0x0]
    6a50: 79 a0 18 f7 00 00 00 00      	ldxdw r0, [r10 - 0x8e8]
    6a58: 57 00 00 00 ff 00 00 00      	and64 r0, 0xff
    6a60: 3d 10 c5 fc 00 00 00 00      	jge r0, r1, -0x33b <entrypoint+0x4868>
    6a68: 05 00 4b ff 00 00 00 00      	ja -0xb5 <entrypoint+0x5ca0>
    6a70: 71 86 5a 00 00 00 00 00      	ldxb r6, [r8 + 0x5a]
    6a78: 15 06 63 00 00 00 00 00      	jeq r6, 0x0, +0x63 <entrypoint+0x6570>
    6a80: 55 06 64 00 01 00 00 00      	jne r6, 0x1, +0x64 <entrypoint+0x6580>
    6a88: bf 81 00 00 00 00 00 00      	mov64 r1, r8
    6a90: 07 01 00 00 58 00 00 00      	add64 r1, 0x58
    6a98: 7b 1a 98 f6 00 00 00 00      	stxdw [r10 - 0x968], r1
    6aa0: b7 01 00 00 00 00 00 00      	mov64 r1, 0x0
    6aa8: 7b 1a 10 f7 00 00 00 00      	stxdw [r10 - 0x8f0], r1
    6ab0: 62 0a e7 ff 00 00 00 00      	stw [r10 - 0x19], 0x0
    6ab8: 7a 0a e0 ff 00 00 00 00      	stdw [r10 - 0x20], 0x0
    6ac0: 79 a1 d8 f7 00 00 00 00      	ldxdw r1, [r10 - 0x828]
    6ac8: 15 01 66 00 04 00 00 00      	jeq r1, 0x4, +0x66 <entrypoint+0x65d8>
    6ad0: 71 86 59 00 00 00 00 00      	ldxb r6, [r8 + 0x59]
    6ad8: b7 01 00 00 01 00 00 00      	mov64 r1, 0x1
    6ae0: 7b 1a 08 f7 00 00 00 00      	stxdw [r10 - 0x8f8], r1
    6ae8: 55 06 02 00 00 00 00 00      	jne r6, 0x0, +0x2 <entrypoint+0x62d8>
    6af0: b7 01 00 00 00 00 00 00      	mov64 r1, 0x0
    6af8: 7b 1a 08 f7 00 00 00 00      	stxdw [r10 - 0x8f8], r1
    6b00: 25 06 a9 0e 0b 00 00 00      	jgt r6, 0xb, +0xea9 <entrypoint+0xd828>
    6b08: 15 06 5c 00 00 00 00 00      	jeq r6, 0x0, +0x5c <entrypoint+0x65c8>
    6b10: 79 a9 d8 f7 00 00 00 00      	ldxdw r9, [r10 - 0x828]
    6b18: 67 09 00 00 03 00 00 00      	lsh64 r9, 0x3
    6b20: 79 a7 e0 f7 00 00 00 00      	ldxdw r7, [r10 - 0x820]
    6b28: bf 71 00 00 00 00 00 00      	mov64 r1, r7
    6b30: 0f 91 00 00 00 00 00 00      	add64 r1, r9
    6b38: 7b 1a f8 f6 00 00 00 00      	stxdw [r10 - 0x908], r1
    6b40: 67 06 00 00 05 00 00 00      	lsh64 r6, 0x5
    6b48: 79 a9 08 f7 00 00 00 00      	ldxdw r9, [r10 - 0x8f8]
    6b50: 67 09 00 00 05 00 00 00      	lsh64 r9, 0x5
    6b58: 07 08 00 00 5b 00 00 00      	add64 r8, 0x5b
    6b60: bf 81 00 00 00 00 00 00      	mov64 r1, r8
    6b68: 0f 91 00 00 00 00 00 00      	add64 r1, r9
    6b70: 7b 1a 00 f7 00 00 00 00      	stxdw [r10 - 0x900], r1
    6b78: 1f 69 00 00 00 00 00 00      	sub64 r9, r6
    6b80: 7b 9a 08 f7 00 00 00 00      	stxdw [r10 - 0x8f8], r9
    6b88: b7 01 00 00 00 00 00 00      	mov64 r1, 0x0
    6b90: 7b 1a 10 f7 00 00 00 00      	stxdw [r10 - 0x8f0], r1
    6b98: bf 76 00 00 00 00 00 00      	mov64 r6, r7
    6ba0: 07 06 00 00 28 00 00 00      	add64 r6, 0x28
    6ba8: 05 00 05 00 00 00 00 00      	ja +0x5 <entrypoint+0x63b0>
    6bb0: 79 a1 b0 f7 00 00 00 00      	ldxdw r1, [r10 - 0x850]
    6bb8: bf 16 00 00 00 00 00 00      	mov64 r6, r1
    6bc0: 07 06 00 00 08 00 00 00      	add64 r6, 0x8
    6bc8: 79 a7 f8 f6 00 00 00 00      	ldxdw r7, [r10 - 0x908]
    6bd0: 1d 71 45 00 00 00 00 00      	jeq r1, r7, +0x45 <entrypoint+0x65d8>
    6bd8: 79 a1 b0 f7 00 00 00 00      	ldxdw r1, [r10 - 0x850]
    6be0: 7b 6a b0 f7 00 00 00 00      	stxdw [r10 - 0x850], r6
    6be8: 79 11 00 00 00 00 00 00      	ldxdw r1, [r1 + 0x0]
    6bf0: 7b 1a 18 f7 00 00 00 00      	stxdw [r10 - 0x8e8], r1
    6bf8: 79 11 08 00 00 00 00 00      	ldxdw r1, [r1 + 0x8]
    6c00: 7b 1a 28 f7 00 00 00 00      	stxdw [r10 - 0x8d8], r1
    6c08: 79 a7 08 f7 00 00 00 00      	ldxdw r7, [r10 - 0x8f8]
    6c10: 79 a9 00 f7 00 00 00 00      	ldxdw r9, [r10 - 0x900]
    6c18: b7 01 00 00 00 00 00 00      	mov64 r1, 0x0
    6c20: 7b 1a 30 f7 00 00 00 00      	stxdw [r10 - 0x8d0], r1
    6c28: 7b 8a 38 f7 00 00 00 00      	stxdw [r10 - 0x8c8], r8
    6c30: 05 00 0b 00 00 00 00 00      	ja +0xb <entrypoint+0x6468>
    6c38: 72 06 00 00 01 00 00 00      	stb [r6 + 0x0], 0x1
    6c40: 79 a1 10 f7 00 00 00 00      	ldxdw r1, [r10 - 0x8f0]
    6c48: 07 01 00 00 01 00 00 00      	add64 r1, 0x1
    6c50: 7b 1a 10 f7 00 00 00 00      	stxdw [r10 - 0x8f0], r1
    6c58: 79 a9 38 f7 00 00 00 00      	ldxdw r9, [r10 - 0x8c8]
    6c60: 07 09 00 00 20 00 00 00      	add64 r9, 0x20
    6c68: 79 a1 30 f7 00 00 00 00      	ldxdw r1, [r10 - 0x8d0]
    6c70: 07 01 00 00 01 00 00 00      	add64 r1, 0x1
    6c78: 7b 1a 30 f7 00 00 00 00      	stxdw [r10 - 0x8d0], r1
    6c80: 07 07 00 00 20 00 00 00      	add64 r7, 0x20
    6c88: 15 07 e4 ff 20 00 00 00      	jeq r7, 0x20, -0x1c <entrypoint+0x6388>
    6c90: 79 a6 38 f7 00 00 00 00      	ldxdw r6, [r10 - 0x8c8]
    6c98: 7b 9a 38 f7 00 00 00 00      	stxdw [r10 - 0x8c8], r9
    6ca0: 79 61 00 00 00 00 00 00      	ldxdw r1, [r6 + 0x0]
    6ca8: 79 a9 28 f7 00 00 00 00      	ldxdw r9, [r10 - 0x8d8]
    6cb0: 5d 91 f4 ff 00 00 00 00      	jne r1, r9, -0xc <entrypoint+0x6430>
    6cb8: 79 a1 18 f7 00 00 00 00      	ldxdw r1, [r10 - 0x8e8]
    6cc0: 79 11 10 00 00 00 00 00      	ldxdw r1, [r1 + 0x10]
    6cc8: 79 69 08 00 00 00 00 00      	ldxdw r9, [r6 + 0x8]
    6cd0: 5d 19 f0 ff 00 00 00 00      	jne r9, r1, -0x10 <entrypoint+0x6430>
    6cd8: 79 a1 18 f7 00 00 00 00      	ldxdw r1, [r10 - 0x8e8]
    6ce0: 79 11 18 00 00 00 00 00      	ldxdw r1, [r1 + 0x18]
    6ce8: 79 69 10 00 00 00 00 00      	ldxdw r9, [r6 + 0x10]
    6cf0: 5d 19 ec ff 00 00 00 00      	jne r9, r1, -0x14 <entrypoint+0x6430>
    6cf8: 79 a1 18 f7 00 00 00 00      	ldxdw r1, [r10 - 0x8e8]
    6d00: 79 11 20 00 00 00 00 00      	ldxdw r1, [r1 + 0x20]
    6d08: 79 66 18 00 00 00 00 00      	ldxdw r6, [r6 + 0x18]
    6d10: 5d 16 e8 ff 00 00 00 00      	jne r6, r1, -0x18 <entrypoint+0x6430>
    6d18: 79 a1 30 f7 00 00 00 00      	ldxdw r1, [r10 - 0x8d0]
    6d20: 25 01 6a 0e 0a 00 00 00      	jgt r1, 0xa, +0xe6a <entrypoint+0xd850>
    6d28: bf a6 00 00 00 00 00 00      	mov64 r6, r10
    6d30: 07 06 00 00 e0 ff ff ff      	add64 r6, -0x20
    6d38: 79 a1 30 f7 00 00 00 00      	ldxdw r1, [r10 - 0x8d0]
    6d40: 0f 16 00 00 00 00 00 00      	add64 r6, r1
    6d48: 71 61 00 00 00 00 00 00      	ldxb r1, [r6 + 0x0]
    6d50: 55 01 e0 ff 00 00 00 00      	jne r1, 0x0, -0x20 <entrypoint+0x6430>
    6d58: 79 a1 18 f7 00 00 00 00      	ldxdw r1, [r10 - 0x8e8]
    6d60: 71 11 01 00 00 00 00 00      	ldxb r1, [r1 + 0x1]
    6d68: 55 01 d9 ff 00 00 00 00      	jne r1, 0x0, -0x27 <entrypoint+0x6410>
    6d70: 05 00 16 00 00 00 00 00      	ja +0x16 <entrypoint+0x6600>
    6d78: b7 00 00 00 03 00 00 00      	mov64 r0, 0x3
    6d80: b7 09 00 00 00 00 00 00      	mov64 r9, 0x0
    6d88: 7b 2a d8 f6 00 00 00 00      	stxdw [r10 - 0x928], r2
    6d90: 05 00 cd fa 00 00 00 00      	ja -0x533 <entrypoint+0x3bd8>
    6d98: b7 00 00 00 09 00 00 00      	mov64 r0, 0x9
    6da0: 05 00 06 00 00 00 00 00      	ja +0x6 <entrypoint+0x65b0>
    6da8: 18 01 00 00 00 00 00 00 00 00 00 00 ff ff ff ff      	lddw r1, -0x100000000
    6db8: 79 a3 98 f6 00 00 00 00      	ldxdw r3, [r10 - 0x968]
    6dc0: 5f 13 00 00 00 00 00 00      	and64 r3, r1
    6dc8: 7b 3a 98 f6 00 00 00 00      	stxdw [r10 - 0x968], r3
    6dd0: b7 00 00 00 03 00 00 00      	mov64 r0, 0x3
    6dd8: 7b 2a d8 f6 00 00 00 00      	stxdw [r10 - 0x928], r2
    6de0: 79 a9 98 f6 00 00 00 00      	ldxdw r9, [r10 - 0x968]
    6de8: 05 00 c2 fa 00 00 00 00      	ja -0x53e <entrypoint+0x3bd8>
    6df0: b7 01 00 00 00 00 00 00      	mov64 r1, 0x0
    6df8: 7b 1a 10 f7 00 00 00 00      	stxdw [r10 - 0x8f0], r1
    6e00: 79 a1 98 f6 00 00 00 00      	ldxdw r1, [r10 - 0x968]
    6e08: 71 11 00 00 00 00 00 00      	ldxb r1, [r1 + 0x0]
    6e10: 79 a6 10 f7 00 00 00 00      	ldxdw r6, [r10 - 0x8f0]
    6e18: 57 06 00 00 ff 00 00 00      	and64 r6, 0xff
    6e20: 3d 16 e5 fd 00 00 00 00      	jge r6, r1, -0x21b <entrypoint+0x5528>
    6e28: b7 00 00 00 07 00 00 00      	mov64 r0, 0x7
    6e30: 7b 2a d8 f6 00 00 00 00      	stxdw [r10 - 0x928], r2
    6e38: 05 00 b8 fa 00 00 00 00      	ja -0x548 <entrypoint+0x3bd8>
    6e40: 71 87 5a 00 00 00 00 00      	ldxb r7, [r8 + 0x5a]
    6e48: 15 07 61 00 00 00 00 00      	jeq r7, 0x0, +0x61 <entrypoint+0x6930>
    6e50: 55 07 62 00 01 00 00 00      	jne r7, 0x1, +0x62 <entrypoint+0x6940>
    6e58: bf 81 00 00 00 00 00 00      	mov64 r1, r8
    6e60: 07 01 00 00 58 00 00 00      	add64 r1, 0x58
    6e68: 7b 1a 90 f6 00 00 00 00      	stxdw [r10 - 0x970], r1
    6e70: b7 01 00 00 00 00 00 00      	mov64 r1, 0x0
    6e78: 7b 1a 10 f7 00 00 00 00      	stxdw [r10 - 0x8f0], r1
    6e80: 62 0a e7 ff 00 00 00 00      	stw [r10 - 0x19], 0x0
    6e88: 7a 0a e0 ff 00 00 00 00      	stdw [r10 - 0x20], 0x0
    6e90: 79 a1 d8 f7 00 00 00 00      	ldxdw r1, [r10 - 0x828]
    6e98: 15 01 64 00 04 00 00 00      	jeq r1, 0x4, +0x64 <entrypoint+0x6998>
    6ea0: 71 87 59 00 00 00 00 00      	ldxb r7, [r8 + 0x59]
    6ea8: b7 01 00 00 01 00 00 00      	mov64 r1, 0x1
    6eb0: 7b 1a 08 f7 00 00 00 00      	stxdw [r10 - 0x8f8], r1
    6eb8: bf 71 00 00 00 00 00 00      	mov64 r1, r7
    6ec0: 55 07 02 00 00 00 00 00      	jne r7, 0x0, +0x2 <entrypoint+0x66b0>
    6ec8: b7 06 00 00 00 00 00 00      	mov64 r6, 0x0
    6ed0: 7b 6a 08 f7 00 00 00 00      	stxdw [r10 - 0x8f8], r6
    6ed8: 25 01 49 0d 0b 00 00 00      	jgt r1, 0xb, +0xd49 <entrypoint+0xd100>
    6ee0: 15 01 59 00 00 00 00 00      	jeq r1, 0x0, +0x59 <entrypoint+0x6988>
    6ee8: 79 a6 d8 f7 00 00 00 00      	ldxdw r6, [r10 - 0x828]
    6ef0: 67 06 00 00 03 00 00 00      	lsh64 r6, 0x3
    6ef8: 79 a7 e0 f7 00 00 00 00      	ldxdw r7, [r10 - 0x820]
    6f00: bf 79 00 00 00 00 00 00      	mov64 r9, r7
    6f08: 0f 69 00 00 00 00 00 00      	add64 r9, r6
    6f10: 7b 9a f8 f6 00 00 00 00      	stxdw [r10 - 0x908], r9
    6f18: bf 19 00 00 00 00 00 00      	mov64 r9, r1
    6f20: 67 09 00 00 05 00 00 00      	lsh64 r9, 0x5
    6f28: 79 a6 08 f7 00 00 00 00      	ldxdw r6, [r10 - 0x8f8]
    6f30: 67 06 00 00 05 00 00 00      	lsh64 r6, 0x5
    6f38: 07 08 00 00 5b 00 00 00      	add64 r8, 0x5b
    6f40: bf 81 00 00 00 00 00 00      	mov64 r1, r8
    6f48: 0f 61 00 00 00 00 00 00      	add64 r1, r6
    6f50: 7b 1a 00 f7 00 00 00 00      	stxdw [r10 - 0x900], r1
    6f58: 1f 96 00 00 00 00 00 00      	sub64 r6, r9
    6f60: 7b 6a 08 f7 00 00 00 00      	stxdw [r10 - 0x8f8], r6
    6f68: b7 01 00 00 00 00 00 00      	mov64 r1, 0x0
    6f70: 7b 1a 10 f7 00 00 00 00      	stxdw [r10 - 0x8f0], r1
    6f78: 07 07 00 00 28 00 00 00      	add64 r7, 0x28
    6f80: 05 00 05 00 00 00 00 00      	ja +0x5 <entrypoint+0x6788>
    6f88: 79 a1 b0 f7 00 00 00 00      	ldxdw r1, [r10 - 0x850]
    6f90: bf 17 00 00 00 00 00 00      	mov64 r7, r1
    6f98: 07 07 00 00 08 00 00 00      	add64 r7, 0x8
    6fa0: 79 a9 f8 f6 00 00 00 00      	ldxdw r9, [r10 - 0x908]
    6fa8: 1d 91 42 00 00 00 00 00      	jeq r1, r9, +0x42 <entrypoint+0x6998>
    6fb0: 79 a1 b0 f7 00 00 00 00      	ldxdw r1, [r10 - 0x850]
    6fb8: 7b 7a b0 f7 00 00 00 00      	stxdw [r10 - 0x850], r7
    6fc0: 79 11 00 00 00 00 00 00      	ldxdw r1, [r1 + 0x0]
    6fc8: 7b 1a 18 f7 00 00 00 00      	stxdw [r10 - 0x8e8], r1
    6fd0: 79 11 08 00 00 00 00 00      	ldxdw r1, [r1 + 0x8]
    6fd8: 7b 1a 28 f7 00 00 00 00      	stxdw [r10 - 0x8d8], r1
    6fe0: 79 a7 08 f7 00 00 00 00      	ldxdw r7, [r10 - 0x8f8]
    6fe8: 79 a9 00 f7 00 00 00 00      	ldxdw r9, [r10 - 0x900]
    6ff0: b7 01 00 00 00 00 00 00      	mov64 r1, 0x0
    6ff8: 7b 1a 30 f7 00 00 00 00      	stxdw [r10 - 0x8d0], r1
    7000: 7b 8a 38 f7 00 00 00 00      	stxdw [r10 - 0x8c8], r8
    7008: 05 00 0b 00 00 00 00 00      	ja +0xb <entrypoint+0x6840>
    7010: 72 09 00 00 01 00 00 00      	stb [r9 + 0x0], 0x1
    7018: 79 a1 10 f7 00 00 00 00      	ldxdw r1, [r10 - 0x8f0]
    7020: 07 01 00 00 01 00 00 00      	add64 r1, 0x1
    7028: 7b 1a 10 f7 00 00 00 00      	stxdw [r10 - 0x8f0], r1
    7030: 79 a9 38 f7 00 00 00 00      	ldxdw r9, [r10 - 0x8c8]
    7038: 07 09 00 00 20 00 00 00      	add64 r9, 0x20
    7040: 79 a1 30 f7 00 00 00 00      	ldxdw r1, [r10 - 0x8d0]
    7048: 07 01 00 00 01 00 00 00      	add64 r1, 0x1
    7050: 7b 1a 30 f7 00 00 00 00      	stxdw [r10 - 0x8d0], r1
    7058: 07 07 00 00 20 00 00 00      	add64 r7, 0x20
    7060: 15 07 e4 ff 20 00 00 00      	jeq r7, 0x20, -0x1c <entrypoint+0x6760>
    7068: 79 a1 38 f7 00 00 00 00      	ldxdw r1, [r10 - 0x8c8]
    7070: 7b 9a 38 f7 00 00 00 00      	stxdw [r10 - 0x8c8], r9
    7078: bf 16 00 00 00 00 00 00      	mov64 r6, r1
    7080: 79 11 00 00 00 00 00 00      	ldxdw r1, [r1 + 0x0]
    7088: 79 a9 28 f7 00 00 00 00      	ldxdw r9, [r10 - 0x8d8]
    7090: 5d 91 f3 ff 00 00 00 00      	jne r1, r9, -0xd <entrypoint+0x6808>
    7098: 79 a1 18 f7 00 00 00 00      	ldxdw r1, [r10 - 0x8e8]
    70a0: 79 11 10 00 00 00 00 00      	ldxdw r1, [r1 + 0x10]
    70a8: 79 69 08 00 00 00 00 00      	ldxdw r9, [r6 + 0x8]
    70b0: 5d 19 ef ff 00 00 00 00      	jne r9, r1, -0x11 <entrypoint+0x6808>
    70b8: 79 a1 18 f7 00 00 00 00      	ldxdw r1, [r10 - 0x8e8]
    70c0: 79 11 18 00 00 00 00 00      	ldxdw r1, [r1 + 0x18]
    70c8: 79 69 10 00 00 00 00 00      	ldxdw r9, [r6 + 0x10]
    70d0: 5d 19 eb ff 00 00 00 00      	jne r9, r1, -0x15 <entrypoint+0x6808>
    70d8: 79 a1 18 f7 00 00 00 00      	ldxdw r1, [r10 - 0x8e8]
    70e0: 79 11 20 00 00 00 00 00      	ldxdw r1, [r1 + 0x20]
    70e8: 79 69 18 00 00 00 00 00      	ldxdw r9, [r6 + 0x18]
    70f0: 5d 19 e7 ff 00 00 00 00      	jne r9, r1, -0x19 <entrypoint+0x6808>
    70f8: 79 a1 30 f7 00 00 00 00      	ldxdw r1, [r10 - 0x8d0]
    7100: 25 01 ee 0d 0a 00 00 00      	jgt r1, 0xa, +0xdee <entrypoint+0xd850>
    7108: bf a9 00 00 00 00 00 00      	mov64 r9, r10
    7110: 07 09 00 00 e0 ff ff ff      	add64 r9, -0x20
    7118: 79 a1 30 f7 00 00 00 00      	ldxdw r1, [r10 - 0x8d0]
    7120: 0f 19 00 00 00 00 00 00      	add64 r9, r1
    7128: 71 91 00 00 00 00 00 00      	ldxb r1, [r9 + 0x0]
    7130: 55 01 df ff 00 00 00 00      	jne r1, 0x0, -0x21 <entrypoint+0x6808>
    7138: 79 a1 18 f7 00 00 00 00      	ldxdw r1, [r10 - 0x8e8]
    7140: 71 11 01 00 00 00 00 00      	ldxb r1, [r1 + 0x1]
    7148: 55 01 d8 ff 00 00 00 00      	jne r1, 0x0, -0x28 <entrypoint+0x67e8>
    7150: 05 00 9a ff 00 00 00 00      	ja -0x66 <entrypoint+0x6600>
    7158: b7 00 00 00 09 00 00 00      	mov64 r0, 0x9
    7160: 05 00 06 00 00 00 00 00      	ja +0x6 <entrypoint+0x6970>
    7168: 18 01 00 00 00 00 00 00 00 00 00 00 ff ff ff ff      	lddw r1, -0x100000000
    7178: 79 a3 90 f6 00 00 00 00      	ldxdw r3, [r10 - 0x970]
    7180: 5f 13 00 00 00 00 00 00      	and64 r3, r1
    7188: 7b 3a 90 f6 00 00 00 00      	stxdw [r10 - 0x970], r3
    7190: b7 00 00 00 03 00 00 00      	mov64 r0, 0x3
    7198: 7b 2a d8 f6 00 00 00 00      	stxdw [r10 - 0x928], r2
    71a0: 79 a9 90 f6 00 00 00 00      	ldxdw r9, [r10 - 0x970]
    71a8: 05 00 4a fa 00 00 00 00      	ja -0x5b6 <entrypoint+0x3bd8>
    71b0: b7 01 00 00 00 00 00 00      	mov64 r1, 0x0
    71b8: 7b 1a 10 f7 00 00 00 00      	stxdw [r10 - 0x8f0], r1
    71c0: 79 a1 90 f6 00 00 00 00      	ldxdw r1, [r10 - 0x970]
    71c8: 71 11 00 00 00 00 00 00      	ldxb r1, [r1 + 0x0]
    71d0: 79 a6 10 f7 00 00 00 00      	ldxdw r6, [r10 - 0x8f0]
    71d8: 57 06 00 00 ff 00 00 00      	and64 r6, 0xff
    71e0: 3d 16 c9 fe 00 00 00 00      	jge r6, r1, -0x137 <entrypoint+0x6008>
    71e8: 05 00 87 ff 00 00 00 00      	ja -0x79 <entrypoint+0x6600>
    71f0: bf a2 00 00 00 00 00 00      	mov64 r2, r10
    71f8: 07 02 00 00 e8 f7 ff ff      	add64 r2, -0x818
    7200: bf 73 00 00 00 00 00 00      	mov64 r3, r7
    7208: a5 07 58 00 06 00 00 00      	jlt r7, 0x6, +0x58 <entrypoint+0x6ca8>
    7210: bf a2 00 00 00 00 00 00      	mov64 r2, r10
    7218: 07 02 00 00 e8 f7 ff ff      	add64 r2, -0x818
    7220: bf 73 00 00 00 00 00 00      	mov64 r3, r7
    7228: 71 14 00 00 00 00 00 00      	ldxb r4, [r1 + 0x0]
    7230: 55 04 25 00 ff 00 00 00      	jne r4, 0xff, +0x25 <entrypoint+0x6b38>
    7238: 7b 12 08 00 00 00 00 00      	stxdw [r2 + 0x8], r1
    7240: 79 14 50 00 00 00 00 00      	ldxdw r4, [r1 + 0x50]
    7248: 0f 41 00 00 00 00 00 00      	add64 r1, r4
    7250: 07 01 00 00 67 28 00 00      	add64 r1, 0x2867
    7258: 57 01 00 00 f8 ff ff ff      	and64 r1, -0x8
    7260: 71 14 00 00 00 00 00 00      	ldxb r4, [r1 + 0x0]
    7268: 55 04 27 00 ff 00 00 00      	jne r4, 0xff, +0x27 <entrypoint+0x6b80>
    7270: 7b 12 10 00 00 00 00 00      	stxdw [r2 + 0x10], r1
    7278: 79 14 50 00 00 00 00 00      	ldxdw r4, [r1 + 0x50]
    7280: 0f 41 00 00 00 00 00 00      	add64 r1, r4
    7288: 07 01 00 00 67 28 00 00      	add64 r1, 0x2867
    7290: 57 01 00 00 f8 ff ff ff      	and64 r1, -0x8
    7298: 71 14 00 00 00 00 00 00      	ldxb r4, [r1 + 0x0]
    72a0: 55 04 29 00 ff 00 00 00      	jne r4, 0xff, +0x29 <entrypoint+0x6bc8>
    72a8: 7b 12 18 00 00 00 00 00      	stxdw [r2 + 0x18], r1
    72b0: 79 14 50 00 00 00 00 00      	ldxdw r4, [r1 + 0x50]
    72b8: 0f 41 00 00 00 00 00 00      	add64 r1, r4
    72c0: 07 01 00 00 67 28 00 00      	add64 r1, 0x2867
    72c8: 57 01 00 00 f8 ff ff ff      	and64 r1, -0x8
    72d0: 71 14 00 00 00 00 00 00      	ldxb r4, [r1 + 0x0]
    72d8: 55 04 2b 00 ff 00 00 00      	jne r4, 0xff, +0x2b <entrypoint+0x6c10>
    72e0: 7b 12 20 00 00 00 00 00      	stxdw [r2 + 0x20], r1
    72e8: 79 14 50 00 00 00 00 00      	ldxdw r4, [r1 + 0x50]
    72f0: 0f 41 00 00 00 00 00 00      	add64 r1, r4
    72f8: 07 01 00 00 67 28 00 00      	add64 r1, 0x2867
    7300: 57 01 00 00 f8 ff ff ff      	and64 r1, -0x8
    7308: 07 02 00 00 28 00 00 00      	add64 r2, 0x28
    7310: 71 14 00 00 00 00 00 00      	ldxb r4, [r1 + 0x0]
    7318: 55 04 2d 00 ff 00 00 00      	jne r4, 0xff, +0x2d <entrypoint+0x6c60>
    7320: 7b 12 00 00 00 00 00 00      	stxdw [r2 + 0x0], r1
    7328: 79 14 50 00 00 00 00 00      	ldxdw r4, [r1 + 0x50]
    7330: 0f 41 00 00 00 00 00 00      	add64 r1, r4
    7338: 07 01 00 00 67 28 00 00      	add64 r1, 0x2867
    7340: 57 01 00 00 f8 ff ff ff      	and64 r1, -0x8
    7348: 07 03 00 00 fb ff ff ff      	add64 r3, -0x5
    7350: 25 03 da ff 05 00 00 00      	jgt r3, 0x5, -0x26 <entrypoint+0x6a00>
    7358: 05 00 2e 00 00 00 00 00      	ja +0x2e <entrypoint+0x6ca8>
    7360: 67 04 00 00 03 00 00 00      	lsh64 r4, 0x3
    7368: bf a5 00 00 00 00 00 00      	mov64 r5, r10
    7370: 07 05 00 00 e8 f7 ff ff      	add64 r5, -0x818
    7378: 0f 45 00 00 00 00 00 00      	add64 r5, r4
    7380: 79 54 00 00 00 00 00 00      	ldxdw r4, [r5 + 0x0]
    7388: 7b 42 08 00 00 00 00 00      	stxdw [r2 + 0x8], r4
    7390: 07 01 00 00 08 00 00 00      	add64 r1, 0x8
    7398: 71 14 00 00 00 00 00 00      	ldxb r4, [r1 + 0x0]
    73a0: 15 04 d9 ff ff 00 00 00      	jeq r4, 0xff, -0x27 <entrypoint+0x6a48>
    73a8: 67 04 00 00 03 00 00 00      	lsh64 r4, 0x3
    73b0: bf a5 00 00 00 00 00 00      	mov64 r5, r10
    73b8: 07 05 00 00 e8 f7 ff ff      	add64 r5, -0x818
    73c0: 0f 45 00 00 00 00 00 00      	add64 r5, r4
    73c8: 79 54 00 00 00 00 00 00      	ldxdw r4, [r5 + 0x0]
    73d0: 7b 42 10 00 00 00 00 00      	stxdw [r2 + 0x10], r4
    73d8: 07 01 00 00 08 00 00 00      	add64 r1, 0x8
    73e0: 71 14 00 00 00 00 00 00      	ldxb r4, [r1 + 0x0]
    73e8: 15 04 d7 ff ff 00 00 00      	jeq r4, 0xff, -0x29 <entrypoint+0x6a80>
    73f0: 67 04 00 00 03 00 00 00      	lsh64 r4, 0x3
    73f8: bf a5 00 00 00 00 00 00      	mov64 r5, r10
    7400: 07 05 00 00 e8 f7 ff ff      	add64 r5, -0x818
    7408: 0f 45 00 00 00 00 00 00      	add64 r5, r4
    7410: 79 54 00 00 00 00 00 00      	ldxdw r4, [r5 + 0x0]
    7418: 7b 42 18 00 00 00 00 00      	stxdw [r2 + 0x18], r4
    7420: 07 01 00 00 08 00 00 00      	add64 r1, 0x8
    7428: 71 14 00 00 00 00 00 00      	ldxb r4, [r1 + 0x0]
    7430: 15 04 d5 ff ff 00 00 00      	jeq r4, 0xff, -0x2b <entrypoint+0x6ab8>
    7438: 67 04 00 00 03 00 00 00      	lsh64 r4, 0x3
    7440: bf a5 00 00 00 00 00 00      	mov64 r5, r10
    7448: 07 05 00 00 e8 f7 ff ff      	add64 r5, -0x818
    7450: 0f 45 00 00 00 00 00 00      	add64 r5, r4
    7458: 79 54 00 00 00 00 00 00      	ldxdw r4, [r5 + 0x0]
    7460: 7b 42 20 00 00 00 00 00      	stxdw [r2 + 0x20], r4
    7468: 07 01 00 00 08 00 00 00      	add64 r1, 0x8
    7470: 07 02 00 00 28 00 00 00      	add64 r2, 0x28
    7478: 71 14 00 00 00 00 00 00      	ldxb r4, [r1 + 0x0]
    7480: 15 04 d3 ff ff 00 00 00      	jeq r4, 0xff, -0x2d <entrypoint+0x6af8>
    7488: 67 04 00 00 03 00 00 00      	lsh64 r4, 0x3
    7490: bf a5 00 00 00 00 00 00      	mov64 r5, r10
    7498: 07 05 00 00 e8 f7 ff ff      	add64 r5, -0x818
    74a0: 0f 45 00 00 00 00 00 00      	add64 r5, r4
    74a8: 79 54 00 00 00 00 00 00      	ldxdw r4, [r5 + 0x0]
    74b0: 7b 42 00 00 00 00 00 00      	stxdw [r2 + 0x0], r4
    74b8: 07 01 00 00 08 00 00 00      	add64 r1, 0x8
    74c0: 07 03 00 00 fb ff ff ff      	add64 r3, -0x5
    74c8: 25 03 ab ff 05 00 00 00      	jgt r3, 0x5, -0x55 <entrypoint+0x6a00>
    74d0: d5 03 83 00 02 00 00 00      	jsle r3, 0x2, +0x83 <entrypoint+0x70c8>
    74d8: 15 03 89 00 03 00 00 00      	jeq r3, 0x3, +0x89 <entrypoint+0x7100>
    74e0: 55 03 93 00 04 00 00 00      	jne r3, 0x4, +0x93 <entrypoint+0x7158>
    74e8: 71 13 00 00 00 00 00 00      	ldxb r3, [r1 + 0x0]
    74f0: 55 03 cc 07 ff 00 00 00      	jne r3, 0xff, +0x7cc <entrypoint+0xab30>
    74f8: 7b 12 08 00 00 00 00 00      	stxdw [r2 + 0x8], r1
    7500: 79 13 50 00 00 00 00 00      	ldxdw r3, [r1 + 0x50]
    7508: 0f 31 00 00 00 00 00 00      	add64 r1, r3
    7510: 07 01 00 00 67 28 00 00      	add64 r1, 0x2867
    7518: 57 01 00 00 f8 ff ff ff      	and64 r1, -0x8
    7520: 71 13 00 00 00 00 00 00      	ldxb r3, [r1 + 0x0]
    7528: 55 03 ce 07 ff 00 00 00      	jne r3, 0xff, +0x7ce <entrypoint+0xab78>
    7530: 7b 12 10 00 00 00 00 00      	stxdw [r2 + 0x10], r1
    7538: 79 13 50 00 00 00 00 00      	ldxdw r3, [r1 + 0x50]
    7540: 0f 31 00 00 00 00 00 00      	add64 r1, r3
    7548: 07 01 00 00 67 28 00 00      	add64 r1, 0x2867
    7550: 57 01 00 00 f8 ff ff ff      	and64 r1, -0x8
    7558: 71 13 00 00 00 00 00 00      	ldxb r3, [r1 + 0x0]
    7560: 55 03 d0 07 ff 00 00 00      	jne r3, 0xff, +0x7d0 <entrypoint+0xabc0>
    7568: 7b 12 18 00 00 00 00 00      	stxdw [r2 + 0x18], r1
    7570: 05 00 db f2 00 00 00 00      	ja -0xd25 <entrypoint+0x428>
    7578: 65 05 60 00 11 00 00 00      	jsgt r5, 0x11, +0x60 <entrypoint+0x7058>
    7580: 15 05 9e 00 0c 00 00 00      	jeq r5, 0xc, +0x9e <entrypoint+0x7250>
    7588: 15 05 3a 01 0f 00 00 00      	jeq r5, 0xf, +0x13a <entrypoint+0x7738>
    7590: 55 05 82 01 11 00 00 00      	jne r5, 0x11, +0x182 <entrypoint+0x7980>
    7598: 15 07 f6 01 00 00 00 00      	jeq r7, 0x0, +0x1f6 <entrypoint+0x7d28>
    75a0: 79 41 28 00 00 00 00 00      	ldxdw r1, [r4 + 0x28]
    75a8: 18 02 00 00 06 dd f6 e1 00 00 00 00 d7 65 a1 93      	lddw r2, -0x6c5e9a281e0922fa
    75b8: 5d 21 29 07 00 00 00 00      	jne r1, r2, +0x729 <entrypoint+0xa6e0>
    75c0: 79 41 30 00 00 00 00 00      	ldxdw r1, [r4 + 0x30]
    75c8: 18 02 00 00 d9 cb e1 46 00 00 00 00 ce eb 79 ac      	lddw r2, -0x53861431b91e3427
    75d8: 5d 21 25 07 00 00 00 00      	jne r1, r2, +0x725 <entrypoint+0xa6e0>
    75e0: 79 41 38 00 00 00 00 00      	ldxdw r1, [r4 + 0x38]
    75e8: 18 02 00 00 1c b4 85 ed 00 00 00 00 5f 5b 37 91      	lddw r2, -0x6ec8a4a0127a4be4
    75f8: 5d 21 21 07 00 00 00 00      	jne r1, r2, +0x721 <entrypoint+0xa6e0>
    7600: 79 41 40 00 00 00 00 00      	ldxdw r1, [r4 + 0x40]
    7608: 18 02 00 00 3a 8c f5 85 00 00 00 00 7e ff 00 a9      	lddw r2, -0x56ff00817a0a73c6
    7618: 5d 21 1d 07 00 00 00 00      	jne r1, r2, +0x71d <entrypoint+0xa6e0>
    7620: 55 07 e7 01 01 00 00 00      	jne r7, 0x1, +0x1e7 <entrypoint+0x7d38>
    7628: bf 49 00 00 00 00 00 00      	mov64 r9, r4
    7630: bf a1 00 00 00 00 00 00      	mov64 r1, r10
    7638: 07 01 00 00 e0 ff ff ff      	add64 r1, -0x20
    7640: 85 10 00 00 6c 1e 00 00      	call 0x1e6c
    7648: 61 a1 e0 ff 00 00 00 00      	ldxw r1, [r10 - 0x20]
    7650: 55 01 58 04 00 00 00 00      	jne r1, 0x0, +0x458 <entrypoint+0x90f0>
    7658: 79 a6 f0 ff 00 00 00 00      	ldxdw r6, [r10 - 0x10]
    7660: 79 a2 e8 ff 00 00 00 00      	ldxdw r2, [r10 - 0x18]
    7668: bf 94 00 00 00 00 00 00      	mov64 r4, r9
    7670: 79 48 50 00 00 00 00 00      	ldxdw r8, [r4 + 0x50]
    7678: bf 81 00 00 00 00 00 00      	mov64 r1, r8
    7680: 07 01 00 00 80 00 00 00      	add64 r1, 0x80
    7688: 2f 21 00 00 00 00 00 00      	mul64 r1, r2
    7690: 18 02 00 00 00 00 00 00 00 00 00 00 00 00 f0 3f      	lddw r2, 0x3ff0000000000000
    76a0: 1d 26 3d 04 00 00 00 00      	jeq r6, r2, +0x43d <entrypoint+0x9068>
    76a8: 18 02 00 00 00 00 00 00 00 00 00 00 00 00 00 40      	lddw r2, 0x4000000000000000
    76b8: 1d 26 f1 01 00 00 00 00      	jeq r6, r2, +0x1f1 <entrypoint+0x7e20>
    76c0: 85 10 00 00 a6 21 00 00      	call 0x21a6
    76c8: bf 61 00 00 00 00 00 00      	mov64 r1, r6
    76d0: bf 02 00 00 00 00 00 00      	mov64 r2, r0
    76d8: 85 10 00 00 03 22 00 00      	call 0x2203
    76e0: bf 06 00 00 00 00 00 00      	mov64 r6, r0
    76e8: b7 01 00 00 00 00 00 00      	mov64 r1, 0x0
    76f0: 7b 1a d8 f7 00 00 00 00      	stxdw [r10 - 0x828], r1
    76f8: bf 61 00 00 00 00 00 00      	mov64 r1, r6
    7700: b7 02 00 00 00 00 00 00      	mov64 r2, 0x0
    7708: 85 10 00 00 dd 21 00 00      	call 0x21dd
    7710: bf 07 00 00 00 00 00 00      	mov64 r7, r0
    7718: bf 61 00 00 00 00 00 00      	mov64 r1, r6
    7720: 85 10 00 00 f7 22 00 00      	call 0x22f7
    7728: c5 07 01 00 00 00 00 00      	jslt r7, 0x0, +0x1 <entrypoint+0x6f10>
    7730: 7b 0a d8 f7 00 00 00 00      	stxdw [r10 - 0x828], r0
    7738: bf 61 00 00 00 00 00 00      	mov64 r1, r6
    7740: 18 02 00 00 ff ff ff ff 00 00 00 00 ff ff ef 43      	lddw r2, 0x43efffffffffffff
    7750: 85 10 00 00 33 23 00 00      	call 0x2333
    7758: b7 01 00 00 ff ff ff ff      	mov64 r1, -0x1
    7760: 65 00 01 00 00 00 00 00      	jsgt r0, 0x0, +0x1 <entrypoint+0x6f48>
    7768: 79 a1 d8 f7 00 00 00 00      	ldxdw r1, [r10 - 0x828]
    7770: bf 94 00 00 00 00 00 00      	mov64 r4, r9
    7778: 05 00 22 04 00 00 00 00      	ja +0x422 <entrypoint+0x9068>
    7780: b7 06 00 00 00 00 00 00      	mov64 r6, 0x0
    7788: b7 01 00 00 06 00 00 00      	mov64 r1, 0x6
    7790: 7b 1a b0 f7 00 00 00 00      	stxdw [r10 - 0x850], r1
    7798: 79 a9 b0 f7 00 00 00 00      	ldxdw r9, [r10 - 0x850]
    77a0: bf 61 00 00 00 00 00 00      	mov64 r1, r6
    77a8: bf 92 00 00 00 00 00 00      	mov64 r2, r9
    77b0: 85 10 00 00 ea 0d 00 00      	call 0xdea
    77b8: bf 61 00 00 00 00 00 00      	mov64 r1, r6
    77c0: bf 92 00 00 00 00 00 00      	mov64 r2, r9
    77c8: 85 10 00 00 9f f1 ff ff      	call -0xe61
    77d0: 95 00 00 00 00 00 00 00      	exit
    77d8: 15 05 6e 00 07 00 00 00      	jeq r5, 0x7, +0x6e <entrypoint+0x7328>
    77e0: 15 05 00 01 08 00 00 00      	jeq r5, 0x8, +0x100 <entrypoint+0x77c0>
    77e8: 55 05 37 01 09 00 00 00      	jne r5, 0x9, +0x137 <entrypoint+0x7980>
    77f0: a5 07 ab 01 03 00 00 00      	jlt r7, 0x3, +0x1ab <entrypoint+0x7d28>
    77f8: 79 a3 f0 f7 00 00 00 00      	ldxdw r3, [r10 - 0x810]
    7800: 1d 34 ac 03 00 00 00 00      	jeq r4, r3, +0x3ac <entrypoint+0x8d40>
    7808: b7 09 00 00 00 00 00 00      	mov64 r9, 0x0
    7810: 79 41 50 00 00 00 00 00      	ldxdw r1, [r4 + 0x50]
    7818: 55 01 4a 05 a5 00 00 00      	jne r1, 0xa5, +0x54a <entrypoint+0x9a48>
    7820: 71 41 c4 00 00 00 00 00      	ldxb r1, [r4 + 0xc4]
    7828: 25 01 48 05 02 00 00 00      	jgt r1, 0x2, +0x548 <entrypoint+0x9a48>
    7830: 15 01 c3 05 00 00 00 00      	jeq r1, 0x0, +0x5c3 <entrypoint+0x9e28>
    7838: 71 41 c5 00 00 00 00 00      	ldxb r1, [r4 + 0xc5]
    7840: 15 01 02 00 01 00 00 00      	jeq r1, 0x1, +0x2 <entrypoint+0x7030>
    7848: 79 41 98 00 00 00 00 00      	ldxdw r1, [r4 + 0x98]
    7850: 55 01 b5 05 00 00 00 00      	jne r1, 0x0, +0x5b5 <entrypoint+0x9dd8>
    7858: 71 41 d9 00 00 00 00 00      	ldxb r1, [r4 + 0xd9]
    7860: 15 01 c1 01 01 00 00 00      	jeq r1, 0x1, +0x1c1 <entrypoint+0x7e48>
    7868: bf 41 00 00 00 00 00 00      	mov64 r1, r4
    7870: 07 01 00 00 78 00 00 00      	add64 r1, 0x78
    7878: 05 00 c0 01 00 00 00 00      	ja +0x1c0 <entrypoint+0x7e58>
    7880: 15 05 a3 00 12 00 00 00      	jeq r5, 0x12, +0xa3 <entrypoint+0x7578>
    7888: 15 05 1d 01 14 00 00 00      	jeq r5, 0x14, +0x11d <entrypoint+0x7950>
    7890: 55 05 22 01 16 00 00 00      	jne r5, 0x16, +0x122 <entrypoint+0x7980>
    7898: b7 09 00 00 00 00 00 00      	mov64 r9, 0x0
    78a0: 15 07 8b 04 00 00 00 00      	jeq r7, 0x0, +0x48b <entrypoint+0x94d8>
    78a8: 79 41 50 00 00 00 00 00      	ldxdw r1, [r4 + 0x50]
    78b0: 55 01 37 05 a5 00 00 00      	jne r1, 0xa5, +0x537 <entrypoint+0x9a48>
    78b8: 71 41 c4 00 00 00 00 00      	ldxb r1, [r4 + 0xc4]
    78c0: 25 01 2f 05 02 00 00 00      	jgt r1, 0x2, +0x52f <entrypoint+0x9a18>
    78c8: b7 09 00 00 06 00 00 00      	mov64 r9, 0x6
    78d0: b7 00 00 00 00 00 00 00      	mov64 r0, 0x0
    78d8: 15 01 de ff 00 00 00 00      	jeq r1, 0x0, -0x22 <entrypoint+0x6fa8>
    78e0: b7 06 00 00 00 00 00 00      	mov64 r6, 0x0
    78e8: 05 00 d6 ff 00 00 00 00      	ja -0x2a <entrypoint+0x6f78>
    78f0: 15 03 6f f2 01 00 00 00      	jeq r3, 0x1, -0xd91 <entrypoint+0x448>
    78f8: 71 13 00 00 00 00 00 00      	ldxb r3, [r1 + 0x0]
    7900: 55 03 87 07 ff 00 00 00      	jne r3, 0xff, +0x787 <entrypoint+0xad18>
    7908: 7b 12 08 00 00 00 00 00      	stxdw [r2 + 0x8], r1
    7910: 05 00 67 f2 00 00 00 00      	ja -0xd99 <entrypoint+0x428>
    7918: b7 00 00 00 00 00 00 00      	mov64 r0, 0x0
    7920: 05 00 d5 ff 00 00 00 00      	ja -0x2b <entrypoint+0x6fa8>
    7928: 71 13 00 00 00 00 00 00      	ldxb r3, [r1 + 0x0]
    7930: 55 03 33 07 ff 00 00 00      	jne r3, 0xff, +0x733 <entrypoint+0xaaa8>
    7938: 7b 12 08 00 00 00 00 00      	stxdw [r2 + 0x8], r1
    7940: 79 13 50 00 00 00 00 00      	ldxdw r3, [r1 + 0x50]
    7948: 0f 31 00 00 00 00 00 00      	add64 r1, r3
    7950: 07 01 00 00 67 28 00 00      	add64 r1, 0x2867
    7958: 57 01 00 00 f8 ff ff ff      	and64 r1, -0x8
    7960: 71 13 00 00 00 00 00 00      	ldxb r3, [r1 + 0x0]
    7968: 55 03 35 07 ff 00 00 00      	jne r3, 0xff, +0x735 <entrypoint+0xaaf0>
    7970: 7b 12 10 00 00 00 00 00      	stxdw [r2 + 0x10], r1
    7978: 05 00 5a f2 00 00 00 00      	ja -0xda6 <entrypoint+0x428>
    7980: 71 13 00 00 00 00 00 00      	ldxb r3, [r1 + 0x0]
    7988: 55 03 53 07 ff 00 00 00      	jne r3, 0xff, +0x753 <entrypoint+0xac00>
    7990: 7b 12 08 00 00 00 00 00      	stxdw [r2 + 0x8], r1
    7998: 79 13 50 00 00 00 00 00      	ldxdw r3, [r1 + 0x50]
    79a0: 0f 31 00 00 00 00 00 00      	add64 r1, r3
    79a8: 07 01 00 00 67 28 00 00      	add64 r1, 0x2867
    79b0: 57 01 00 00 f8 ff ff ff      	and64 r1, -0x8
    79b8: 71 13 00 00 00 00 00 00      	ldxb r3, [r1 + 0x0]
    79c0: 55 03 55 07 ff 00 00 00      	jne r3, 0xff, +0x755 <entrypoint+0xac48>
    79c8: 7b 12 10 00 00 00 00 00      	stxdw [r2 + 0x10], r1
    79d0: 79 13 50 00 00 00 00 00      	ldxdw r3, [r1 + 0x50]
    79d8: 0f 31 00 00 00 00 00 00      	add64 r1, r3
    79e0: 07 01 00 00 67 28 00 00      	add64 r1, 0x2867
    79e8: 57 01 00 00 f8 ff ff ff      	and64 r1, -0x8
    79f0: 71 13 00 00 00 00 00 00      	ldxb r3, [r1 + 0x0]
    79f8: 55 03 57 07 ff 00 00 00      	jne r3, 0xff, +0x757 <entrypoint+0xac90>
    7a00: 7b 12 18 00 00 00 00 00      	stxdw [r2 + 0x18], r1
    7a08: 79 13 50 00 00 00 00 00      	ldxdw r3, [r1 + 0x50]
    7a10: 0f 31 00 00 00 00 00 00      	add64 r1, r3
    7a18: 07 01 00 00 67 28 00 00      	add64 r1, 0x2867
    7a20: 57 01 00 00 f8 ff ff ff      	and64 r1, -0x8
    7a28: 71 13 00 00 00 00 00 00      	ldxb r3, [r1 + 0x0]
    7a30: 55 03 59 07 ff 00 00 00      	jne r3, 0xff, +0x759 <entrypoint+0xacd8>
    7a38: 7b 12 20 00 00 00 00 00      	stxdw [r2 + 0x20], r1
    7a40: 05 00 41 f2 00 00 00 00      	ja -0xdbf <entrypoint+0x428>
    7a48: a5 09 5d 01 22 00 00 00      	jlt r9, 0x22, +0x15d <entrypoint+0x7d10>
    7a50: 71 05 09 00 00 00 00 00      	ldxb r5, [r0 + 0x9]
    7a58: 71 01 2a 00 00 00 00 00      	ldxb r1, [r0 + 0x2a]
    7a60: 55 01 18 01 00 00 00 00      	jne r1, 0x0, +0x118 <entrypoint+0x7b00>
    7a68: b7 09 00 00 00 00 00 00      	mov64 r9, 0x0
    7a70: 05 00 1a 01 00 00 00 00      	ja +0x11a <entrypoint+0x7b20>
    7a78: a5 09 05 07 09 00 00 00      	jlt r9, 0x9, +0x705 <entrypoint+0xaa80>
    7a80: a5 07 10 01 04 00 00 00      	jlt r7, 0x4, +0x110 <entrypoint+0x7ae0>
    7a88: b7 08 00 00 03 00 00 00      	mov64 r8, 0x3
    7a90: 79 41 50 00 00 00 00 00      	ldxdw r1, [r4 + 0x50]
    7a98: 55 01 d2 01 a5 00 00 00      	jne r1, 0xa5, +0x1d2 <entrypoint+0x8108>
    7aa0: 71 42 c4 00 00 00 00 00      	ldxb r2, [r4 + 0xc4]
    7aa8: 25 02 d0 01 02 00 00 00      	jgt r2, 0x2, +0x1d0 <entrypoint+0x8108>
    7ab0: 7b 4a e0 f7 00 00 00 00      	stxdw [r10 - 0x820], r4
    7ab8: 15 02 75 07 00 00 00 00      	jeq r2, 0x0, +0x775 <entrypoint+0xae40>
    7ac0: 71 01 11 00 00 00 00 00      	ldxb r1, [r0 + 0x11]
    7ac8: 79 09 09 00 00 00 00 00      	ldxdw r9, [r0 + 0x9]
    7ad0: 79 a3 f8 f7 00 00 00 00      	ldxdw r3, [r10 - 0x808]
    7ad8: 79 a4 e0 f7 00 00 00 00      	ldxdw r4, [r10 - 0x820]
    7ae0: 1d 34 e4 07 00 00 00 00      	jeq r4, r3, +0x7e4 <entrypoint+0xb1e0>
    7ae8: 79 35 50 00 00 00 00 00      	ldxdw r5, [r3 + 0x50]
    7af0: 55 05 c7 01 a5 00 00 00      	jne r5, 0xa5, +0x1c7 <entrypoint+0x8108>
    7af8: 71 35 c4 00 00 00 00 00      	ldxb r5, [r3 + 0xc4]
    7b00: 25 05 c5 01 02 00 00 00      	jgt r5, 0x2, +0x1c5 <entrypoint+0x8108>
    7b08: 15 05 6b 07 00 00 00 00      	jeq r5, 0x0, +0x76b <entrypoint+0xae40>
    7b10: b7 08 00 00 00 00 00 00      	mov64 r8, 0x0
    7b18: 15 02 9d 04 02 00 00 00      	jeq r2, 0x2, +0x49d <entrypoint+0x97e0>
    7b20: 15 05 9c 04 02 00 00 00      	jeq r5, 0x2, +0x49c <entrypoint+0x97e0>
    7b28: 79 a4 e0 f7 00 00 00 00      	ldxdw r4, [r10 - 0x820]
    7b30: 79 45 98 00 00 00 00 00      	ldxdw r5, [r4 + 0x98]
    7b38: 3d 95 31 05 00 00 00 00      	jge r5, r9, +0x531 <entrypoint+0x9ca0>
    7b40: b7 06 00 00 01 00 00 00      	mov64 r6, 0x1
    7b48: 05 00 bd 01 00 00 00 00      	ja +0x1bd <entrypoint+0x8110>
    7b50: a5 09 3c 01 08 00 00 00      	jlt r9, 0x8, +0x13c <entrypoint+0x7d10>
    7b58: a5 07 3e 01 03 00 00 00      	jlt r7, 0x3, +0x13e <entrypoint+0x7d28>
    7b60: b7 06 00 00 03 00 00 00      	mov64 r6, 0x3
    7b68: b7 09 00 00 00 00 00 00      	mov64 r9, 0x0
    7b70: 79 a3 f0 f7 00 00 00 00      	ldxdw r3, [r10 - 0x810]
    7b78: 79 31 50 00 00 00 00 00      	ldxdw r1, [r3 + 0x50]
    7b80: 55 01 83 ff a5 00 00 00      	jne r1, 0xa5, -0x7d <entrypoint+0x6f78>
    7b88: 71 31 c4 00 00 00 00 00      	ldxb r1, [r3 + 0xc4]
    7b90: 25 01 81 ff 02 00 00 00      	jgt r1, 0x2, -0x7f <entrypoint+0x6f78>
    7b98: 15 01 57 01 02 00 00 00      	jeq r1, 0x2, +0x157 <entrypoint+0x7e30>
    7ba0: 15 01 55 05 00 00 00 00      	jeq r1, 0x0, +0x555 <entrypoint+0x9e28>
    7ba8: b7 06 00 00 00 00 00 00      	mov64 r6, 0x0
    7bb0: 71 31 c5 00 00 00 00 00      	ldxb r1, [r3 + 0xc5]
    7bb8: 15 01 42 07 01 00 00 00      	jeq r1, 0x1, +0x742 <entrypoint+0xada8>
    7bc0: b7 09 00 00 03 00 00 00      	mov64 r9, 0x3
    7bc8: 79 31 58 00 00 00 00 00      	ldxdw r1, [r3 + 0x58]
    7bd0: 79 42 08 00 00 00 00 00      	ldxdw r2, [r4 + 0x8]
    7bd8: 5d 12 78 ff 00 00 00 00      	jne r2, r1, -0x88 <entrypoint+0x6f78>
    7be0: 79 31 60 00 00 00 00 00      	ldxdw r1, [r3 + 0x60]
    7be8: 79 42 10 00 00 00 00 00      	ldxdw r2, [r4 + 0x10]
    7bf0: 5d 12 75 ff 00 00 00 00      	jne r2, r1, -0x8b <entrypoint+0x6f78>
    7bf8: bf 70 00 00 00 00 00 00      	mov64 r0, r7
    7c00: 79 31 68 00 00 00 00 00      	ldxdw r1, [r3 + 0x68]
    7c08: 79 42 18 00 00 00 00 00      	ldxdw r2, [r4 + 0x18]
    7c10: 5d 12 71 ff 00 00 00 00      	jne r2, r1, -0x8f <entrypoint+0x6f78>
    7c18: 79 31 70 00 00 00 00 00      	ldxdw r1, [r3 + 0x70]
    7c20: bf 47 00 00 00 00 00 00      	mov64 r7, r4
    7c28: 79 42 20 00 00 00 00 00      	ldxdw r2, [r4 + 0x20]
    7c30: 5d 12 6d ff 00 00 00 00      	jne r2, r1, -0x93 <entrypoint+0x6f78>
    7c38: b7 09 00 00 00 00 00 00      	mov64 r9, 0x0
    7c40: bf 74 00 00 00 00 00 00      	mov64 r4, r7
    7c48: 79 41 50 00 00 00 00 00      	ldxdw r1, [r4 + 0x50]
    7c50: 55 01 c3 04 52 00 00 00      	jne r1, 0x52, +0x4c3 <entrypoint+0x9a48>
    7c58: 71 41 85 00 00 00 00 00      	ldxb r1, [r4 + 0x85]
    7c60: 55 01 c0 04 01 00 00 00      	jne r1, 0x1, +0x4c0 <entrypoint+0x9a40>
    7c68: 71 41 58 00 00 00 00 00      	ldxb r1, [r4 + 0x58]
    7c70: 55 01 36 05 01 00 00 00      	jne r1, 0x1, +0x536 <entrypoint+0x9e00>
    7c78: b7 09 00 00 04 00 00 00      	mov64 r9, 0x4
    7c80: 79 a5 f8 f7 00 00 00 00      	ldxdw r5, [r10 - 0x808]
    7c88: 79 51 08 00 00 00 00 00      	ldxdw r1, [r5 + 0x8]
    7c90: 79 42 5c 00 00 00 00 00      	ldxdw r2, [r4 + 0x5c]
    7c98: 5d 12 60 ff 00 00 00 00      	jne r2, r1, -0xa0 <entrypoint+0x6f78>
    7ca0: 79 51 10 00 00 00 00 00      	ldxdw r1, [r5 + 0x10]
    7ca8: 79 42 64 00 00 00 00 00      	ldxdw r2, [r4 + 0x64]
    7cb0: 5d 12 5d ff 00 00 00 00      	jne r2, r1, -0xa3 <entrypoint+0x6f78>
    7cb8: 79 51 18 00 00 00 00 00      	ldxdw r1, [r5 + 0x18]
    7cc0: 79 42 6c 00 00 00 00 00      	ldxdw r2, [r4 + 0x6c]
    7cc8: 5d 12 5a ff 00 00 00 00      	jne r2, r1, -0xa6 <entrypoint+0x6f78>
    7cd0: 79 51 20 00 00 00 00 00      	ldxdw r1, [r5 + 0x20]
    7cd8: 79 42 74 00 00 00 00 00      	ldxdw r2, [r4 + 0x74]
    7ce0: 5d 12 57 ff 00 00 00 00      	jne r2, r1, -0xa9 <entrypoint+0x6f78>
    7ce8: 79 84 00 00 00 00 00 00      	ldxdw r4, [r8 + 0x0]
    7cf0: 79 51 50 00 00 00 00 00      	ldxdw r1, [r5 + 0x50]
    7cf8: 55 01 6f 04 63 01 00 00      	jne r1, 0x163, +0x46f <entrypoint+0x9850>
    7d00: 79 51 28 00 00 00 00 00      	ldxdw r1, [r5 + 0x28]
    7d08: 18 02 00 00 06 dd f6 e1 00 00 00 00 ee 75 8f de      	lddw r2, -0x21708a111e0922fa
    7d18: 1d 21 5f 04 00 00 00 00      	jeq r1, r2, +0x45f <entrypoint+0x97f0>
    7d20: 18 02 00 00 06 dd f6 e1 00 00 00 00 d7 65 a1 93      	lddw r2, -0x6c5e9a281e0922fa
    7d30: 5d 21 68 04 00 00 00 00      	jne r1, r2, +0x468 <entrypoint+0x9850>
    7d38: 79 51 30 00 00 00 00 00      	ldxdw r1, [r5 + 0x30]
    7d40: 18 02 00 00 d9 cb e1 46 00 00 00 00 ce eb 79 ac      	lddw r2, -0x53861431b91e3427
    7d50: 5d 21 64 04 00 00 00 00      	jne r1, r2, +0x464 <entrypoint+0x9850>
    7d58: 79 51 38 00 00 00 00 00      	ldxdw r1, [r5 + 0x38]
    7d60: 18 02 00 00 1c b4 85 ed 00 00 00 00 5f 5b 37 91      	lddw r2, -0x6ec8a4a0127a4be4
    7d70: 5d 21 60 04 00 00 00 00      	jne r1, r2, +0x460 <entrypoint+0x9850>
    7d78: 79 51 40 00 00 00 00 00      	ldxdw r1, [r5 + 0x40]
    7d80: 18 02 00 00 3a 8c f5 85 00 00 00 00 7e ff 00 a9      	lddw r2, -0x56ff00817a0a73c6
    7d90: 5d 21 5c 04 00 00 00 00      	jne r1, r2, +0x45c <entrypoint+0x9850>
    7d98: 05 00 93 07 00 00 00 00      	ja +0x793 <entrypoint+0xb210>
    7da0: b5 09 f2 00 1f 00 00 00      	jle r9, 0x1f, +0xf2 <entrypoint+0x7d10>
    7da8: a5 07 f4 00 02 00 00 00      	jlt r7, 0x2, +0xf4 <entrypoint+0x7d28>
    7db0: 79 46 50 00 00 00 00 00      	ldxdw r6, [r4 + 0x50]
    7db8: bf a1 00 00 00 00 00 00      	mov64 r1, r10
    7dc0: 07 01 00 00 e0 ff ff ff      	add64 r1, -0x20
    7dc8: 85 10 00 00 7b 1d 00 00      	call 0x1d7b
    7dd0: 61 a1 e0 ff 00 00 00 00      	ldxw r1, [r10 - 0x20]
    7dd8: 15 01 67 03 01 00 00 00      	jeq r1, 0x1, +0x367 <entrypoint+0x90f0>
    7de0: 07 06 00 00 80 00 00 00      	add64 r6, 0x80
    7de8: 79 a1 e8 ff 00 00 00 00      	ldxdw r1, [r10 - 0x18]
    7df0: 2f 61 00 00 00 00 00 00      	mul64 r1, r6
    7df8: 79 a6 f0 ff 00 00 00 00      	ldxdw r6, [r10 - 0x10]
    7e00: 18 02 00 00 00 00 00 00 00 00 00 00 00 00 f0 3f      	lddw r2, 0x3ff0000000000000
    7e10: 1d 26 35 02 00 00 00 00      	jeq r6, r2, +0x235 <entrypoint+0x8798>
    7e18: 18 02 00 00 00 00 00 00 00 00 00 00 00 00 00 40      	lddw r2, 0x4000000000000000
    7e28: 5d 26 1d 02 00 00 00 00      	jne r6, r2, +0x21d <entrypoint+0x86f0>
    7e30: 67 01 00 00 01 00 00 00      	lsh64 r1, 0x1
    7e38: 05 00 30 02 00 00 00 00      	ja +0x230 <entrypoint+0x8798>
    7e40: a5 07 e1 00 03 00 00 00      	jlt r7, 0x3, +0xe1 <entrypoint+0x7d28>
    7e48: b7 09 00 00 00 00 00 00      	mov64 r9, 0x0
    7e50: 15 07 d5 03 03 00 00 00      	jeq r7, 0x3, +0x3d5 <entrypoint+0x94d8>
    7e58: 79 a2 00 f8 00 00 00 00      	ldxdw r2, [r10 - 0x800]
    7e60: 79 21 08 00 00 00 00 00      	ldxdw r1, [r2 + 0x8]
    7e68: 18 03 00 00 06 a7 d5 17 00 00 00 00 19 2c 5c 51      	lddw r3, 0x515c2c1917d5a706
    7e78: 5d 31 3f 06 00 00 00 00      	jne r1, r3, +0x63f <entrypoint+0xa850>
    7e80: 79 21 10 00 00 00 00 00      	ldxdw r1, [r2 + 0x10]
    7e88: 18 03 00 00 21 8c c9 4c 00 00 00 00 3d 4a f1 7f      	lddw r3, 0x7ff14a3d4cc98c21
    7e98: 5d 31 3b 06 00 00 00 00      	jne r1, r3, +0x63b <entrypoint+0xa850>
    7ea0: 79 21 18 00 00 00 00 00      	ldxdw r1, [r2 + 0x18]
    7ea8: 18 03 00 00 58 da ee 08 00 00 00 00 9b a1 fd 44      	lddw r3, 0x44fda19b08eeda58
    7eb8: 5d 31 37 06 00 00 00 00      	jne r1, r3, +0x637 <entrypoint+0xa850>
    7ec0: 79 21 20 00 00 00 00 00      	ldxdw r1, [r2 + 0x20]
    7ec8: 18 03 00 00 e3 db d9 8a 00 00 00 00 00 00 00 00      	lddw r3, 0x8ad9dbe3
    7ed8: 5d 31 33 06 00 00 00 00      	jne r1, r3, +0x633 <entrypoint+0xa850>
    7ee0: 79 49 50 00 00 00 00 00      	ldxdw r9, [r4 + 0x50]
    7ee8: 79 a8 f8 f7 00 00 00 00      	ldxdw r8, [r10 - 0x808]
    7ef0: bf 93 00 00 00 00 00 00      	mov64 r3, r9
    7ef8: 07 03 00 00 80 00 00 00      	add64 r3, 0x80
    7f00: 79 21 58 00 00 00 00 00      	ldxdw r1, [r2 + 0x58]
    7f08: 2f 31 00 00 00 00 00 00      	mul64 r1, r3
    7f10: 79 26 60 00 00 00 00 00      	ldxdw r6, [r2 + 0x60]
    7f18: 18 02 00 00 00 00 00 00 00 00 00 00 00 00 f0 3f      	lddw r2, 0x3ff0000000000000
    7f28: 7b 4a e0 f7 00 00 00 00      	stxdw [r10 - 0x820], r4
    7f30: 1d 26 5e 01 00 00 00 00      	jeq r6, r2, +0x15e <entrypoint+0x8200>
    7f38: 18 02 00 00 00 00 00 00 00 00 00 00 00 00 00 40      	lddw r2, 0x4000000000000000
    7f48: 5d 26 45 01 00 00 00 00      	jne r6, r2, +0x145 <entrypoint+0x8150>
    7f50: 67 01 00 00 01 00 00 00      	lsh64 r1, 0x1
    7f58: 05 00 59 01 00 00 00 00      	ja +0x159 <entrypoint+0x8200>
    7f60: a5 09 68 06 09 00 00 00      	jlt r9, 0x9, +0x668 <entrypoint+0xaa80>
    7f68: a5 07 75 00 03 00 00 00      	jlt r7, 0x3, +0x75 <entrypoint+0x7af0>
    7f70: b7 08 00 00 03 00 00 00      	mov64 r8, 0x3
    7f78: b7 09 00 00 00 00 00 00      	mov64 r9, 0x0
    7f80: 79 41 50 00 00 00 00 00      	ldxdw r1, [r4 + 0x50]
    7f88: 55 01 36 01 a5 00 00 00      	jne r1, 0xa5, +0x136 <entrypoint+0x8118>
    7f90: 71 41 c4 00 00 00 00 00      	ldxb r1, [r4 + 0xc4]
    7f98: 25 01 34 01 02 00 00 00      	jgt r1, 0x2, +0x134 <entrypoint+0x8118>
    7fa0: 15 01 06 00 00 00 00 00      	jeq r1, 0x0, +0x6 <entrypoint+0x77b0>
    7fa8: 79 a3 f0 f7 00 00 00 00      	ldxdw r3, [r10 - 0x810]
    7fb0: 79 32 50 00 00 00 00 00      	ldxdw r2, [r3 + 0x50]
    7fb8: 55 02 30 01 52 00 00 00      	jne r2, 0x52, +0x130 <entrypoint+0x8118>
    7fc0: 71 32 85 00 00 00 00 00      	ldxb r2, [r3 + 0x85]
    7fc8: 15 02 d5 03 01 00 00 00      	jeq r2, 0x1, +0x3d5 <entrypoint+0x9650>
    7fd0: 55 02 2d 01 00 00 00 00      	jne r2, 0x0, +0x12d <entrypoint+0x8118>
    7fd8: b7 08 00 00 09 00 00 00      	mov64 r8, 0x9
    7fe0: 05 00 2b 01 00 00 00 00      	ja +0x12b <entrypoint+0x8118>
    7fe8: a5 09 a9 00 08 00 00 00      	jlt r9, 0x8, +0xa9 <entrypoint+0x7d10>
    7ff0: a5 07 ab 00 03 00 00 00      	jlt r7, 0x3, +0xab <entrypoint+0x7d28>
    7ff8: b7 06 00 00 03 00 00 00      	mov64 r6, 0x3
    8000: b7 09 00 00 00 00 00 00      	mov64 r9, 0x0
    8008: 79 41 50 00 00 00 00 00      	ldxdw r1, [r4 + 0x50]
    8010: 55 01 f1 fe a5 00 00 00      	jne r1, 0xa5, -0x10f <entrypoint+0x6f78>
    8018: 71 41 c4 00 00 00 00 00      	ldxb r1, [r4 + 0xc4]
    8020: 25 01 ef fe 02 00 00 00      	jgt r1, 0x2, -0x111 <entrypoint+0x6f78>
    8028: 15 01 c4 04 00 00 00 00      	jeq r1, 0x0, +0x4c4 <entrypoint+0x9e28>
    8030: 79 a3 f0 f7 00 00 00 00      	ldxdw r3, [r10 - 0x810]
    8038: 79 32 50 00 00 00 00 00      	ldxdw r2, [r3 + 0x50]
    8040: 55 02 eb fe 52 00 00 00      	jne r2, 0x52, -0x115 <entrypoint+0x6f78>
    8048: 71 32 85 00 00 00 00 00      	ldxb r2, [r3 + 0x85]
    8050: 55 02 9a 03 01 00 00 00      	jne r2, 0x1, +0x39a <entrypoint+0x9500>
    8058: b7 06 00 00 00 00 00 00      	mov64 r6, 0x0
    8060: b7 09 00 00 11 00 00 00      	mov64 r9, 0x11
    8068: 15 01 e6 fe 02 00 00 00      	jeq r1, 0x2, -0x11a <entrypoint+0x6f78>
    8070: 71 41 c5 00 00 00 00 00      	ldxb r1, [r4 + 0xc5]
    8078: bf 40 00 00 00 00 00 00      	mov64 r0, r4
    8080: 15 01 a9 06 01 00 00 00      	jeq r1, 0x1, +0x6a9 <entrypoint+0xada8>
    8088: 79 85 00 00 00 00 00 00      	ldxdw r5, [r8 + 0x0]
    8090: b7 09 00 00 01 00 00 00      	mov64 r9, 0x1
    8098: 79 04 98 00 00 00 00 00      	ldxdw r4, [r0 + 0x98]
    80a0: ad 54 df fe 00 00 00 00      	jlt r4, r5, -0x121 <entrypoint+0x6f78>
    80a8: 79 01 58 00 00 00 00 00      	ldxdw r1, [r0 + 0x58]
    80b0: 79 32 08 00 00 00 00 00      	ldxdw r2, [r3 + 0x8]
    80b8: 5d 12 98 06 00 00 00 00      	jne r2, r1, +0x698 <entrypoint+0xad58>
    80c0: 79 01 60 00 00 00 00 00      	ldxdw r1, [r0 + 0x60]
    80c8: 79 32 10 00 00 00 00 00      	ldxdw r2, [r3 + 0x10]
    80d0: 5d 12 95 06 00 00 00 00      	jne r2, r1, +0x695 <entrypoint+0xad58>
    80d8: 79 01 68 00 00 00 00 00      	ldxdw r1, [r0 + 0x68]
    80e0: 79 32 18 00 00 00 00 00      	ldxdw r2, [r3 + 0x18]
    80e8: 5d 12 92 06 00 00 00 00      	jne r2, r1, +0x692 <entrypoint+0xad58>
    80f0: 7b 4a d0 f7 00 00 00 00      	stxdw [r10 - 0x830], r4
    80f8: 79 01 70 00 00 00 00 00      	ldxdw r1, [r0 + 0x70]
    8100: 79 32 20 00 00 00 00 00      	ldxdw r2, [r3 + 0x20]
    8108: 5d 12 8e 06 00 00 00 00      	jne r2, r1, +0x68e <entrypoint+0xad58>
    8110: bf 04 00 00 00 00 00 00      	mov64 r4, r0
    8118: 79 01 78 00 00 00 00 00      	ldxdw r1, [r0 + 0x78]
    8120: 18 02 00 00 00 33 90 72 00 00 00 00 8d 34 11 60      	lddw r2, 0x6011348d72903300
    8130: 1d 21 1d 03 00 00 00 00      	jeq r1, r2, +0x31d <entrypoint+0x91f8>
    8138: 55 01 28 03 00 00 00 00      	jne r1, 0x0, +0x328 <entrypoint+0x9258>
    8140: 79 42 80 00 00 00 00 00      	ldxdw r2, [r4 + 0x80]
    8148: 55 02 26 03 00 00 00 00      	jne r2, 0x0, +0x326 <entrypoint+0x9258>
    8150: 79 42 88 00 00 00 00 00      	ldxdw r2, [r4 + 0x88]
    8158: 55 02 24 03 00 00 00 00      	jne r2, 0x0, +0x324 <entrypoint+0x9258>
    8160: 79 42 90 00 00 00 00 00      	ldxdw r2, [r4 + 0x90]
    8168: 55 02 22 03 00 00 00 00      	jne r2, 0x0, +0x322 <entrypoint+0x9258>
    8170: 05 00 10 04 00 00 00 00      	ja +0x410 <entrypoint+0x99d0>
    8178: a5 09 77 00 22 00 00 00      	jlt r9, 0x22, +0x77 <entrypoint+0x7d10>
    8180: 71 08 09 00 00 00 00 00      	ldxb r8, [r0 + 0x9]
    8188: 71 01 2a 00 00 00 00 00      	ldxb r1, [r0 + 0x2a]
    8190: 55 01 58 00 00 00 00 00      	jne r1, 0x0, +0x58 <entrypoint+0x7c30>
    8198: b7 09 00 00 00 00 00 00      	mov64 r9, 0x0
    81a0: 05 00 5a 00 00 00 00 00      	ja +0x5a <entrypoint+0x7c50>
    81a8: bf a1 00 00 00 00 00 00      	mov64 r1, r10
    81b0: 07 01 00 00 e8 f7 ff ff      	add64 r1, -0x818
    81b8: bf 72 00 00 00 00 00 00      	mov64 r2, r7
    81c0: bf 83 00 00 00 00 00 00      	mov64 r3, r8
    81c8: bf 94 00 00 00 00 00 00      	mov64 r4, r9
    81d0: 85 10 00 00 40 0d 00 00      	call 0xd40
    81d8: bf 08 00 00 00 00 00 00      	mov64 r8, r0
    81e0: bf 19 00 00 00 00 00 00      	mov64 r9, r1
    81e8: 05 00 ea 00 00 00 00 00      	ja +0xea <entrypoint+0x8118>
    81f0: b7 09 00 00 04 00 00 00      	mov64 r9, 0x4
    81f8: 79 42 78 00 00 00 00 00      	ldxdw r2, [r4 + 0x78]
    8200: 5d 12 db fe 00 00 00 00      	jne r2, r1, -0x125 <entrypoint+0x70b8>
    8208: 79 01 10 00 00 00 00 00      	ldxdw r1, [r0 + 0x10]
    8210: 79 42 80 00 00 00 00 00      	ldxdw r2, [r4 + 0x80]
    8218: 5d 12 d8 fe 00 00 00 00      	jne r2, r1, -0x128 <entrypoint+0x70b8>
    8220: b7 06 00 00 00 00 00 00      	mov64 r6, 0x0
    8228: 79 01 18 00 00 00 00 00      	ldxdw r1, [r0 + 0x18]
    8230: 79 42 88 00 00 00 00 00      	ldxdw r2, [r4 + 0x88]
    8238: 5d 12 ac fe 00 00 00 00      	jne r2, r1, -0x154 <entrypoint+0x6f78>
    8240: 79 01 20 00 00 00 00 00      	ldxdw r1, [r0 + 0x20]
    8248: 79 42 90 00 00 00 00 00      	ldxdw r2, [r4 + 0x90]
    8250: 5d 12 a9 fe 00 00 00 00      	jne r2, r1, -0x157 <entrypoint+0x6f78>
    8258: 79 01 50 00 00 00 00 00      	ldxdw r1, [r0 + 0x50]
    8260: 55 01 66 03 63 01 00 00      	jne r1, 0x163, +0x366 <entrypoint+0x9570>
    8268: 79 01 28 00 00 00 00 00      	ldxdw r1, [r0 + 0x28]
    8270: 18 02 00 00 06 dd f6 e1 00 00 00 00 ee 75 8f de      	lddw r2, -0x21708a111e0922fa
    8280: 1d 21 56 03 00 00 00 00      	jeq r1, r2, +0x356 <entrypoint+0x9510>
    8288: 18 02 00 00 06 dd f6 e1 00 00 00 00 d7 65 a1 93      	lddw r2, -0x6c5e9a281e0922fa
    8298: 5d 21 5f 03 00 00 00 00      	jne r1, r2, +0x35f <entrypoint+0x9570>
    82a0: 79 01 30 00 00 00 00 00      	ldxdw r1, [r0 + 0x30]
    82a8: 18 02 00 00 d9 cb e1 46 00 00 00 00 ce eb 79 ac      	lddw r2, -0x53861431b91e3427
    82b8: 5d 21 5b 03 00 00 00 00      	jne r1, r2, +0x35b <entrypoint+0x9570>
    82c0: 79 01 38 00 00 00 00 00      	ldxdw r1, [r0 + 0x38]
    82c8: 18 02 00 00 1c b4 85 ed 00 00 00 00 5f 5b 37 91      	lddw r2, -0x6ec8a4a0127a4be4
    82d8: 5d 21 57 03 00 00 00 00      	jne r1, r2, +0x357 <entrypoint+0x9570>
    82e0: 79 01 40 00 00 00 00 00      	ldxdw r1, [r0 + 0x40]
    82e8: 18 02 00 00 3a 8c f5 85 00 00 00 00 7e ff 00 a9      	lddw r2, -0x56ff00817a0a73c6
    82f8: 5d 21 53 03 00 00 00 00      	jne r1, r2, +0x353 <entrypoint+0x9570>
    8300: 05 00 6f 06 00 00 00 00      	ja +0x66f <entrypoint+0xae58>
    8308: b7 08 00 00 0a 00 00 00      	mov64 r8, 0xa
    8310: 05 00 c4 00 00 00 00 00      	ja +0xc4 <entrypoint+0x8110>
    8318: b7 08 00 00 0a 00 00 00      	mov64 r8, 0xa
    8320: 05 00 c3 00 00 00 00 00      	ja +0xc3 <entrypoint+0x8118>
    8328: 55 01 41 00 01 00 00 00      	jne r1, 0x1, +0x41 <entrypoint+0x7d10>
    8330: a5 09 40 00 42 00 00 00      	jlt r9, 0x42, +0x40 <entrypoint+0x7d10>
    8338: bf 09 00 00 00 00 00 00      	mov64 r9, r0
    8340: 07 09 00 00 2b 00 00 00      	add64 r9, 0x2b
    8348: b5 07 40 00 01 00 00 00      	jle r7, 0x1, +0x40 <entrypoint+0x7d28>
    8350: 79 a2 f0 f7 00 00 00 00      	ldxdw r2, [r10 - 0x810]
    8358: 79 21 08 00 00 00 00 00      	ldxdw r1, [r2 + 0x8]
    8360: 18 03 00 00 06 a7 d5 17 00 00 00 00 19 2c 5c 51      	lddw r3, 0x515c2c1917d5a706
    8370: 5d 31 a2 05 00 00 00 00      	jne r1, r3, +0x5a2 <entrypoint+0xa860>
    8378: 79 21 10 00 00 00 00 00      	ldxdw r1, [r2 + 0x10]
    8380: 18 03 00 00 21 8c c9 4c 00 00 00 00 3d 4a f1 7f      	lddw r3, 0x7ff14a3d4cc98c21
    8390: 5d 31 9e 05 00 00 00 00      	jne r1, r3, +0x59e <entrypoint+0xa860>
    8398: 79 21 18 00 00 00 00 00      	ldxdw r1, [r2 + 0x18]
    83a0: 18 03 00 00 58 da ee 08 00 00 00 00 9b a1 fd 44      	lddw r3, 0x44fda19b08eeda58
    83b0: 5d 31 9a 05 00 00 00 00      	jne r1, r3, +0x59a <entrypoint+0xa860>
    83b8: 7b 5a d8 f7 00 00 00 00      	stxdw [r10 - 0x828], r5
    83c0: 79 21 20 00 00 00 00 00      	ldxdw r1, [r2 + 0x20]
    83c8: 18 03 00 00 e3 db d9 8a 00 00 00 00 00 00 00 00      	lddw r3, 0x8ad9dbe3
    83d8: 5d 31 95 05 00 00 00 00      	jne r1, r3, +0x595 <entrypoint+0xa860>
    83e0: 79 48 50 00 00 00 00 00      	ldxdw r8, [r4 + 0x50]
    83e8: bf 83 00 00 00 00 00 00      	mov64 r3, r8
    83f0: 07 03 00 00 80 00 00 00      	add64 r3, 0x80
    83f8: 79 21 58 00 00 00 00 00      	ldxdw r1, [r2 + 0x58]
    8400: 2f 31 00 00 00 00 00 00      	mul64 r1, r3
    8408: 79 43 48 00 00 00 00 00      	ldxdw r3, [r4 + 0x48]
    8410: 79 26 60 00 00 00 00 00      	ldxdw r6, [r2 + 0x60]
    8418: 18 02 00 00 00 00 00 00 00 00 00 00 00 00 f0 3f      	lddw r2, 0x3ff0000000000000
    8428: 1d 26 3c 01 00 00 00 00      	jeq r6, r2, +0x13c <entrypoint+0x85e8>
    8430: 18 02 00 00 00 00 00 00 00 00 00 00 00 00 00 40      	lddw r2, 0x4000000000000000
    8440: 5d 26 1d 01 00 00 00 00      	jne r6, r2, +0x11d <entrypoint+0x8508>
    8448: 67 01 00 00 01 00 00 00      	lsh64 r1, 0x1
    8450: 05 00 37 01 00 00 00 00      	ja +0x137 <entrypoint+0x85e8>
    8458: 55 01 1b 00 01 00 00 00      	jne r1, 0x1, +0x1b <entrypoint+0x7d10>
    8460: a5 09 1a 00 42 00 00 00      	jlt r9, 0x42, +0x1a <entrypoint+0x7d10>
    8468: bf 09 00 00 00 00 00 00      	mov64 r9, r0
    8470: 07 09 00 00 2b 00 00 00      	add64 r9, 0x2b
    8478: 15 07 1a 00 00 00 00 00      	jeq r7, 0x0, +0x1a <entrypoint+0x7d28>
    8480: 7b 0a d0 f7 00 00 00 00      	stxdw [r10 - 0x830], r0
    8488: 79 46 50 00 00 00 00 00      	ldxdw r6, [r4 + 0x50]
    8490: bf a1 00 00 00 00 00 00      	mov64 r1, r10
    8498: 07 01 00 00 e0 ff ff ff      	add64 r1, -0x20
    84a0: 85 10 00 00 a0 1c 00 00      	call 0x1ca0
    84a8: 61 a1 e0 ff 00 00 00 00      	ldxw r1, [r10 - 0x20]
    84b0: 15 01 8c 02 01 00 00 00      	jeq r1, 0x1, +0x28c <entrypoint+0x90f0>
    84b8: 7b 8a e0 f7 00 00 00 00      	stxdw [r10 - 0x820], r8
    84c0: 07 06 00 00 80 00 00 00      	add64 r6, 0x80
    84c8: 79 a1 e8 ff 00 00 00 00      	ldxdw r1, [r10 - 0x18]
    84d0: 2f 61 00 00 00 00 00 00      	mul64 r1, r6
    84d8: 79 a6 f0 ff 00 00 00 00      	ldxdw r6, [r10 - 0x10]
    84e0: 79 a8 e8 f7 00 00 00 00      	ldxdw r8, [r10 - 0x818]
    84e8: 79 83 48 00 00 00 00 00      	ldxdw r3, [r8 + 0x48]
    84f0: 18 02 00 00 00 00 00 00 00 00 00 00 00 00 f0 3f      	lddw r2, 0x3ff0000000000000
    8500: 1d 26 04 00 00 00 00 00      	jeq r6, r2, +0x4 <entrypoint+0x7d00>
    8508: 18 02 00 00 00 00 00 00 00 00 00 00 00 00 00 40      	lddw r2, 0x4000000000000000
    8518: 5d 26 b5 01 00 00 00 00      	jne r6, r2, +0x1b5 <entrypoint+0x8aa0>
    8520: 67 01 00 00 01 00 00 00      	lsh64 r1, 0x1
    8528: 79 a4 d0 f7 00 00 00 00      	ldxdw r4, [r10 - 0x830]
    8530: 05 00 cb 01 00 00 00 00      	ja +0x1cb <entrypoint+0x8b68>
    8538: b7 06 00 00 00 00 00 00      	mov64 r6, 0x0
    8540: b7 09 00 00 0c 00 00 00      	mov64 r9, 0xc
    8548: 05 00 4a fe 00 00 00 00      	ja -0x1b6 <entrypoint+0x6f78>
    8550: b7 06 00 00 0a 00 00 00      	mov64 r6, 0xa
    8558: 05 00 48 fe 00 00 00 00      	ja -0x1b8 <entrypoint+0x6f78>
    8560: 79 a2 f0 f7 00 00 00 00      	ldxdw r2, [r10 - 0x810]
    8568: 79 21 08 00 00 00 00 00      	ldxdw r1, [r2 + 0x8]
    8570: 18 03 00 00 06 a7 d5 17 00 00 00 00 19 2c 5c 51      	lddw r3, 0x515c2c1917d5a706
    8580: 5d 31 a7 05 00 00 00 00      	jne r1, r3, +0x5a7 <entrypoint+0xaa98>
    8588: 79 21 10 00 00 00 00 00      	ldxdw r1, [r2 + 0x10]
    8590: 18 03 00 00 21 8c c9 4c 00 00 00 00 3d 4a f1 7f      	lddw r3, 0x7ff14a3d4cc98c21
    85a0: 5d 31 a3 05 00 00 00 00      	jne r1, r3, +0x5a3 <entrypoint+0xaa98>
    85a8: 79 21 18 00 00 00 00 00      	ldxdw r1, [r2 + 0x18]
    85b0: 18 03 00 00 58 da ee 08 00 00 00 00 9b a1 fd 44      	lddw r3, 0x44fda19b08eeda58
    85c0: 5d 31 9f 05 00 00 00 00      	jne r1, r3, +0x59f <entrypoint+0xaa98>
    85c8: 79 21 20 00 00 00 00 00      	ldxdw r1, [r2 + 0x20]
    85d0: 18 03 00 00 e3 db d9 8a 00 00 00 00 00 00 00 00      	lddw r3, 0x8ad9dbe3
    85e0: 5d 31 9b 05 00 00 00 00      	jne r1, r3, +0x59b <entrypoint+0xaa98>
    85e8: 79 48 50 00 00 00 00 00      	ldxdw r8, [r4 + 0x50]
    85f0: 79 21 58 00 00 00 00 00      	ldxdw r1, [r2 + 0x58]
    85f8: bf 83 00 00 00 00 00 00      	mov64 r3, r8
    8600: 07 03 00 00 80 00 00 00      	add64 r3, 0x80
    8608: 2f 31 00 00 00 00 00 00      	mul64 r1, r3
    8610: 79 26 60 00 00 00 00 00      	ldxdw r6, [r2 + 0x60]
    8618: 18 02 00 00 00 00 00 00 00 00 00 00 00 00 f0 3f      	lddw r2, 0x3ff0000000000000
    8628: 1d 26 4c 02 00 00 00 00      	jeq r6, r2, +0x24c <entrypoint+0x9068>
    8630: 18 02 00 00 00 00 00 00 00 00 00 00 00 00 00 40      	lddw r2, 0x4000000000000000
    8640: 5d 26 32 02 00 00 00 00      	jne r6, r2, +0x232 <entrypoint+0x8fb0>
    8648: 67 01 00 00 01 00 00 00      	lsh64 r1, 0x1
    8650: 05 00 47 02 00 00 00 00      	ja +0x247 <entrypoint+0x9068>
    8658: b7 06 00 00 00 00 00 00      	mov64 r6, 0x0
    8660: b7 09 00 00 11 00 00 00      	mov64 r9, 0x11
    8668: 05 00 26 fe 00 00 00 00      	ja -0x1da <entrypoint+0x6f78>
    8670: bf 41 00 00 00 00 00 00      	mov64 r1, r4
    8678: 07 01 00 00 dd 00 00 00      	add64 r1, 0xdd
    8680: bf 40 00 00 00 00 00 00      	mov64 r0, r4
    8688: 79 42 78 00 00 00 00 00      	ldxdw r2, [r4 + 0x78]
    8690: 18 04 00 00 00 33 90 72 00 00 00 00 8d 34 11 60      	lddw r4, 0x6011348d72903300
    86a0: 1d 42 bc 01 00 00 00 00      	jeq r2, r4, +0x1bc <entrypoint+0x8c60>
    86a8: 55 02 d9 01 00 00 00 00      	jne r2, 0x0, +0x1d9 <entrypoint+0x8d50>
    86b0: 79 02 80 00 00 00 00 00      	ldxdw r2, [r0 + 0x80]
    86b8: 55 02 d7 01 00 00 00 00      	jne r2, 0x0, +0x1d7 <entrypoint+0x8d50>
    86c0: 79 02 88 00 00 00 00 00      	ldxdw r2, [r0 + 0x88]
    86c8: 55 02 d5 01 00 00 00 00      	jne r2, 0x0, +0x1d5 <entrypoint+0x8d50>
    86d0: 79 02 90 00 00 00 00 00      	ldxdw r2, [r0 + 0x90]
    86d8: 55 02 d3 01 00 00 00 00      	jne r2, 0x0, +0x1d3 <entrypoint+0x8d50>
    86e0: 05 00 c0 01 00 00 00 00      	ja +0x1c0 <entrypoint+0x8cc0>
    86e8: 79 14 68 52 00 00 00 00      	ldxdw r4, [r1 + 0x5268]
    86f0: bf 43 00 00 00 00 00 00      	mov64 r3, r4
    86f8: 07 03 00 00 07 00 00 00      	add64 r3, 0x7
    8700: 57 03 00 00 f8 ff ff ff      	and64 r3, -0x8
    8708: bf 12 00 00 00 00 00 00      	mov64 r2, r1
    8710: 0f 32 00 00 00 00 00 00      	add64 r2, r3
    8718: 79 23 78 7a 00 00 00 00      	ldxdw r3, [r2 + 0x7a78]
    8720: a5 03 97 f0 09 00 00 00      	jlt r3, 0x9, -0xf69 <entrypoint+0x3b8>
    8728: 71 23 80 7a 00 00 00 00      	ldxb r3, [r2 + 0x7a80]
    8730: 55 03 95 f0 03 00 00 00      	jne r3, 0x3, -0xf6b <entrypoint+0x3b8>
    8738: b7 06 00 00 03 00 00 00      	mov64 r6, 0x3
    8740: b7 07 00 00 00 00 00 00      	mov64 r7, 0x0
    8748: 71 13 cc 00 00 00 00 00      	ldxb r3, [r1 + 0xcc]
    8750: 25 03 0f 03 02 00 00 00      	jgt r3, 0x2, +0x30f <entrypoint+0x97a8>
    8758: 15 03 97 04 00 00 00 00      	jeq r3, 0x0, +0x497 <entrypoint+0xa3f0>
    8760: 71 15 d4 29 00 00 00 00      	ldxb r5, [r1 + 0x29d4]
    8768: 25 05 0c 03 02 00 00 00      	jgt r5, 0x2, +0x30c <entrypoint+0x97a8>
    8770: 15 05 94 04 00 00 00 00      	jeq r5, 0x0, +0x494 <entrypoint+0xa3f0>
    8778: b7 06 00 00 00 00 00 00      	mov64 r6, 0x0
    8780: b7 07 00 00 11 00 00 00      	mov64 r7, 0x11
    8788: 15 03 08 03 02 00 00 00      	jeq r3, 0x2, +0x308 <entrypoint+0x97a8>
    8790: 15 05 07 03 02 00 00 00      	jeq r5, 0x2, +0x307 <entrypoint+0x97a8>
    8798: 79 22 81 7a 00 00 00 00      	ldxdw r2, [r2 + 0x7a81]
    87a0: b7 07 00 00 01 00 00 00      	mov64 r7, 0x1
    87a8: 79 13 a0 00 00 00 00 00      	ldxdw r3, [r1 + 0xa0]
    87b0: ad 23 03 03 00 00 00 00      	jlt r3, r2, +0x303 <entrypoint+0x97a8>
    87b8: 79 15 68 29 00 00 00 00      	ldxdw r5, [r1 + 0x2968]
    87c0: 79 10 60 00 00 00 00 00      	ldxdw r0, [r1 + 0x60]
    87c8: 5d 50 ff 02 00 00 00 00      	jne r0, r5, +0x2ff <entrypoint+0x97a0>
    87d0: 79 15 70 29 00 00 00 00      	ldxdw r5, [r1 + 0x2970]
    87d8: 79 10 68 00 00 00 00 00      	ldxdw r0, [r1 + 0x68]
    87e0: 5d 50 fc 02 00 00 00 00      	jne r0, r5, +0x2fc <entrypoint+0x97a0>
    87e8: 79 15 78 29 00 00 00 00      	ldxdw r5, [r1 + 0x2978]
    87f0: 79 10 70 00 00 00 00 00      	ldxdw r0, [r1 + 0x70]
    87f8: 5d 50 f9 02 00 00 00 00      	jne r0, r5, +0x2f9 <entrypoint+0x97a0>
    8800: 79 15 80 29 00 00 00 00      	ldxdw r5, [r1 + 0x2980]
    8808: 79 10 78 00 00 00 00 00      	ldxdw r0, [r1 + 0x78]
    8810: 5d 50 f6 02 00 00 00 00      	jne r0, r5, +0x2f6 <entrypoint+0x97a0>
    8818: 79 15 20 52 00 00 00 00      	ldxdw r5, [r1 + 0x5220]
    8820: 71 10 a8 00 00 00 00 00      	ldxb r0, [r1 + 0xa8]
    8828: 55 00 ce 01 01 00 00 00      	jne r0, 0x1, +0x1ce <entrypoint+0x8e78>
    8830: 79 10 ac 00 00 00 00 00      	ldxdw r0, [r1 + 0xac]
    8838: 5d 50 cc 01 00 00 00 00      	jne r0, r5, +0x1cc <entrypoint+0x8e78>
    8840: 79 10 28 52 00 00 00 00      	ldxdw r0, [r1 + 0x5228]
    8848: 79 18 b4 00 00 00 00 00      	ldxdw r8, [r1 + 0xb4]
    8850: 5d 08 c9 01 00 00 00 00      	jne r8, r0, +0x1c9 <entrypoint+0x8e78>
    8858: 79 10 30 52 00 00 00 00      	ldxdw r0, [r1 + 0x5230]
    8860: 79 18 bc 00 00 00 00 00      	ldxdw r8, [r1 + 0xbc]
    8868: 5d 08 c6 01 00 00 00 00      	jne r8, r0, +0x1c6 <entrypoint+0x8e78>
    8870: 79 10 38 52 00 00 00 00      	ldxdw r0, [r1 + 0x5238]
    8878: 79 18 c4 00 00 00 00 00      	ldxdw r8, [r1 + 0xc4]
    8880: 5d 08 c3 01 00 00 00 00      	jne r8, r0, +0x1c3 <entrypoint+0x8e78>
    8888: 55 04 0e 05 63 01 00 00      	jne r4, 0x163, +0x50e <entrypoint+0xa8d8>
    8890: 79 14 40 52 00 00 00 00      	ldxdw r4, [r1 + 0x5240]
    8898: 18 05 00 00 06 dd f6 e1 00 00 00 00 ee 75 8f de      	lddw r5, -0x21708a111e0922fa
    88a8: 1d 54 fe 04 00 00 00 00      	jeq r4, r5, +0x4fe <entrypoint+0xa878>
    88b0: 18 05 00 00 06 dd f6 e1 00 00 00 00 d7 65 a1 93      	lddw r5, -0x6c5e9a281e0922fa
    88c0: 5d 54 07 05 00 00 00 00      	jne r4, r5, +0x507 <entrypoint+0xa8d8>
    88c8: 79 14 48 52 00 00 00 00      	ldxdw r4, [r1 + 0x5248]
    88d0: 18 05 00 00 d9 cb e1 46 00 00 00 00 ce eb 79 ac      	lddw r5, -0x53861431b91e3427
    88e0: 5d 54 03 05 00 00 00 00      	jne r4, r5, +0x503 <entrypoint+0xa8d8>
    88e8: 79 14 50 52 00 00 00 00      	ldxdw r4, [r1 + 0x5250]
    88f0: 18 05 00 00 1c b4 85 ed 00 00 00 00 5f 5b 37 91      	lddw r5, -0x6ec8a4a0127a4be4
    8900: 5d 54 ff 04 00 00 00 00      	jne r4, r5, +0x4ff <entrypoint+0xa8d8>
    8908: 79 14 58 52 00 00 00 00      	ldxdw r4, [r1 + 0x5258]
    8910: 18 05 00 00 3a 8c f5 85 00 00 00 00 7e ff 00 a9      	lddw r5, -0x56ff00817a0a73c6
    8920: 5d 54 fb 04 00 00 00 00      	jne r4, r5, +0x4fb <entrypoint+0xa8d8>
    8928: 05 00 28 09 00 00 00 00      	ja +0x928 <entrypoint+0xca48>
    8930: b7 06 00 00 00 00 00 00      	mov64 r6, 0x0
    8938: bf 69 00 00 00 00 00 00      	mov64 r9, r6
    8940: b7 00 00 00 00 00 00 00      	mov64 r0, 0x0
    8948: bf 81 00 00 00 00 00 00      	mov64 r1, r8
    8950: 67 01 00 00 20 00 00 00      	lsh64 r1, 0x20
    8958: 77 01 00 00 20 00 00 00      	rsh64 r1, 0x20
    8960: 15 01 cd fd 1a 00 00 00      	jeq r1, 0x1a, -0x233 <entrypoint+0x6fa8>
    8968: bf 86 00 00 00 00 00 00      	mov64 r6, r8
    8970: 05 00 c5 fd 00 00 00 00      	ja -0x23b <entrypoint+0x6f78>
    8978: 85 10 00 00 4f 1f 00 00      	call 0x1f4f
    8980: bf 61 00 00 00 00 00 00      	mov64 r1, r6
    8988: bf 02 00 00 00 00 00 00      	mov64 r2, r0
    8990: 85 10 00 00 ac 1f 00 00      	call 0x1fac
    8998: bf 06 00 00 00 00 00 00      	mov64 r6, r0
    89a0: b7 01 00 00 00 00 00 00      	mov64 r1, 0x0
    89a8: 7b 1a d8 f7 00 00 00 00      	stxdw [r10 - 0x828], r1
    89b0: bf 61 00 00 00 00 00 00      	mov64 r1, r6
    89b8: b7 02 00 00 00 00 00 00      	mov64 r2, 0x0
    89c0: 85 10 00 00 86 1f 00 00      	call 0x1f86
    89c8: bf 07 00 00 00 00 00 00      	mov64 r7, r0
    89d0: bf 61 00 00 00 00 00 00      	mov64 r1, r6
    89d8: 85 10 00 00 a0 20 00 00      	call 0x20a0
    89e0: c5 07 01 00 00 00 00 00      	jslt r7, 0x0, +0x1 <entrypoint+0x81c8>
    89e8: 7b 0a d8 f7 00 00 00 00      	stxdw [r10 - 0x828], r0
    89f0: bf 61 00 00 00 00 00 00      	mov64 r1, r6
    89f8: 18 02 00 00 ff ff ff ff 00 00 00 00 ff ff ef 43      	lddw r2, 0x43efffffffffffff
    8a08: 85 10 00 00 dc 20 00 00      	call 0x20dc
    8a10: b7 01 00 00 ff ff ff ff      	mov64 r1, -0x1
    8a18: 65 00 01 00 00 00 00 00      	jsgt r0, 0x0, +0x1 <entrypoint+0x8200>
    8a20: 79 a1 d8 f7 00 00 00 00      	ldxdw r1, [r10 - 0x828]
    8a28: 79 a2 f0 f7 00 00 00 00      	ldxdw r2, [r10 - 0x810]
    8a30: 79 23 08 00 00 00 00 00      	ldxdw r3, [r2 + 0x8]
    8a38: 18 04 00 00 06 9b 88 57 00 00 00 00 fe ab 81 84      	lddw r4, -0x7b7e5401a87764fa
    8a48: 5d 43 0d 00 00 00 00 00      	jne r3, r4, +0xd <entrypoint+0x8290>
    8a50: 79 23 10 00 00 00 00 00      	ldxdw r3, [r2 + 0x10]
    8a58: 18 04 00 00 fb 68 7f 63 00 00 00 00 46 18 c0 35      	lddw r4, 0x35c01846637f68fb
    8a68: 5d 43 09 00 00 00 00 00      	jne r3, r4, +0x9 <entrypoint+0x8290>
    8a70: 79 23 18 00 00 00 00 00      	ldxdw r3, [r2 + 0x18]
    8a78: 18 04 00 00 da c4 39 dc 00 00 00 00 1a eb 3b 55      	lddw r4, 0x553beb1adc39c4da
    8a88: 5d 43 05 00 00 00 00 00      	jne r3, r4, +0x5 <entrypoint+0x8290>
    8a90: b7 00 00 00 01 00 00 00      	mov64 r0, 0x1
    8a98: 79 23 20 00 00 00 00 00      	ldxdw r3, [r2 + 0x20]
    8aa0: 18 04 00 00 98 a0 f0 00 00 00 00 00 00 00 00 01      	lddw r4, 0x100000000f0a098
    8ab0: 1d 43 01 00 00 00 00 00      	jeq r3, r4, +0x1 <entrypoint+0x8298>
    8ab8: b7 00 00 00 00 00 00 00      	mov64 r0, 0x0
    8ac0: b7 06 00 00 03 00 00 00      	mov64 r6, 0x3
    8ac8: 55 09 66 08 a5 00 00 00      	jne r9, 0xa5, +0x866 <entrypoint+0xc5d8>
    8ad0: 79 a7 e0 f7 00 00 00 00      	ldxdw r7, [r10 - 0x820]
    8ad8: 71 73 c4 00 00 00 00 00      	ldxb r3, [r7 + 0xc4]
    8ae0: 25 03 a7 05 02 00 00 00      	jgt r3, 0x2, +0x5a7 <entrypoint+0xaff8>
    8ae8: 55 03 9a 01 00 00 00 00      	jne r3, 0x0, +0x19a <entrypoint+0x8f98>
    8af0: b7 06 00 00 00 00 00 00      	mov64 r6, 0x0
    8af8: 79 75 48 00 00 00 00 00      	ldxdw r5, [r7 + 0x48]
    8b00: ad 15 5f 08 00 00 00 00      	jlt r5, r1, +0x85f <entrypoint+0xc5d8>
    8b08: 07 08 00 00 08 00 00 00      	add64 r8, 0x8
    8b10: bf 24 00 00 00 00 00 00      	mov64 r4, r2
    8b18: 07 04 00 00 08 00 00 00      	add64 r4, 0x8
    8b20: bf 73 00 00 00 00 00 00      	mov64 r3, r7
    8b28: 07 03 00 00 58 00 00 00      	add64 r3, 0x58
    8b30: 15 00 17 00 00 00 00 00      	jeq r0, 0x0, +0x17 <entrypoint+0x83c8>
    8b38: 72 07 c4 00 01 00 00 00      	stb [r7 + 0xc4], 0x1
    8b40: 79 42 00 00 00 00 00 00      	ldxdw r2, [r4 + 0x0]
    8b48: 79 40 08 00 00 00 00 00      	ldxdw r0, [r4 + 0x8]
    8b50: 79 46 10 00 00 00 00 00      	ldxdw r6, [r4 + 0x10]
    8b58: 79 44 18 00 00 00 00 00      	ldxdw r4, [r4 + 0x18]
    8b60: 7b 43 18 00 00 00 00 00      	stxdw [r3 + 0x18], r4
    8b68: 7b 63 10 00 00 00 00 00      	stxdw [r3 + 0x10], r6
    8b70: 7b 03 08 00 00 00 00 00      	stxdw [r3 + 0x8], r0
    8b78: 7b 23 00 00 00 00 00 00      	stxdw [r3 + 0x0], r2
    8b80: 79 82 00 00 00 00 00 00      	ldxdw r2, [r8 + 0x0]
    8b88: 79 83 08 00 00 00 00 00      	ldxdw r3, [r8 + 0x8]
    8b90: 79 84 10 00 00 00 00 00      	ldxdw r4, [r8 + 0x10]
    8b98: 79 80 18 00 00 00 00 00      	ldxdw r0, [r8 + 0x18]
    8ba0: 7b 07 90 00 00 00 00 00      	stxdw [r7 + 0x90], r0
    8ba8: 7b 47 88 00 00 00 00 00      	stxdw [r7 + 0x88], r4
    8bb0: 7b 37 80 00 00 00 00 00      	stxdw [r7 + 0x80], r3
    8bb8: 7b 27 78 00 00 00 00 00      	stxdw [r7 + 0x78], r2
    8bc0: 7b 17 c9 00 00 00 00 00      	stxdw [r7 + 0xc9], r1
    8bc8: 1f 15 00 00 00 00 00 00      	sub64 r5, r1
    8bd0: 7b 57 98 00 00 00 00 00      	stxdw [r7 + 0x98], r5
    8bd8: 72 07 c5 00 01 00 00 00      	stb [r7 + 0xc5], 0x1
    8be0: b7 00 00 00 00 00 00 00      	mov64 r0, 0x0
    8be8: 05 00 7c fd 00 00 00 00      	ja -0x284 <entrypoint+0x6fa8>
    8bf0: 79 21 28 00 00 00 00 00      	ldxdw r1, [r2 + 0x28]
    8bf8: 18 05 00 00 06 dd f6 e1 00 00 00 00 d7 65 a1 93      	lddw r5, -0x6c5e9a281e0922fa
    8c08: 5d 51 cb 04 00 00 00 00      	jne r1, r5, +0x4cb <entrypoint+0xaa40>
    8c10: 79 21 30 00 00 00 00 00      	ldxdw r1, [r2 + 0x30]
    8c18: 18 05 00 00 d9 cb e1 46 00 00 00 00 ce eb 79 ac      	lddw r5, -0x53861431b91e3427
    8c28: 5d 51 c7 04 00 00 00 00      	jne r1, r5, +0x4c7 <entrypoint+0xaa40>
    8c30: 79 21 38 00 00 00 00 00      	ldxdw r1, [r2 + 0x38]
    8c38: 18 05 00 00 1c b4 85 ed 00 00 00 00 5f 5b 37 91      	lddw r5, -0x6ec8a4a0127a4be4
    8c48: 5d 51 c3 04 00 00 00 00      	jne r1, r5, +0x4c3 <entrypoint+0xaa40>
    8c50: 79 21 40 00 00 00 00 00      	ldxdw r1, [r2 + 0x40]
    8c58: 18 05 00 00 3a 8c f5 85 00 00 00 00 7e ff 00 a9      	lddw r5, -0x56ff00817a0a73c6
    8c68: 5d 51 bf 04 00 00 00 00      	jne r1, r5, +0x4bf <entrypoint+0xaa40>
    8c70: b7 09 00 00 02 00 00 00      	mov64 r9, 0x2
    8c78: 79 21 50 00 00 00 00 00      	ldxdw r1, [r2 + 0x50]
    8c80: 55 01 63 fd 52 00 00 00      	jne r1, 0x52, -0x29d <entrypoint+0x6f78>
    8c88: 71 21 85 00 00 00 00 00      	ldxb r1, [r2 + 0x85]
    8c90: 55 01 61 fd 01 00 00 00      	jne r1, 0x1, -0x29f <entrypoint+0x6f78>
    8c98: 72 07 c4 00 01 00 00 00      	stb [r7 + 0xc4], 0x1
    8ca0: 79 41 00 00 00 00 00 00      	ldxdw r1, [r4 + 0x0]
    8ca8: 79 42 08 00 00 00 00 00      	ldxdw r2, [r4 + 0x8]
    8cb0: 79 45 10 00 00 00 00 00      	ldxdw r5, [r4 + 0x10]
    8cb8: 79 44 18 00 00 00 00 00      	ldxdw r4, [r4 + 0x18]
    8cc0: 7b 43 18 00 00 00 00 00      	stxdw [r3 + 0x18], r4
    8cc8: 7b 53 10 00 00 00 00 00      	stxdw [r3 + 0x10], r5
    8cd0: 7b 23 08 00 00 00 00 00      	stxdw [r3 + 0x8], r2
    8cd8: 7b 13 00 00 00 00 00 00      	stxdw [r3 + 0x0], r1
    8ce0: 79 81 00 00 00 00 00 00      	ldxdw r1, [r8 + 0x0]
    8ce8: 79 82 08 00 00 00 00 00      	ldxdw r2, [r8 + 0x8]
    8cf0: 79 83 10 00 00 00 00 00      	ldxdw r3, [r8 + 0x10]
    8cf8: 79 84 18 00 00 00 00 00      	ldxdw r4, [r8 + 0x18]
    8d00: 7b 47 90 00 00 00 00 00      	stxdw [r7 + 0x90], r4
    8d08: 7b 37 88 00 00 00 00 00      	stxdw [r7 + 0x88], r3
    8d10: 7b 27 80 00 00 00 00 00      	stxdw [r7 + 0x80], r2
    8d18: 7b 17 78 00 00 00 00 00      	stxdw [r7 + 0x78], r1
    8d20: b7 00 00 00 00 00 00 00      	mov64 r0, 0x0
    8d28: 05 00 54 fd 00 00 00 00      	ja -0x2ac <entrypoint+0x6fa8>
    8d30: 7b 3a c8 f7 00 00 00 00      	stxdw [r10 - 0x838], r3
    8d38: 7b 4a e0 f7 00 00 00 00      	stxdw [r10 - 0x820], r4
    8d40: 7b 0a d0 f7 00 00 00 00      	stxdw [r10 - 0x830], r0
    8d48: 85 10 00 00 d5 1e 00 00      	call 0x1ed5
    8d50: bf 61 00 00 00 00 00 00      	mov64 r1, r6
    8d58: bf 02 00 00 00 00 00 00      	mov64 r2, r0
    8d60: 85 10 00 00 32 1f 00 00      	call 0x1f32
    8d68: bf 06 00 00 00 00 00 00      	mov64 r6, r0
    8d70: b7 01 00 00 00 00 00 00      	mov64 r1, 0x0
    8d78: 7b 1a c0 f7 00 00 00 00      	stxdw [r10 - 0x840], r1
    8d80: bf 61 00 00 00 00 00 00      	mov64 r1, r6
    8d88: b7 02 00 00 00 00 00 00      	mov64 r2, 0x0
    8d90: 85 10 00 00 0c 1f 00 00      	call 0x1f0c
    8d98: bf 07 00 00 00 00 00 00      	mov64 r7, r0
    8da0: bf 61 00 00 00 00 00 00      	mov64 r1, r6
    8da8: 85 10 00 00 26 20 00 00      	call 0x2026
    8db0: c5 07 01 00 00 00 00 00      	jslt r7, 0x0, +0x1 <entrypoint+0x8598>
    8db8: 7b 0a c0 f7 00 00 00 00      	stxdw [r10 - 0x840], r0
    8dc0: bf 61 00 00 00 00 00 00      	mov64 r1, r6
    8dc8: 18 02 00 00 ff ff ff ff 00 00 00 00 ff ff ef 43      	lddw r2, 0x43efffffffffffff
    8dd8: 85 10 00 00 62 20 00 00      	call 0x2062
    8de0: b7 01 00 00 ff ff ff ff      	mov64 r1, -0x1
    8de8: 65 00 01 00 00 00 00 00      	jsgt r0, 0x0, +0x1 <entrypoint+0x85d0>
    8df0: 79 a1 c0 f7 00 00 00 00      	ldxdw r1, [r10 - 0x840]
    8df8: 79 a0 d0 f7 00 00 00 00      	ldxdw r0, [r10 - 0x830]
    8e00: 79 a4 e0 f7 00 00 00 00      	ldxdw r4, [r10 - 0x820]
    8e08: 79 a3 c8 f7 00 00 00 00      	ldxdw r3, [r10 - 0x838]
    8e10: b7 06 00 00 03 00 00 00      	mov64 r6, 0x3
    8e18: 55 08 fc 07 52 00 00 00      	jne r8, 0x52, +0x7fc <entrypoint+0xc5d8>
    8e20: 71 42 85 00 00 00 00 00      	ldxb r2, [r4 + 0x85]
    8e28: 55 02 31 01 00 00 00 00      	jne r2, 0x0, +0x131 <entrypoint+0x8f90>
    8e30: ad 13 05 02 00 00 00 00      	jlt r3, r1, +0x205 <entrypoint+0x9638>
    8e38: 07 00 00 00 0a 00 00 00      	add64 r0, 0xa
    8e40: 72 04 58 00 01 00 00 00      	stb [r4 + 0x58], 0x1
    8e48: 72 04 85 00 01 00 00 00      	stb [r4 + 0x85], 0x1
    8e50: 79 01 00 00 00 00 00 00      	ldxdw r1, [r0 + 0x0]
    8e58: 79 02 08 00 00 00 00 00      	ldxdw r2, [r0 + 0x8]
    8e60: 79 03 10 00 00 00 00 00      	ldxdw r3, [r0 + 0x10]
    8e68: bf 45 00 00 00 00 00 00      	mov64 r5, r4
    8e70: 79 04 18 00 00 00 00 00      	ldxdw r4, [r0 + 0x18]
    8e78: 7b 45 74 00 00 00 00 00      	stxdw [r5 + 0x74], r4
    8e80: bf 54 00 00 00 00 00 00      	mov64 r4, r5
    8e88: 7b 34 6c 00 00 00 00 00      	stxdw [r4 + 0x6c], r3
    8e90: 7b 24 64 00 00 00 00 00      	stxdw [r4 + 0x64], r2
    8e98: 7b 14 5c 00 00 00 00 00      	stxdw [r4 + 0x5c], r1
    8ea0: 79 a1 d8 f7 00 00 00 00      	ldxdw r1, [r10 - 0x828]
    8ea8: 73 14 84 00 00 00 00 00      	stxb [r4 + 0x84], r1
    8eb0: b7 00 00 00 00 00 00 00      	mov64 r0, 0x0
    8eb8: 15 09 22 fd 00 00 00 00      	jeq r9, 0x0, -0x2de <entrypoint+0x6fa8>
    8ec0: 72 04 86 00 01 00 00 00      	stb [r4 + 0x86], 0x1
    8ec8: 79 91 00 00 00 00 00 00      	ldxdw r1, [r9 + 0x0]
    8ed0: 79 92 08 00 00 00 00 00      	ldxdw r2, [r9 + 0x8]
    8ed8: 79 93 10 00 00 00 00 00      	ldxdw r3, [r9 + 0x10]
    8ee0: bf 45 00 00 00 00 00 00      	mov64 r5, r4
    8ee8: 79 94 18 00 00 00 00 00      	ldxdw r4, [r9 + 0x18]
    8ef0: 7b 45 a2 00 00 00 00 00      	stxdw [r5 + 0xa2], r4
    8ef8: 7b 35 9a 00 00 00 00 00      	stxdw [r5 + 0x9a], r3
    8f00: 7b 25 92 00 00 00 00 00      	stxdw [r5 + 0x92], r2
    8f08: 7b 15 8a 00 00 00 00 00      	stxdw [r5 + 0x8a], r1
    8f10: 05 00 17 fd 00 00 00 00      	ja -0x2e9 <entrypoint+0x6fa8>
    8f18: 85 10 00 00 9b 1e 00 00      	call 0x1e9b
    8f20: bf 61 00 00 00 00 00 00      	mov64 r1, r6
    8f28: bf 02 00 00 00 00 00 00      	mov64 r2, r0
    8f30: 85 10 00 00 f8 1e 00 00      	call 0x1ef8
    8f38: bf 06 00 00 00 00 00 00      	mov64 r6, r0
    8f40: b7 09 00 00 00 00 00 00      	mov64 r9, 0x0
    8f48: bf 61 00 00 00 00 00 00      	mov64 r1, r6
    8f50: b7 02 00 00 00 00 00 00      	mov64 r2, 0x0
    8f58: 85 10 00 00 d3 1e 00 00      	call 0x1ed3
    8f60: bf 07 00 00 00 00 00 00      	mov64 r7, r0
    8f68: bf 61 00 00 00 00 00 00      	mov64 r1, r6
    8f70: 85 10 00 00 ed 1f 00 00      	call 0x1fed
    8f78: c5 07 01 00 00 00 00 00      	jslt r7, 0x0, +0x1 <entrypoint+0x8760>
    8f80: bf 09 00 00 00 00 00 00      	mov64 r9, r0
    8f88: bf 61 00 00 00 00 00 00      	mov64 r1, r6
    8f90: 18 02 00 00 ff ff ff ff 00 00 00 00 ff ff ef 43      	lddw r2, 0x43efffffffffffff
    8fa0: 85 10 00 00 29 20 00 00      	call 0x2029
    8fa8: b7 01 00 00 ff ff ff ff      	mov64 r1, -0x1
    8fb0: 65 00 01 00 00 00 00 00      	jsgt r0, 0x0, +0x1 <entrypoint+0x8798>
    8fb8: bf 91 00 00 00 00 00 00      	mov64 r1, r9
    8fc0: 79 a3 f0 f7 00 00 00 00      	ldxdw r3, [r10 - 0x810]
    8fc8: 79 32 08 00 00 00 00 00      	ldxdw r2, [r3 + 0x8]
    8fd0: 18 04 00 00 06 9b 88 57 00 00 00 00 fe ab 81 84      	lddw r4, -0x7b7e5401a87764fa
    8fe0: 5d 42 0d 00 00 00 00 00      	jne r2, r4, +0xd <entrypoint+0x8828>
    8fe8: 79 32 10 00 00 00 00 00      	ldxdw r2, [r3 + 0x10]
    8ff0: 18 04 00 00 fb 68 7f 63 00 00 00 00 46 18 c0 35      	lddw r4, 0x35c01846637f68fb
    9000: 5d 42 09 00 00 00 00 00      	jne r2, r4, +0x9 <entrypoint+0x8828>
    9008: 79 32 18 00 00 00 00 00      	ldxdw r2, [r3 + 0x18]
    9010: 18 04 00 00 da c4 39 dc 00 00 00 00 1a eb 3b 55      	lddw r4, 0x553beb1adc39c4da
    9020: 5d 42 05 00 00 00 00 00      	jne r2, r4, +0x5 <entrypoint+0x8828>
    9028: b7 07 00 00 01 00 00 00      	mov64 r7, 0x1
    9030: 79 32 20 00 00 00 00 00      	ldxdw r2, [r3 + 0x20]
    9038: 18 04 00 00 98 a0 f0 00 00 00 00 00 00 00 00 01      	lddw r4, 0x100000000f0a098
    9048: 1d 42 01 00 00 00 00 00      	jeq r2, r4, +0x1 <entrypoint+0x8830>
    9050: b7 07 00 00 00 00 00 00      	mov64 r7, 0x0
    9058: b7 06 00 00 03 00 00 00      	mov64 r6, 0x3
    9060: 79 a2 e8 f7 00 00 00 00      	ldxdw r2, [r10 - 0x818]
    9068: 79 24 50 00 00 00 00 00      	ldxdw r4, [r2 + 0x50]
    9070: 55 04 b1 07 a5 00 00 00      	jne r4, 0xa5, +0x7b1 <entrypoint+0xc5d8>
    9078: 71 24 c4 00 00 00 00 00      	ldxb r4, [r2 + 0xc4]
    9080: 25 04 f3 04 02 00 00 00      	jgt r4, 0x2, +0x4f3 <entrypoint+0xaff8>
    9088: b7 06 00 00 00 00 00 00      	mov64 r6, 0x0
    9090: 55 04 3d 02 00 00 00 00      	jne r4, 0x0, +0x23d <entrypoint+0x9a58>
    9098: 79 20 48 00 00 00 00 00      	ldxdw r0, [r2 + 0x48]
    90a0: ad 10 ab 07 00 00 00 00      	jlt r0, r1, +0x7ab <entrypoint+0xc5d8>
    90a8: bf 35 00 00 00 00 00 00      	mov64 r5, r3
    90b0: 07 05 00 00 08 00 00 00      	add64 r5, 0x8
    90b8: bf 24 00 00 00 00 00 00      	mov64 r4, r2
    90c0: 07 04 00 00 58 00 00 00      	add64 r4, 0x58
    90c8: 15 07 17 00 00 00 00 00      	jeq r7, 0x0, +0x17 <entrypoint+0x8960>
    90d0: 72 02 c4 00 01 00 00 00      	stb [r2 + 0xc4], 0x1
    90d8: 79 53 00 00 00 00 00 00      	ldxdw r3, [r5 + 0x0]
    90e0: 79 56 08 00 00 00 00 00      	ldxdw r6, [r5 + 0x8]
    90e8: 79 57 10 00 00 00 00 00      	ldxdw r7, [r5 + 0x10]
    90f0: 79 55 18 00 00 00 00 00      	ldxdw r5, [r5 + 0x18]
    90f8: 7b 54 18 00 00 00 00 00      	stxdw [r4 + 0x18], r5
    9100: 7b 74 10 00 00 00 00 00      	stxdw [r4 + 0x10], r7
    9108: 7b 64 08 00 00 00 00 00      	stxdw [r4 + 0x8], r6
    9110: 7b 34 00 00 00 00 00 00      	stxdw [r4 + 0x0], r3
    9118: 79 83 00 00 00 00 00 00      	ldxdw r3, [r8 + 0x0]
    9120: 79 84 08 00 00 00 00 00      	ldxdw r4, [r8 + 0x8]
    9128: 79 85 10 00 00 00 00 00      	ldxdw r5, [r8 + 0x10]
    9130: 79 86 18 00 00 00 00 00      	ldxdw r6, [r8 + 0x18]
    9138: 7b 62 90 00 00 00 00 00      	stxdw [r2 + 0x90], r6
    9140: 7b 52 88 00 00 00 00 00      	stxdw [r2 + 0x88], r5
    9148: 7b 42 80 00 00 00 00 00      	stxdw [r2 + 0x80], r4
    9150: 7b 32 78 00 00 00 00 00      	stxdw [r2 + 0x78], r3
    9158: 7b 12 c9 00 00 00 00 00      	stxdw [r2 + 0xc9], r1
    9160: 1f 10 00 00 00 00 00 00      	sub64 r0, r1
    9168: 7b 02 98 00 00 00 00 00      	stxdw [r2 + 0x98], r0
    9170: 72 02 c5 00 01 00 00 00      	stb [r2 + 0xc5], 0x1
    9178: b7 00 00 00 00 00 00 00      	mov64 r0, 0x0
    9180: 05 00 c9 fc 00 00 00 00      	ja -0x337 <entrypoint+0x6fa8>
    9188: 79 31 28 00 00 00 00 00      	ldxdw r1, [r3 + 0x28]
    9190: 18 00 00 00 06 dd f6 e1 00 00 00 00 d7 65 a1 93      	lddw r0, -0x6c5e9a281e0922fa
    91a0: 5d 01 18 04 00 00 00 00      	jne r1, r0, +0x418 <entrypoint+0xaa40>
    91a8: 79 31 30 00 00 00 00 00      	ldxdw r1, [r3 + 0x30]
    91b0: 18 00 00 00 d9 cb e1 46 00 00 00 00 ce eb 79 ac      	lddw r0, -0x53861431b91e3427
    91c0: 5d 01 14 04 00 00 00 00      	jne r1, r0, +0x414 <entrypoint+0xaa40>
    91c8: 79 31 38 00 00 00 00 00      	ldxdw r1, [r3 + 0x38]
    91d0: 18 00 00 00 1c b4 85 ed 00 00 00 00 5f 5b 37 91      	lddw r0, -0x6ec8a4a0127a4be4
    91e0: 5d 01 10 04 00 00 00 00      	jne r1, r0, +0x410 <entrypoint+0xaa40>
    91e8: 79 31 40 00 00 00 00 00      	ldxdw r1, [r3 + 0x40]
    91f0: 18 00 00 00 3a 8c f5 85 00 00 00 00 7e ff 00 a9      	lddw r0, -0x56ff00817a0a73c6
    9200: 5d 01 0c 04 00 00 00 00      	jne r1, r0, +0x40c <entrypoint+0xaa40>
    9208: b7 09 00 00 02 00 00 00      	mov64 r9, 0x2
    9210: 79 31 50 00 00 00 00 00      	ldxdw r1, [r3 + 0x50]
    9218: 55 01 b0 fc 52 00 00 00      	jne r1, 0x52, -0x350 <entrypoint+0x6f78>
    9220: 71 31 85 00 00 00 00 00      	ldxb r1, [r3 + 0x85]
    9228: 55 01 ae fc 01 00 00 00      	jne r1, 0x1, -0x352 <entrypoint+0x6f78>
    9230: 72 02 c4 00 01 00 00 00      	stb [r2 + 0xc4], 0x1
    9238: 79 51 00 00 00 00 00 00      	ldxdw r1, [r5 + 0x0]
    9240: 79 53 08 00 00 00 00 00      	ldxdw r3, [r5 + 0x8]
    9248: 79 50 10 00 00 00 00 00      	ldxdw r0, [r5 + 0x10]
    9250: 79 55 18 00 00 00 00 00      	ldxdw r5, [r5 + 0x18]
    9258: 7b 54 18 00 00 00 00 00      	stxdw [r4 + 0x18], r5
    9260: 7b 04 10 00 00 00 00 00      	stxdw [r4 + 0x10], r0
    9268: 7b 34 08 00 00 00 00 00      	stxdw [r4 + 0x8], r3
    9270: 7b 14 00 00 00 00 00 00      	stxdw [r4 + 0x0], r1
    9278: 79 81 00 00 00 00 00 00      	ldxdw r1, [r8 + 0x0]
    9280: 79 83 08 00 00 00 00 00      	ldxdw r3, [r8 + 0x8]
    9288: 79 84 10 00 00 00 00 00      	ldxdw r4, [r8 + 0x10]
    9290: 79 85 18 00 00 00 00 00      	ldxdw r5, [r8 + 0x18]
    9298: 7b 52 90 00 00 00 00 00      	stxdw [r2 + 0x90], r5
    92a0: 7b 42 88 00 00 00 00 00      	stxdw [r2 + 0x88], r4
    92a8: 7b 32 80 00 00 00 00 00      	stxdw [r2 + 0x80], r3
    92b0: 7b 12 78 00 00 00 00 00      	stxdw [r2 + 0x78], r1
    92b8: b7 00 00 00 00 00 00 00      	mov64 r0, 0x0
    92c0: 05 00 a1 fc 00 00 00 00      	ja -0x35f <entrypoint+0x6fa8>
    92c8: 7b 3a d8 f7 00 00 00 00      	stxdw [r10 - 0x828], r3
    92d0: 85 10 00 00 24 1e 00 00      	call 0x1e24
    92d8: bf 61 00 00 00 00 00 00      	mov64 r1, r6
    92e0: bf 02 00 00 00 00 00 00      	mov64 r2, r0
    92e8: 85 10 00 00 81 1e 00 00      	call 0x1e81
    92f0: bf 06 00 00 00 00 00 00      	mov64 r6, r0
    92f8: b7 01 00 00 00 00 00 00      	mov64 r1, 0x0
    9300: 7b 1a c8 f7 00 00 00 00      	stxdw [r10 - 0x838], r1
    9308: bf 61 00 00 00 00 00 00      	mov64 r1, r6
    9310: b7 02 00 00 00 00 00 00      	mov64 r2, 0x0
    9318: 85 10 00 00 5b 1e 00 00      	call 0x1e5b
    9320: bf 07 00 00 00 00 00 00      	mov64 r7, r0
    9328: bf 61 00 00 00 00 00 00      	mov64 r1, r6
    9330: 85 10 00 00 75 1f 00 00      	call 0x1f75
    9338: c5 07 01 00 00 00 00 00      	jslt r7, 0x0, +0x1 <entrypoint+0x8b20>
    9340: 7b 0a c8 f7 00 00 00 00      	stxdw [r10 - 0x838], r0
    9348: bf 61 00 00 00 00 00 00      	mov64 r1, r6
    9350: 18 02 00 00 ff ff ff ff 00 00 00 00 ff ff ef 43      	lddw r2, 0x43efffffffffffff
    9360: 85 10 00 00 b1 1f 00 00      	call 0x1fb1
    9368: b7 01 00 00 ff ff ff ff      	mov64 r1, -0x1
    9370: 65 00 01 00 00 00 00 00      	jsgt r0, 0x0, +0x1 <entrypoint+0x8b58>
    9378: 79 a1 c8 f7 00 00 00 00      	ldxdw r1, [r10 - 0x838]
    9380: 79 a4 d0 f7 00 00 00 00      	ldxdw r4, [r10 - 0x830]
    9388: 79 a3 d8 f7 00 00 00 00      	ldxdw r3, [r10 - 0x828]
    9390: b7 06 00 00 03 00 00 00      	mov64 r6, 0x3
    9398: 79 82 50 00 00 00 00 00      	ldxdw r2, [r8 + 0x50]
    93a0: 55 02 4b 07 52 00 00 00      	jne r2, 0x52, +0x74b <entrypoint+0xc5d8>
    93a8: 71 82 85 00 00 00 00 00      	ldxb r2, [r8 + 0x85]
    93b0: 55 02 80 00 00 00 00 00      	jne r2, 0x0, +0x80 <entrypoint+0x8f90>
    93b8: ad 13 54 01 00 00 00 00      	jlt r3, r1, +0x154 <entrypoint+0x9638>
    93c0: 07 04 00 00 0a 00 00 00      	add64 r4, 0xa
    93c8: 72 08 58 00 01 00 00 00      	stb [r8 + 0x58], 0x1
    93d0: 72 08 85 00 01 00 00 00      	stb [r8 + 0x85], 0x1
    93d8: 79 41 00 00 00 00 00 00      	ldxdw r1, [r4 + 0x0]
    93e0: 79 42 08 00 00 00 00 00      	ldxdw r2, [r4 + 0x8]
    93e8: 79 43 10 00 00 00 00 00      	ldxdw r3, [r4 + 0x10]
    93f0: 79 44 18 00 00 00 00 00      	ldxdw r4, [r4 + 0x18]
    93f8: 7b 48 74 00 00 00 00 00      	stxdw [r8 + 0x74], r4
    9400: 7b 38 6c 00 00 00 00 00      	stxdw [r8 + 0x6c], r3
    9408: 7b 28 64 00 00 00 00 00      	stxdw [r8 + 0x64], r2
    9410: 7b 18 5c 00 00 00 00 00      	stxdw [r8 + 0x5c], r1
    9418: 79 a1 e0 f7 00 00 00 00      	ldxdw r1, [r10 - 0x820]
    9420: 73 18 84 00 00 00 00 00      	stxb [r8 + 0x84], r1
    9428: b7 00 00 00 00 00 00 00      	mov64 r0, 0x0
    9430: 15 09 73 fc 00 00 00 00      	jeq r9, 0x0, -0x38d <entrypoint+0x6fa8>
    9438: 72 08 86 00 01 00 00 00      	stb [r8 + 0x86], 0x1
    9440: 79 91 00 00 00 00 00 00      	ldxdw r1, [r9 + 0x0]
    9448: 79 92 08 00 00 00 00 00      	ldxdw r2, [r9 + 0x8]
    9450: 79 93 10 00 00 00 00 00      	ldxdw r3, [r9 + 0x10]
    9458: 79 94 18 00 00 00 00 00      	ldxdw r4, [r9 + 0x18]
    9460: 7b 48 a2 00 00 00 00 00      	stxdw [r8 + 0xa2], r4
    9468: 7b 38 9a 00 00 00 00 00      	stxdw [r8 + 0x9a], r3
    9470: 7b 28 92 00 00 00 00 00      	stxdw [r8 + 0x92], r2
    9478: 7b 18 8a 00 00 00 00 00      	stxdw [r8 + 0x8a], r1
    9480: 05 00 69 fc 00 00 00 00      	ja -0x397 <entrypoint+0x6fa8>
    9488: 79 02 80 00 00 00 00 00      	ldxdw r2, [r0 + 0x80]
    9490: 18 04 00 00 79 bd c9 11 00 00 00 00 bf ff 00 db      	lddw r4, -0x24ff0040ee364287
    94a0: 5d 42 1a 00 00 00 00 00      	jne r2, r4, +0x1a <entrypoint+0x8d50>
    94a8: 79 02 88 00 00 00 00 00      	ldxdw r2, [r0 + 0x88]
    94b0: 18 04 00 00 d4 4d 2e cd 00 00 00 00 cc f7 9c a6      	lddw r4, -0x5963083332d1b22c
    94c0: 5d 42 16 00 00 00 00 00      	jne r2, r4, +0x16 <entrypoint+0x8d50>
    94c8: 79 02 90 00 00 00 00 00      	ldxdw r2, [r0 + 0x90]
    94d0: 18 04 00 00 e1 00 38 e1 00 00 00 00 00 00 00 00      	lddw r4, 0xe13800e1
    94e0: 5d 42 12 00 00 00 00 00      	jne r2, r4, +0x12 <entrypoint+0x8d50>
    94e8: 79 31 08 00 00 00 00 00      	ldxdw r1, [r3 + 0x8]
    94f0: 18 02 00 00 00 33 90 72 00 00 00 00 8d 34 11 60      	lddw r2, 0x6011348d72903300
    9500: 5d 21 0c 00 00 00 00 00      	jne r1, r2, +0xc <entrypoint+0x8d40>
    9508: 79 34 10 00 00 00 00 00      	ldxdw r4, [r3 + 0x10]
    9510: 18 02 00 00 79 bd c9 11 00 00 00 00 bf ff 00 db      	lddw r2, -0x24ff0040ee364287
    9520: 5d 24 08 00 00 00 00 00      	jne r4, r2, +0x8 <entrypoint+0x8d40>
    9528: 79 34 18 00 00 00 00 00      	ldxdw r4, [r3 + 0x18]
    9530: 18 02 00 00 d4 4d 2e cd 00 00 00 00 cc f7 9c a6      	lddw r2, -0x5963083332d1b22c
    9540: 5d 24 04 00 00 00 00 00      	jne r4, r2, +0x4 <entrypoint+0x8d40>
    9548: 79 34 20 00 00 00 00 00      	ldxdw r4, [r3 + 0x20]
    9550: 18 02 00 00 e1 00 38 e1 00 00 00 00 00 00 00 00      	lddw r2, 0xe13800e1
    9560: 1d 24 89 00 00 00 00 00      	jeq r4, r2, +0x89 <entrypoint+0x9188>
    9568: b7 06 00 00 03 00 00 00      	mov64 r6, 0x3
    9570: 05 00 45 fc 00 00 00 00      	ja -0x3bb <entrypoint+0x6f78>
    9578: b7 09 00 00 04 00 00 00      	mov64 r9, 0x4
    9580: 79 a4 f8 f7 00 00 00 00      	ldxdw r4, [r10 - 0x808]
    9588: 79 42 08 00 00 00 00 00      	ldxdw r2, [r4 + 0x8]
    9590: 79 15 00 00 00 00 00 00      	ldxdw r5, [r1 + 0x0]
    9598: 5d 25 68 fc 00 00 00 00      	jne r5, r2, -0x398 <entrypoint+0x70b8>
    95a0: 79 42 10 00 00 00 00 00      	ldxdw r2, [r4 + 0x10]
    95a8: 79 15 08 00 00 00 00 00      	ldxdw r5, [r1 + 0x8]
    95b0: 5d 25 65 fc 00 00 00 00      	jne r5, r2, -0x39b <entrypoint+0x70b8>
    95b8: b7 06 00 00 00 00 00 00      	mov64 r6, 0x0
    95c0: 79 42 18 00 00 00 00 00      	ldxdw r2, [r4 + 0x18]
    95c8: 79 15 10 00 00 00 00 00      	ldxdw r5, [r1 + 0x10]
    95d0: 5d 25 39 fc 00 00 00 00      	jne r5, r2, -0x3c7 <entrypoint+0x6f78>
    95d8: 79 42 20 00 00 00 00 00      	ldxdw r2, [r4 + 0x20]
    95e0: 79 11 18 00 00 00 00 00      	ldxdw r1, [r1 + 0x18]
    95e8: 5d 21 36 fc 00 00 00 00      	jne r1, r2, -0x3ca <entrypoint+0x6f78>
    95f0: 79 41 50 00 00 00 00 00      	ldxdw r1, [r4 + 0x50]
    95f8: 55 01 74 00 63 01 00 00      	jne r1, 0x163, +0x74 <entrypoint+0x9178>
    9600: 79 41 28 00 00 00 00 00      	ldxdw r1, [r4 + 0x28]
    9608: 18 02 00 00 06 dd f6 e1 00 00 00 00 ee 75 8f de      	lddw r2, -0x21708a111e0922fa
    9618: 1d 21 64 00 00 00 00 00      	jeq r1, r2, +0x64 <entrypoint+0x9118>
    9620: 18 02 00 00 06 dd f6 e1 00 00 00 00 d7 65 a1 93      	lddw r2, -0x6c5e9a281e0922fa
    9630: 5d 21 6d 00 00 00 00 00      	jne r1, r2, +0x6d <entrypoint+0x9178>
    9638: 79 41 30 00 00 00 00 00      	ldxdw r1, [r4 + 0x30]
    9640: 18 02 00 00 d9 cb e1 46 00 00 00 00 ce eb 79 ac      	lddw r2, -0x53861431b91e3427
    9650: 5d 21 69 00 00 00 00 00      	jne r1, r2, +0x69 <entrypoint+0x9178>
    9658: 79 41 38 00 00 00 00 00      	ldxdw r1, [r4 + 0x38]
    9660: 18 02 00 00 1c b4 85 ed 00 00 00 00 5f 5b 37 91      	lddw r2, -0x6ec8a4a0127a4be4
    9670: 5d 21 65 00 00 00 00 00      	jne r1, r2, +0x65 <entrypoint+0x9178>
    9678: 79 41 40 00 00 00 00 00      	ldxdw r1, [r4 + 0x40]
    9680: 18 02 00 00 3a 8c f5 85 00 00 00 00 7e ff 00 a9      	lddw r2, -0x56ff00817a0a73c6
    9690: 5d 21 61 00 00 00 00 00      	jne r1, r2, +0x61 <entrypoint+0x9178>
    9698: 05 00 e8 03 00 00 00 00      	ja +0x3e8 <entrypoint+0xadb8>
    96a0: b7 07 00 00 04 00 00 00      	mov64 r7, 0x4
    96a8: 79 10 80 00 00 00 00 00      	ldxdw r0, [r1 + 0x80]
    96b0: 5d 50 23 01 00 00 00 00      	jne r0, r5, +0x123 <entrypoint+0x97a8>
    96b8: 79 15 28 52 00 00 00 00      	ldxdw r5, [r1 + 0x5228]
    96c0: 79 10 88 00 00 00 00 00      	ldxdw r0, [r1 + 0x88]
    96c8: 5d 50 20 01 00 00 00 00      	jne r0, r5, +0x120 <entrypoint+0x97a8>
    96d0: 79 15 30 52 00 00 00 00      	ldxdw r5, [r1 + 0x5230]
    96d8: 79 10 90 00 00 00 00 00      	ldxdw r0, [r1 + 0x90]
    96e0: 5d 50 1d 01 00 00 00 00      	jne r0, r5, +0x11d <entrypoint+0x97a8>
    96e8: 79 15 38 52 00 00 00 00      	ldxdw r5, [r1 + 0x5238]
    96f0: 79 10 98 00 00 00 00 00      	ldxdw r0, [r1 + 0x98]
    96f8: 5d 50 1a 01 00 00 00 00      	jne r0, r5, +0x11a <entrypoint+0x97a8>
    9700: 55 04 7f 01 63 01 00 00      	jne r4, 0x163, +0x17f <entrypoint+0x9ad8>
    9708: 79 14 40 52 00 00 00 00      	ldxdw r4, [r1 + 0x5240]
    9710: 18 05 00 00 06 dd f6 e1 00 00 00 00 ee 75 8f de      	lddw r5, -0x21708a111e0922fa
    9720: 1d 54 6f 01 00 00 00 00      	jeq r4, r5, +0x16f <entrypoint+0x9a78>
    9728: 18 05 00 00 06 dd f6 e1 00 00 00 00 d7 65 a1 93      	lddw r5, -0x6c5e9a281e0922fa
    9738: 5d 54 78 01 00 00 00 00      	jne r4, r5, +0x178 <entrypoint+0x9ad8>
    9740: 79 14 48 52 00 00 00 00      	ldxdw r4, [r1 + 0x5248]
    9748: 18 05 00 00 d9 cb e1 46 00 00 00 00 ce eb 79 ac      	lddw r5, -0x53861431b91e3427
    9758: 5d 54 74 01 00 00 00 00      	jne r4, r5, +0x174 <entrypoint+0x9ad8>
    9760: 79 14 50 52 00 00 00 00      	ldxdw r4, [r1 + 0x5250]
    9768: 18 05 00 00 1c b4 85 ed 00 00 00 00 5f 5b 37 91      	lddw r5, -0x6ec8a4a0127a4be4
    9778: 5d 54 70 01 00 00 00 00      	jne r4, r5, +0x170 <entrypoint+0x9ad8>
    9780: 79 14 58 52 00 00 00 00      	ldxdw r4, [r1 + 0x5258]
    9788: 18 05 00 00 3a 8c f5 85 00 00 00 00 7e ff 00 a9      	lddw r5, -0x56ff00817a0a73c6
    9798: 5d 54 6c 01 00 00 00 00      	jne r4, r5, +0x16c <entrypoint+0x9ad8>
    97a0: 05 00 3a 05 00 00 00 00      	ja +0x53a <entrypoint+0xb950>
    97a8: b7 06 00 00 0a 00 00 00      	mov64 r6, 0xa
    97b0: 05 00 fc fb 00 00 00 00      	ja -0x404 <entrypoint+0x6f70>
    97b8: 55 02 fc fb 01 00 00 00      	jne r2, 0x1, -0x404 <entrypoint+0x6f78>
    97c0: b7 06 00 00 00 00 00 00      	mov64 r6, 0x0
    97c8: b7 09 00 00 06 00 00 00      	mov64 r9, 0x6
    97d0: 05 00 f9 fb 00 00 00 00      	ja -0x407 <entrypoint+0x6f78>
    97d8: 7b 4a e0 f7 00 00 00 00      	stxdw [r10 - 0x820], r4
    97e0: 85 10 00 00 82 1d 00 00      	call 0x1d82
    97e8: bf 61 00 00 00 00 00 00      	mov64 r1, r6
    97f0: bf 02 00 00 00 00 00 00      	mov64 r2, r0
    97f8: 85 10 00 00 df 1d 00 00      	call 0x1ddf
    9800: bf 06 00 00 00 00 00 00      	mov64 r6, r0
    9808: b7 09 00 00 00 00 00 00      	mov64 r9, 0x0
    9810: bf 61 00 00 00 00 00 00      	mov64 r1, r6
    9818: b7 02 00 00 00 00 00 00      	mov64 r2, 0x0
    9820: 85 10 00 00 ba 1d 00 00      	call 0x1dba
    9828: bf 07 00 00 00 00 00 00      	mov64 r7, r0
    9830: bf 61 00 00 00 00 00 00      	mov64 r1, r6
    9838: 85 10 00 00 d4 1e 00 00      	call 0x1ed4
    9840: c5 07 01 00 00 00 00 00      	jslt r7, 0x0, +0x1 <entrypoint+0x9028>
    9848: bf 09 00 00 00 00 00 00      	mov64 r9, r0
    9850: bf 61 00 00 00 00 00 00      	mov64 r1, r6
    9858: 18 02 00 00 ff ff ff ff 00 00 00 00 ff ff ef 43      	lddw r2, 0x43efffffffffffff
    9868: 85 10 00 00 10 1f 00 00      	call 0x1f10
    9870: b7 01 00 00 ff ff ff ff      	mov64 r1, -0x1
    9878: 65 00 01 00 00 00 00 00      	jsgt r0, 0x0, +0x1 <entrypoint+0x9060>
    9880: bf 91 00 00 00 00 00 00      	mov64 r1, r9
    9888: 79 a4 e0 f7 00 00 00 00      	ldxdw r4, [r10 - 0x820]
    9890: b7 06 00 00 03 00 00 00      	mov64 r6, 0x3
    9898: b7 09 00 00 00 00 00 00      	mov64 r9, 0x0
    98a0: 55 08 df fb a5 00 00 00      	jne r8, 0xa5, -0x421 <entrypoint+0x6f78>
    98a8: 71 42 c4 00 00 00 00 00      	ldxb r2, [r4 + 0xc4]
    98b0: 25 02 dd fb 02 00 00 00      	jgt r2, 0x2, -0x423 <entrypoint+0x6f78>
    98b8: 15 02 b2 01 00 00 00 00      	jeq r2, 0x0, +0x1b2 <entrypoint+0x9e28>
    98c0: 71 42 c5 00 00 00 00 00      	ldxb r2, [r4 + 0xc5]
    98c8: 55 02 30 01 01 00 00 00      	jne r2, 0x1, +0x130 <entrypoint+0x9a28>
    98d0: 79 42 48 00 00 00 00 00      	ldxdw r2, [r4 + 0x48]
    98d8: ad 12 12 01 00 00 00 00      	jlt r2, r1, +0x112 <entrypoint+0x9948>
    98e0: 7b 14 c9 00 00 00 00 00      	stxdw [r4 + 0xc9], r1
    98e8: 1f 12 00 00 00 00 00 00      	sub64 r2, r1
    98f0: 7b 24 98 00 00 00 00 00      	stxdw [r4 + 0x98], r2
    98f8: b7 00 00 00 00 00 00 00      	mov64 r0, 0x0
    9900: 05 00 d9 fb 00 00 00 00      	ja -0x427 <entrypoint+0x6fa8>
    9908: b7 06 00 00 06 00 00 00      	mov64 r6, 0x6
    9910: 05 00 d0 fb 00 00 00 00      	ja -0x430 <entrypoint+0x6f70>
    9918: 61 a9 e8 ff 00 00 00 00      	ldxw r9, [r10 - 0x18]
    9920: 61 a6 e4 ff 00 00 00 00      	ldxw r6, [r10 - 0x1c]
    9928: 05 00 ce fb 00 00 00 00      	ja -0x432 <entrypoint+0x6f78>
    9930: b7 06 00 00 00 00 00 00      	mov64 r6, 0x0
    9938: 05 00 cb fb 00 00 00 00      	ja -0x435 <entrypoint+0x6f70>
    9940: 79 41 30 00 00 00 00 00      	ldxdw r1, [r4 + 0x30]
    9948: 18 02 00 00 18 42 5d bc 00 00 00 00 e4 6c cd da      	lddw r2, -0x2532931b43a2bde8
    9958: 5d 21 08 00 00 00 00 00      	jne r1, r2, +0x8 <entrypoint+0x9178>
    9960: 79 41 38 00 00 00 00 00      	ldxdw r1, [r4 + 0x38]
    9968: 18 02 00 00 b6 1a fc 4d 00 00 00 00 83 b9 0d 27      	lddw r2, 0x270db9834dfc1ab6
    9978: 5d 21 04 00 00 00 00 00      	jne r1, r2, +0x4 <entrypoint+0x9178>
    9980: 79 41 40 00 00 00 00 00      	ldxdw r1, [r4 + 0x40]
    9988: 18 02 00 00 fe bd f9 28 00 00 00 00 d8 a1 8b fc      	lddw r2, -0x3745e27d7064202
    9998: 1d 21 88 03 00 00 00 00      	jeq r1, r2, +0x388 <entrypoint+0xadb8>
    99a0: 71 42 01 00 00 00 00 00      	ldxb r2, [r4 + 0x1]
    99a8: 15 02 83 07 00 00 00 00      	jeq r2, 0x0, +0x783 <entrypoint+0xcda0>
    99b0: 79 04 48 00 00 00 00 00      	ldxdw r4, [r0 + 0x48]
    99b8: 79 32 48 00 00 00 00 00      	ldxdw r2, [r3 + 0x48]
    99c0: 0f 42 00 00 00 00 00 00      	add64 r2, r4
    99c8: 7b 23 48 00 00 00 00 00      	stxdw [r3 + 0x48], r2
    99d0: 07 00 00 00 28 00 00 00      	add64 r0, 0x28
    99d8: bf 01 00 00 00 00 00 00      	mov64 r1, r0
    99e0: b7 02 00 00 00 00 00 00      	mov64 r2, 0x0
    99e8: b7 03 00 00 30 00 00 00      	mov64 r3, 0x30
    99f0: 85 10 00 00 ff ff ff ff      	call -0x1
    99f8: b7 00 00 00 00 00 00 00      	mov64 r0, 0x0
    9a00: 05 00 b9 fb 00 00 00 00      	ja -0x447 <entrypoint+0x6fa8>
    9a08: b7 06 00 00 00 00 00 00      	mov64 r6, 0x0
    9a10: b7 01 00 00 0c 00 00 00      	mov64 r1, 0xc
    9a18: 05 00 ae fb 00 00 00 00      	ja -0x452 <entrypoint+0x6f68>
    9a20: 79 42 80 00 00 00 00 00      	ldxdw r2, [r4 + 0x80]
    9a28: 18 00 00 00 79 bd c9 11 00 00 00 00 bf ff 00 db      	lddw r0, -0x24ff0040ee364287
    9a38: 5d 02 08 00 00 00 00 00      	jne r2, r0, +0x8 <entrypoint+0x9258>
    9a40: 79 42 88 00 00 00 00 00      	ldxdw r2, [r4 + 0x88]
    9a48: 18 00 00 00 d4 4d 2e cd 00 00 00 00 cc f7 9c a6      	lddw r0, -0x5963083332d1b22c
    9a58: 5d 02 04 00 00 00 00 00      	jne r2, r0, +0x4 <entrypoint+0x9258>
    9a60: 79 42 90 00 00 00 00 00      	ldxdw r2, [r4 + 0x90]
    9a68: 18 00 00 00 e1 00 38 e1 00 00 00 00 00 00 00 00      	lddw r0, 0xe13800e1
    9a78: 1d 02 ef 00 00 00 00 00      	jeq r2, r0, +0xef <entrypoint+0x99d0>
    9a80: 7b 5a d8 f7 00 00 00 00      	stxdw [r10 - 0x828], r5
    9a88: bf a2 00 00 00 00 00 00      	mov64 r2, r10
    9a90: 07 02 00 00 00 f8 ff ff      	add64 r2, -0x800
    9a98: 7b 2a c8 f7 00 00 00 00      	stxdw [r10 - 0x838], r2
    9aa0: 79 a0 f8 f7 00 00 00 00      	ldxdw r0, [r10 - 0x808]
    9aa8: bf 45 00 00 00 00 00 00      	mov64 r5, r4
    9ab0: 71 52 a0 00 00 00 00 00      	ldxb r2, [r5 + 0xa0]
    9ab8: 55 02 24 00 01 00 00 00      	jne r2, 0x1, +0x24 <entrypoint+0x93b8>
    9ac0: 79 02 08 00 00 00 00 00      	ldxdw r2, [r0 + 0x8]
    9ac8: 79 58 a4 00 00 00 00 00      	ldxdw r8, [r5 + 0xa4]
    9ad0: 5d 82 22 00 00 00 00 00      	jne r2, r8, +0x22 <entrypoint+0x93c0>
    9ad8: 79 58 ac 00 00 00 00 00      	ldxdw r8, [r5 + 0xac]
    9ae0: 79 09 10 00 00 00 00 00      	ldxdw r9, [r0 + 0x10]
    9ae8: 5d 89 1f 00 00 00 00 00      	jne r9, r8, +0x1f <entrypoint+0x93c0>
    9af0: 79 58 b4 00 00 00 00 00      	ldxdw r8, [r5 + 0xb4]
    9af8: 79 09 18 00 00 00 00 00      	ldxdw r9, [r0 + 0x18]
    9b00: 5d 89 1c 00 00 00 00 00      	jne r9, r8, +0x1c <entrypoint+0x93c0>
    9b08: 79 58 bc 00 00 00 00 00      	ldxdw r8, [r5 + 0xbc]
    9b10: 79 09 20 00 00 00 00 00      	ldxdw r9, [r0 + 0x20]
    9b18: 5d 89 19 00 00 00 00 00      	jne r9, r8, +0x19 <entrypoint+0x93c0>
    9b20: 79 01 50 00 00 00 00 00      	ldxdw r1, [r0 + 0x50]
    9b28: b7 09 00 00 01 00 00 00      	mov64 r9, 0x1
    9b30: 79 a5 d8 f7 00 00 00 00      	ldxdw r5, [r10 - 0x828]
    9b38: 55 01 9c 02 63 01 00 00      	jne r1, 0x163, +0x29c <entrypoint+0xa7f8>
    9b40: 79 01 28 00 00 00 00 00      	ldxdw r1, [r0 + 0x28]
    9b48: 18 02 00 00 06 dd f6 e1 00 00 00 00 ee 75 8f de      	lddw r2, -0x21708a111e0922fa
    9b58: 1d 21 8c 02 00 00 00 00      	jeq r1, r2, +0x28c <entrypoint+0xa798>
    9b60: 18 02 00 00 06 dd f6 e1 00 00 00 00 d7 65 a1 93      	lddw r2, -0x6c5e9a281e0922fa
    9b70: 5d 21 95 02 00 00 00 00      	jne r1, r2, +0x295 <entrypoint+0xa7f8>
    9b78: 79 01 30 00 00 00 00 00      	ldxdw r1, [r0 + 0x30]
    9b80: 18 02 00 00 d9 cb e1 46 00 00 00 00 ce eb 79 ac      	lddw r2, -0x53861431b91e3427
    9b90: 5d 21 91 02 00 00 00 00      	jne r1, r2, +0x291 <entrypoint+0xa7f8>
    9b98: 79 01 38 00 00 00 00 00      	ldxdw r1, [r0 + 0x38]
    9ba0: 18 02 00 00 1c b4 85 ed 00 00 00 00 5f 5b 37 91      	lddw r2, -0x6ec8a4a0127a4be4
    9bb0: 5d 21 8d 02 00 00 00 00      	jne r1, r2, +0x28d <entrypoint+0xa7f8>
    9bb8: 79 01 40 00 00 00 00 00      	ldxdw r1, [r0 + 0x40]
    9bc0: 18 02 00 00 3a 8c f5 85 00 00 00 00 7e ff 00 a9      	lddw r2, -0x56ff00817a0a73c6
    9bd0: 5d 21 89 02 00 00 00 00      	jne r1, r2, +0x289 <entrypoint+0xa7f8>
    9bd8: 05 00 2d 06 00 00 00 00      	ja +0x62d <entrypoint+0xc520>
    9be0: 79 02 08 00 00 00 00 00      	ldxdw r2, [r0 + 0x8]
    9be8: b7 09 00 00 04 00 00 00      	mov64 r9, 0x4
    9bf0: 5d 21 75 fb 00 00 00 00      	jne r1, r2, -0x48b <entrypoint+0x6f78>
    9bf8: 79 01 10 00 00 00 00 00      	ldxdw r1, [r0 + 0x10]
    9c00: bf 45 00 00 00 00 00 00      	mov64 r5, r4
    9c08: 79 52 80 00 00 00 00 00      	ldxdw r2, [r5 + 0x80]
    9c10: 5d 12 71 fb 00 00 00 00      	jne r2, r1, -0x48f <entrypoint+0x6f78>
    9c18: 79 01 18 00 00 00 00 00      	ldxdw r1, [r0 + 0x18]
    9c20: 79 52 88 00 00 00 00 00      	ldxdw r2, [r5 + 0x88]
    9c28: 5d 12 6e fb 00 00 00 00      	jne r2, r1, -0x492 <entrypoint+0x6f78>
    9c30: 79 01 20 00 00 00 00 00      	ldxdw r1, [r0 + 0x20]
    9c38: 79 52 90 00 00 00 00 00      	ldxdw r2, [r5 + 0x90]
    9c40: 5d 12 6b fb 00 00 00 00      	jne r2, r1, -0x495 <entrypoint+0x6f78>
    9c48: 79 01 50 00 00 00 00 00      	ldxdw r1, [r0 + 0x50]
    9c50: 79 a5 d8 f7 00 00 00 00      	ldxdw r5, [r10 - 0x828]
    9c58: 55 01 b1 00 63 01 00 00      	jne r1, 0x163, +0xb1 <entrypoint+0x99c0>
    9c60: 79 01 28 00 00 00 00 00      	ldxdw r1, [r0 + 0x28]
    9c68: 18 02 00 00 06 dd f6 e1 00 00 00 00 ee 75 8f de      	lddw r2, -0x21708a111e0922fa
    9c78: 1d 21 a1 00 00 00 00 00      	jeq r1, r2, +0xa1 <entrypoint+0x9960>
    9c80: 18 02 00 00 06 dd f6 e1 00 00 00 00 d7 65 a1 93      	lddw r2, -0x6c5e9a281e0922fa
    9c90: 5d 21 aa 00 00 00 00 00      	jne r1, r2, +0xaa <entrypoint+0x99c0>
    9c98: 79 01 30 00 00 00 00 00      	ldxdw r1, [r0 + 0x30]
    9ca0: 18 02 00 00 d9 cb e1 46 00 00 00 00 ce eb 79 ac      	lddw r2, -0x53861431b91e3427
    9cb0: 5d 21 a6 00 00 00 00 00      	jne r1, r2, +0xa6 <entrypoint+0x99c0>
    9cb8: 79 01 38 00 00 00 00 00      	ldxdw r1, [r0 + 0x38]
    9cc0: 18 02 00 00 1c b4 85 ed 00 00 00 00 5f 5b 37 91      	lddw r2, -0x6ec8a4a0127a4be4
    9cd0: 5d 21 a2 00 00 00 00 00      	jne r1, r2, +0xa2 <entrypoint+0x99c0>
    9cd8: 79 01 40 00 00 00 00 00      	ldxdw r1, [r0 + 0x40]
    9ce0: 18 02 00 00 3a 8c f5 85 00 00 00 00 7e ff 00 a9      	lddw r2, -0x56ff00817a0a73c6
    9cf0: 5d 21 9e 00 00 00 00 00      	jne r1, r2, +0x9e <entrypoint+0x99c0>
    9cf8: 05 00 b8 03 00 00 00 00      	ja +0x3b8 <entrypoint+0xb298>
    9d00: b7 06 00 00 0a 00 00 00      	mov64 r6, 0xa
    9d08: 05 00 52 fb 00 00 00 00      	ja -0x4ae <entrypoint+0x6f78>
    9d10: b7 09 00 00 00 00 00 00      	mov64 r9, 0x0
    9d18: b7 06 00 00 03 00 00 00      	mov64 r6, 0x3
    9d20: 05 00 4f fb 00 00 00 00      	ja -0x4b1 <entrypoint+0x6f78>
    9d28: 55 02 4e fb 00 00 00 00      	jne r2, 0x0, -0x4b2 <entrypoint+0x6f78>
    9d30: 05 00 23 01 00 00 00 00      	ja +0x123 <entrypoint+0x9e28>
    9d38: 79 01 30 00 00 00 00 00      	ldxdw r1, [r0 + 0x30]
    9d40: 18 02 00 00 18 42 5d bc 00 00 00 00 e4 6c cd da      	lddw r2, -0x2532931b43a2bde8
    9d50: 5d 21 08 00 00 00 00 00      	jne r1, r2, +0x8 <entrypoint+0x9570>
    9d58: 79 01 38 00 00 00 00 00      	ldxdw r1, [r0 + 0x38]
    9d60: 18 02 00 00 b6 1a fc 4d 00 00 00 00 83 b9 0d 27      	lddw r2, 0x270db9834dfc1ab6
    9d70: 5d 21 04 00 00 00 00 00      	jne r1, r2, +0x4 <entrypoint+0x9570>
    9d78: 79 01 40 00 00 00 00 00      	ldxdw r1, [r0 + 0x40]
    9d80: 18 02 00 00 fe bd f9 28 00 00 00 00 d8 a1 8b fc      	lddw r2, -0x3745e27d7064202
    9d90: 1d 21 1d 03 00 00 00 00      	jeq r1, r2, +0x31d <entrypoint+0xae58>
    9d98: 71 01 01 00 00 00 00 00      	ldxb r1, [r0 + 0x1]
    9da0: 15 01 04 07 00 00 00 00      	jeq r1, 0x0, +0x704 <entrypoint+0xcda0>
    9da8: bf 54 00 00 00 00 00 00      	mov64 r4, r5
    9db0: 15 08 09 02 00 00 00 00      	jeq r8, 0x0, +0x209 <entrypoint+0xa5d8>
    9db8: 1d 34 08 02 00 00 00 00      	jeq r4, r3, +0x208 <entrypoint+0xa5d8>
    9dc0: 79 a1 d8 f7 00 00 00 00      	ldxdw r1, [r10 - 0x828]
    9dc8: 1f 81 00 00 00 00 00 00      	sub64 r1, r8
    9dd0: 7b 14 98 00 00 00 00 00      	stxdw [r4 + 0x98], r1
    9dd8: 79 31 50 00 00 00 00 00      	ldxdw r1, [r3 + 0x50]
    9de0: b7 09 00 00 00 00 00 00      	mov64 r9, 0x0
    9de8: b7 06 00 00 03 00 00 00      	mov64 r6, 0x3
    9df0: 55 01 35 fb a5 00 00 00      	jne r1, 0xa5, -0x4cb <entrypoint+0x6f78>
    9df8: 79 31 98 00 00 00 00 00      	ldxdw r1, [r3 + 0x98]
    9e00: 0f 81 00 00 00 00 00 00      	add64 r1, r8
    9e08: 7b 13 98 00 00 00 00 00      	stxdw [r3 + 0x98], r1
    9e10: b7 00 00 00 00 00 00 00      	mov64 r0, 0x0
    9e18: 71 51 c5 00 00 00 00 00      	ldxb r1, [r5 + 0xc5]
    9e20: 55 01 35 fb 01 00 00 00      	jne r1, 0x1, -0x4cb <entrypoint+0x6fa8>
    9e28: 79 51 48 00 00 00 00 00      	ldxdw r1, [r5 + 0x48]
    9e30: 1f 81 00 00 00 00 00 00      	sub64 r1, r8
    9e38: 7b 15 48 00 00 00 00 00      	stxdw [r5 + 0x48], r1
    9e40: 79 31 48 00 00 00 00 00      	ldxdw r1, [r3 + 0x48]
    9e48: 0f 81 00 00 00 00 00 00      	add64 r1, r8
    9e50: 7b 13 48 00 00 00 00 00      	stxdw [r3 + 0x48], r1
    9e58: 05 00 2e fb 00 00 00 00      	ja -0x4d2 <entrypoint+0x6fa8>
    9e60: b7 09 00 00 00 00 00 00      	mov64 r9, 0x0
    9e68: b7 06 00 00 00 00 00 00      	mov64 r6, 0x0
    9e70: 05 00 25 fb 00 00 00 00      	ja -0x4db <entrypoint+0x6f78>
    9e78: b7 08 00 00 00 00 00 00      	mov64 r8, 0x0
    9e80: b7 09 00 00 11 00 00 00      	mov64 r9, 0x11
    9e88: 15 01 56 fd 02 00 00 00      	jeq r1, 0x2, -0x2aa <entrypoint+0x8118>
    9e90: 71 41 c5 00 00 00 00 00      	ldxb r1, [r4 + 0xc5]
    9e98: bf 46 00 00 00 00 00 00      	mov64 r6, r4
    9ea0: 15 01 51 05 01 00 00 00      	jeq r1, 0x1, +0x551 <entrypoint+0xc108>
    9ea8: 79 04 09 00 00 00 00 00      	ldxdw r4, [r0 + 0x9]
    9eb0: b7 09 00 00 01 00 00 00      	mov64 r9, 0x1
    9eb8: 79 65 98 00 00 00 00 00      	ldxdw r5, [r6 + 0x98]
    9ec0: ad 45 4f fd 00 00 00 00      	jlt r5, r4, -0x2b1 <entrypoint+0x8118>
    9ec8: 79 61 58 00 00 00 00 00      	ldxdw r1, [r6 + 0x58]
    9ed0: 79 32 08 00 00 00 00 00      	ldxdw r2, [r3 + 0x8]
    9ed8: 5d 12 46 05 00 00 00 00      	jne r2, r1, +0x546 <entrypoint+0xc0e8>
    9ee0: 79 61 60 00 00 00 00 00      	ldxdw r1, [r6 + 0x60]
    9ee8: 79 32 10 00 00 00 00 00      	ldxdw r2, [r3 + 0x10]
    9ef0: 5d 12 43 05 00 00 00 00      	jne r2, r1, +0x543 <entrypoint+0xc0e8>
    9ef8: 79 61 68 00 00 00 00 00      	ldxdw r1, [r6 + 0x68]
    9f00: 79 32 18 00 00 00 00 00      	ldxdw r2, [r3 + 0x18]
    9f08: 5d 12 40 05 00 00 00 00      	jne r2, r1, +0x540 <entrypoint+0xc0e8>
    9f10: 7b 6a e0 f7 00 00 00 00      	stxdw [r10 - 0x820], r6
    9f18: 79 61 70 00 00 00 00 00      	ldxdw r1, [r6 + 0x70]
    9f20: 79 32 20 00 00 00 00 00      	ldxdw r2, [r3 + 0x20]
    9f28: 5d 12 3c 05 00 00 00 00      	jne r2, r1, +0x53c <entrypoint+0xc0e8>
    9f30: 71 01 11 00 00 00 00 00      	ldxb r1, [r0 + 0x11]
    9f38: 71 32 84 00 00 00 00 00      	ldxb r2, [r3 + 0x84]
    9f40: 5d 21 6d 05 00 00 00 00      	jne r1, r2, +0x56d <entrypoint+0xc288>
    9f48: 79 a1 e0 f7 00 00 00 00      	ldxdw r1, [r10 - 0x820]
    9f50: 79 11 78 00 00 00 00 00      	ldxdw r1, [r1 + 0x78]
    9f58: 18 02 00 00 00 33 90 72 00 00 00 00 8d 34 11 60      	lddw r2, 0x6011348d72903300
    9f68: 1d 21 09 01 00 00 00 00      	jeq r1, r2, +0x109 <entrypoint+0x9f90>
    9f70: 55 01 17 01 00 00 00 00      	jne r1, 0x0, +0x117 <entrypoint+0xa008>
    9f78: 79 a2 e0 f7 00 00 00 00      	ldxdw r2, [r10 - 0x820]
    9f80: 79 22 80 00 00 00 00 00      	ldxdw r2, [r2 + 0x80]
    9f88: 55 02 14 01 00 00 00 00      	jne r2, 0x0, +0x114 <entrypoint+0xa008>
    9f90: 79 a2 e0 f7 00 00 00 00      	ldxdw r2, [r10 - 0x820]
    9f98: 79 22 88 00 00 00 00 00      	ldxdw r2, [r2 + 0x88]
    9fa0: 55 02 11 01 00 00 00 00      	jne r2, 0x0, +0x111 <entrypoint+0xa008>
    9fa8: 79 a2 e0 f7 00 00 00 00      	ldxdw r2, [r10 - 0x820]
    9fb0: 79 22 90 00 00 00 00 00      	ldxdw r2, [r2 + 0x90]
    9fb8: 55 02 0e 01 00 00 00 00      	jne r2, 0x0, +0x10e <entrypoint+0xa008>
    9fc0: 05 00 a2 01 00 00 00 00      	ja +0x1a2 <entrypoint+0xa4b0>
    9fc8: b7 07 00 00 03 00 00 00      	mov64 r7, 0x3
    9fd0: bf 61 00 00 00 00 00 00      	mov64 r1, r6
    9fd8: bf 72 00 00 00 00 00 00      	mov64 r2, r7
    9fe0: 85 10 00 00 e4 08 00 00      	call 0x8e4
    9fe8: bf 61 00 00 00 00 00 00      	mov64 r1, r6
    9ff0: bf 72 00 00 00 00 00 00      	mov64 r2, r7
    9ff8: 05 00 f9 fa 00 00 00 00      	ja -0x507 <entrypoint+0x6fa0>
    a000: 05 00 f2 fa 00 00 00 00      	ja -0x50e <entrypoint+0x6f70>
    a008: b7 06 00 00 11 00 00 00      	mov64 r6, 0x11
    a010: 05 00 24 fd 00 00 00 00      	ja -0x2dc <entrypoint+0x8110>
    a018: 79 51 30 00 00 00 00 00      	ldxdw r1, [r5 + 0x30]
    a020: 18 02 00 00 18 42 5d bc 00 00 00 00 e4 6c cd da      	lddw r2, -0x2532931b43a2bde8
    a030: 5d 21 08 00 00 00 00 00      	jne r1, r2, +0x8 <entrypoint+0x9850>
    a038: 79 51 38 00 00 00 00 00      	ldxdw r1, [r5 + 0x38]
    a040: 18 02 00 00 b6 1a fc 4d 00 00 00 00 83 b9 0d 27      	lddw r2, 0x270db9834dfc1ab6
    a050: 5d 21 04 00 00 00 00 00      	jne r1, r2, +0x4 <entrypoint+0x9850>
    a058: 79 51 40 00 00 00 00 00      	ldxdw r1, [r5 + 0x40]
    a060: 18 02 00 00 fe bd f9 28 00 00 00 00 d8 a1 8b fc      	lddw r2, -0x3745e27d7064202
    a070: 1d 21 38 03 00 00 00 00      	jeq r1, r2, +0x338 <entrypoint+0xb210>
    a078: 71 51 01 00 00 00 00 00      	ldxb r1, [r5 + 0x1]
    a080: 15 01 a8 06 00 00 00 00      	jeq r1, 0x0, +0x6a8 <entrypoint+0xcda0>
    a088: 15 04 0e 00 00 00 00 00      	jeq r4, 0x0, +0xe <entrypoint+0x98d8>
    a090: 79 75 7c 00 00 00 00 00      	ldxdw r5, [r7 + 0x7c]
    a098: bf 51 00 00 00 00 00 00      	mov64 r1, r5
    a0a0: 0f 41 00 00 00 00 00 00      	add64 r1, r4
    a0a8: b7 02 00 00 01 00 00 00      	mov64 r2, 0x1
    a0b0: ad 51 01 00 00 00 00 00      	jlt r1, r5, +0x1 <entrypoint+0x9898>
    a0b8: b7 02 00 00 00 00 00 00      	mov64 r2, 0x0
    a0c0: 57 02 00 00 01 00 00 00      	and64 r2, 0x1
    a0c8: 55 02 14 00 00 00 00 00      	jne r2, 0x0, +0x14 <entrypoint+0x9948>
    a0d0: 7b 17 7c 00 00 00 00 00      	stxdw [r7 + 0x7c], r1
    a0d8: 79 31 98 00 00 00 00 00      	ldxdw r1, [r3 + 0x98]
    a0e0: 0f 41 00 00 00 00 00 00      	add64 r1, r4
    a0e8: 7b 13 98 00 00 00 00 00      	stxdw [r3 + 0x98], r1
    a0f0: b7 00 00 00 00 00 00 00      	mov64 r0, 0x0
    a0f8: 05 00 da fa 00 00 00 00      	ja -0x526 <entrypoint+0x6fa8>
    a100: 79 71 28 00 00 00 00 00      	ldxdw r1, [r7 + 0x28]
    a108: 18 02 00 00 06 dd f6 e1 00 00 00 00 d7 65 a1 93      	lddw r2, -0x6c5e9a281e0922fa
    a118: 5d 21 bd 01 00 00 00 00      	jne r1, r2, +0x1bd <entrypoint+0xa6e0>
    a120: 79 71 30 00 00 00 00 00      	ldxdw r1, [r7 + 0x30]
    a128: 18 02 00 00 d9 cb e1 46 00 00 00 00 ce eb 79 ac      	lddw r2, -0x53861431b91e3427
    a138: 5d 21 b9 01 00 00 00 00      	jne r1, r2, +0x1b9 <entrypoint+0xa6e0>
    a140: 79 71 38 00 00 00 00 00      	ldxdw r1, [r7 + 0x38]
    a148: 18 02 00 00 1c b4 85 ed 00 00 00 00 5f 5b 37 91      	lddw r2, -0x6ec8a4a0127a4be4
    a158: 5d 21 b5 01 00 00 00 00      	jne r1, r2, +0x1b5 <entrypoint+0xa6e0>
    a160: 79 71 40 00 00 00 00 00      	ldxdw r1, [r7 + 0x40]
    a168: 05 00 9f 01 00 00 00 00      	ja +0x19f <entrypoint+0xa640>
    a170: b7 06 00 00 00 00 00 00      	mov64 r6, 0x0
    a178: b7 09 00 00 0e 00 00 00      	mov64 r9, 0xe
    a180: 05 00 c3 fa 00 00 00 00      	ja -0x53d <entrypoint+0x6f78>
    a188: 79 01 30 00 00 00 00 00      	ldxdw r1, [r0 + 0x30]
    a190: 18 02 00 00 18 42 5d bc 00 00 00 00 e4 6c cd da      	lddw r2, -0x2532931b43a2bde8
    a1a0: 5d 21 08 00 00 00 00 00      	jne r1, r2, +0x8 <entrypoint+0x99c0>
    a1a8: 79 01 38 00 00 00 00 00      	ldxdw r1, [r0 + 0x38]
    a1b0: 18 02 00 00 b6 1a fc 4d 00 00 00 00 83 b9 0d 27      	lddw r2, 0x270db9834dfc1ab6
    a1c0: 5d 21 04 00 00 00 00 00      	jne r1, r2, +0x4 <entrypoint+0x99c0>
    a1c8: 79 01 40 00 00 00 00 00      	ldxdw r1, [r0 + 0x40]
    a1d0: 18 02 00 00 fe bd f9 28 00 00 00 00 d8 a1 8b fc      	lddw r2, -0x3745e27d7064202
    a1e0: 1d 21 1b 03 00 00 00 00      	jeq r1, r2, +0x31b <entrypoint+0xb298>
    a1e8: 71 01 01 00 00 00 00 00      	ldxb r1, [r0 + 0x1]
    a1f0: 15 01 7a 06 00 00 00 00      	jeq r1, 0x0, +0x67a <entrypoint+0xcda0>
    a1f8: 15 05 a2 02 00 00 00 00      	jeq r5, 0x0, +0x2a2 <entrypoint+0xaee8>
    a200: 79 a1 d0 f7 00 00 00 00      	ldxdw r1, [r10 - 0x830]
    a208: 1f 51 00 00 00 00 00 00      	sub64 r1, r5
    a210: 7b 14 98 00 00 00 00 00      	stxdw [r4 + 0x98], r1
    a218: 79 31 7c 00 00 00 00 00      	ldxdw r1, [r3 + 0x7c]
    a220: 1f 51 00 00 00 00 00 00      	sub64 r1, r5
    a228: 7b 13 7c 00 00 00 00 00      	stxdw [r3 + 0x7c], r1
    a230: b7 00 00 00 00 00 00 00      	mov64 r0, 0x0
    a238: 05 00 b2 fa 00 00 00 00      	ja -0x54e <entrypoint+0x6fa8>
    a240: b7 06 00 00 03 00 00 00      	mov64 r6, 0x3
    a248: 05 00 aa fa 00 00 00 00      	ja -0x556 <entrypoint+0x6f78>
    a250: b7 06 00 00 00 00 00 00      	mov64 r6, 0x0
    a258: b7 09 00 00 13 00 00 00      	mov64 r9, 0x13
    a260: 05 00 a7 fa 00 00 00 00      	ja -0x559 <entrypoint+0x6f78>
    a268: 15 01 7c 00 00 00 00 00      	jeq r1, 0x0, +0x7c <entrypoint+0x9e28>
    a270: b7 06 00 00 03 00 00 00      	mov64 r6, 0x3
    a278: 05 00 a4 fa 00 00 00 00      	ja -0x55c <entrypoint+0x6f78>
    a280: b7 09 00 00 06 00 00 00      	mov64 r9, 0x6
    a288: 05 00 a2 fa 00 00 00 00      	ja -0x55e <entrypoint+0x6f78>
    a290: b7 01 00 00 03 00 00 00      	mov64 r1, 0x3
    a298: 05 00 90 01 00 00 00 00      	ja +0x190 <entrypoint+0xa6f8>
    a2a0: 79 14 48 52 00 00 00 00      	ldxdw r4, [r1 + 0x5248]
    a2a8: 18 05 00 00 18 42 5d bc 00 00 00 00 e4 6c cd da      	lddw r5, -0x2532931b43a2bde8
    a2b8: 5d 54 08 00 00 00 00 00      	jne r4, r5, +0x8 <entrypoint+0x9ad8>
    a2c0: 79 14 50 52 00 00 00 00      	ldxdw r4, [r1 + 0x5250]
    a2c8: 18 05 00 00 b6 1a fc 4d 00 00 00 00 83 b9 0d 27      	lddw r5, 0x270db9834dfc1ab6
    a2d8: 5d 54 04 00 00 00 00 00      	jne r4, r5, +0x4 <entrypoint+0x9ad8>
    a2e0: 79 14 58 52 00 00 00 00      	ldxdw r4, [r1 + 0x5258]
    a2e8: 18 05 00 00 fe bd f9 28 00 00 00 00 d8 a1 8b fc      	lddw r5, -0x3745e27d7064202
    a2f8: 1d 54 cf 03 00 00 00 00      	jeq r4, r5, +0x3cf <entrypoint+0xb950>
    a300: 71 14 19 52 00 00 00 00      	ldxb r4, [r1 + 0x5219]
    a308: 15 04 d1 03 00 00 00 00      	jeq r4, 0x0, +0x3d1 <entrypoint+0xb970>
    a310: 15 02 c7 01 00 00 00 00      	jeq r2, 0x0, +0x1c7 <entrypoint+0xa928>
    a318: 1f 23 00 00 00 00 00 00      	sub64 r3, r2
    a320: 7b 31 a0 00 00 00 00 00      	stxdw [r1 + 0xa0], r3
    a328: 79 13 a8 29 00 00 00 00      	ldxdw r3, [r1 + 0x29a8]
    a330: 0f 23 00 00 00 00 00 00      	add64 r3, r2
    a338: 7b 31 a8 29 00 00 00 00      	stxdw [r1 + 0x29a8], r3
    a340: b7 00 00 00 00 00 00 00      	mov64 r0, 0x0
    a348: 71 13 cd 00 00 00 00 00      	ldxb r3, [r1 + 0xcd]
    a350: 55 03 8f fa 01 00 00 00      	jne r3, 0x1, -0x571 <entrypoint+0x6fa8>
    a358: 79 13 50 00 00 00 00 00      	ldxdw r3, [r1 + 0x50]
    a360: 1f 23 00 00 00 00 00 00      	sub64 r3, r2
    a368: 7b 31 50 00 00 00 00 00      	stxdw [r1 + 0x50], r3
    a370: 79 13 58 29 00 00 00 00      	ldxdw r3, [r1 + 0x2958]
    a378: 0f 23 00 00 00 00 00 00      	add64 r3, r2
    a380: 7b 31 58 29 00 00 00 00      	stxdw [r1 + 0x2958], r3
    a388: 05 00 88 fa 00 00 00 00      	ja -0x578 <entrypoint+0x6fa8>
    a390: b7 06 00 00 00 00 00 00      	mov64 r6, 0x0
    a398: 05 00 7f fa 00 00 00 00      	ja -0x581 <entrypoint+0x6f70>
    a3a0: 55 02 7e fa 01 00 00 00      	jne r2, 0x1, -0x582 <entrypoint+0x6f70>
    a3a8: 05 00 82 fe 00 00 00 00      	ja -0x17e <entrypoint+0x8f98>
    a3b0: b7 01 00 00 00 00 00 00      	mov64 r1, 0x0
    a3b8: 05 00 6c 01 00 00 00 00      	ja +0x16c <entrypoint+0xa6f8>
    a3c0: b7 07 00 00 04 00 00 00      	mov64 r7, 0x4
    a3c8: 79 13 80 00 00 00 00 00      	ldxdw r3, [r1 + 0x80]
    a3d0: 5d 53 7f ff 00 00 00 00      	jne r3, r5, -0x81 <entrypoint+0x97a8>
    a3d8: 79 13 e0 7a 00 00 00 00      	ldxdw r3, [r1 + 0x7ae0]
    a3e0: 79 15 88 00 00 00 00 00      	ldxdw r5, [r1 + 0x88]
    a3e8: 5d 35 7c ff 00 00 00 00      	jne r5, r3, -0x84 <entrypoint+0x97a8>
    a3f0: 79 13 e8 7a 00 00 00 00      	ldxdw r3, [r1 + 0x7ae8]
    a3f8: 79 15 90 00 00 00 00 00      	ldxdw r5, [r1 + 0x90]
    a400: 5d 35 79 ff 00 00 00 00      	jne r5, r3, -0x87 <entrypoint+0x97a8>
    a408: 79 13 f0 7a 00 00 00 00      	ldxdw r3, [r1 + 0x7af0]
    a410: 79 15 98 00 00 00 00 00      	ldxdw r5, [r1 + 0x98]
    a418: 5d 35 76 ff 00 00 00 00      	jne r5, r3, -0x8a <entrypoint+0x97a8>
    a420: 55 04 e2 00 63 01 00 00      	jne r4, 0x163, +0xe2 <entrypoint+0xa310>
    a428: 79 14 f8 7a 00 00 00 00      	ldxdw r4, [r1 + 0x7af8]
    a430: 18 03 00 00 06 dd f6 e1 00 00 00 00 ee 75 8f de      	lddw r3, -0x21708a111e0922fa
    a440: 1d 34 d2 00 00 00 00 00      	jeq r4, r3, +0xd2 <entrypoint+0xa2b0>
    a448: 18 03 00 00 06 dd f6 e1 00 00 00 00 d7 65 a1 93      	lddw r3, -0x6c5e9a281e0922fa
    a458: 5d 34 db 00 00 00 00 00      	jne r4, r3, +0xdb <entrypoint+0xa310>
    a460: 79 13 00 7b 00 00 00 00      	ldxdw r3, [r1 + 0x7b00]
    a468: 18 04 00 00 d9 cb e1 46 00 00 00 00 ce eb 79 ac      	lddw r4, -0x53861431b91e3427
    a478: 5d 43 d7 00 00 00 00 00      	jne r3, r4, +0xd7 <entrypoint+0xa310>
    a480: 79 13 08 7b 00 00 00 00      	ldxdw r3, [r1 + 0x7b08]
    a488: 18 04 00 00 1c b4 85 ed 00 00 00 00 5f 5b 37 91      	lddw r4, -0x6ec8a4a0127a4be4
    a498: 5d 43 d3 00 00 00 00 00      	jne r3, r4, +0xd3 <entrypoint+0xa310>
    a4a0: 79 13 10 7b 00 00 00 00      	ldxdw r3, [r1 + 0x7b10]
    a4a8: 18 04 00 00 3a 8c f5 85 00 00 00 00 7e ff 00 a9      	lddw r4, -0x56ff00817a0a73c6
    a4b8: 5d 43 cf 00 00 00 00 00      	jne r3, r4, +0xcf <entrypoint+0xa310>
    a4c0: 05 00 b8 04 00 00 00 00      	ja +0x4b8 <entrypoint+0xc260>
    a4c8: b7 06 00 00 03 00 00 00      	mov64 r6, 0x3
    a4d0: 79 42 58 00 00 00 00 00      	ldxdw r2, [r4 + 0x58]
    a4d8: 79 30 58 00 00 00 00 00      	ldxdw r0, [r3 + 0x58]
    a4e0: 5d 02 8a fc 00 00 00 00      	jne r2, r0, -0x376 <entrypoint+0x8110>
    a4e8: 7b 9a d8 f7 00 00 00 00      	stxdw [r10 - 0x828], r9
    a4f0: bf 79 00 00 00 00 00 00      	mov64 r9, r7
    a4f8: 79 30 60 00 00 00 00 00      	ldxdw r0, [r3 + 0x60]
    a500: 79 47 60 00 00 00 00 00      	ldxdw r7, [r4 + 0x60]
    a508: 5d 07 85 fc 00 00 00 00      	jne r7, r0, -0x37b <entrypoint+0x8110>
    a510: 79 30 68 00 00 00 00 00      	ldxdw r0, [r3 + 0x68]
    a518: 79 47 68 00 00 00 00 00      	ldxdw r7, [r4 + 0x68]
    a520: 5d 07 82 fc 00 00 00 00      	jne r7, r0, -0x37e <entrypoint+0x8110>
    a528: 79 30 70 00 00 00 00 00      	ldxdw r0, [r3 + 0x70]
    a530: 79 47 70 00 00 00 00 00      	ldxdw r7, [r4 + 0x70]
    a538: 5d 07 7f fc 00 00 00 00      	jne r7, r0, -0x381 <entrypoint+0x8110>
    a540: b7 06 00 00 03 00 00 00      	mov64 r6, 0x3
    a548: 79 a0 f0 f7 00 00 00 00      	ldxdw r0, [r10 - 0x810]
    a550: 79 07 08 00 00 00 00 00      	ldxdw r7, [r0 + 0x8]
    a558: 5d 27 7b fc 00 00 00 00      	jne r7, r2, -0x385 <entrypoint+0x8110>
    a560: 79 a2 e0 f7 00 00 00 00      	ldxdw r2, [r10 - 0x820]
    a568: 79 22 60 00 00 00 00 00      	ldxdw r2, [r2 + 0x60]
    a570: 79 07 10 00 00 00 00 00      	ldxdw r7, [r0 + 0x10]
    a578: 5d 27 77 fc 00 00 00 00      	jne r7, r2, -0x389 <entrypoint+0x8110>
    a580: 79 a2 e0 f7 00 00 00 00      	ldxdw r2, [r10 - 0x820]
    a588: 79 22 68 00 00 00 00 00      	ldxdw r2, [r2 + 0x68]
    a590: 79 07 18 00 00 00 00 00      	ldxdw r7, [r0 + 0x18]
    a598: 5d 27 73 fc 00 00 00 00      	jne r7, r2, -0x38d <entrypoint+0x8110>
    a5a0: 79 a2 e0 f7 00 00 00 00      	ldxdw r2, [r10 - 0x820]
    a5a8: 79 22 70 00 00 00 00 00      	ldxdw r2, [r2 + 0x70]
    a5b0: 79 07 20 00 00 00 00 00      	ldxdw r7, [r0 + 0x20]
    a5b8: 5d 27 6f fc 00 00 00 00      	jne r7, r2, -0x391 <entrypoint+0x8110>
    a5c0: b7 06 00 00 00 00 00 00      	mov64 r6, 0x0
    a5c8: 79 02 50 00 00 00 00 00      	ldxdw r2, [r0 + 0x50]
    a5d0: 55 02 45 07 52 00 00 00      	jne r2, 0x52, +0x745 <entrypoint+0xd7d8>
    a5d8: 71 02 85 00 00 00 00 00      	ldxb r2, [r0 + 0x85]
    a5e0: 15 02 33 04 01 00 00 00      	jeq r2, 0x1, +0x433 <entrypoint+0xbf58>
    a5e8: 55 02 42 07 00 00 00 00      	jne r2, 0x0, +0x742 <entrypoint+0xd7d8>
    a5f0: b7 08 00 00 09 00 00 00      	mov64 r8, 0x9
    a5f8: 05 00 67 fc 00 00 00 00      	ja -0x399 <entrypoint+0x8110>
    a600: b7 06 00 00 00 00 00 00      	mov64 r6, 0x0
    a608: b7 09 00 00 0b 00 00 00      	mov64 r9, 0xb
    a610: 05 00 31 fa 00 00 00 00      	ja -0x5cf <entrypoint+0x6f78>
    a618: b7 01 00 00 04 00 00 00      	mov64 r1, 0x4
    a620: 05 00 1f 01 00 00 00 00      	ja +0x11f <entrypoint+0xa6f8>
    a628: b7 09 00 00 05 00 00 00      	mov64 r9, 0x5
    a630: 05 00 2d fa 00 00 00 00      	ja -0x5d3 <entrypoint+0x6f78>
    a638: b7 01 00 00 01 00 00 00      	mov64 r1, 0x1
    a640: 05 00 1b 01 00 00 00 00      	ja +0x11b <entrypoint+0xa6f8>
    a648: 55 04 02 00 00 00 00 00      	jne r4, 0x0, +0x2 <entrypoint+0x9e38>
    a650: b7 06 00 00 09 00 00 00      	mov64 r6, 0x9
    a658: 05 00 28 fa 00 00 00 00      	ja -0x5d8 <entrypoint+0x6f78>
    a660: 18 01 00 00 00 00 00 00 00 00 00 00 ff ff ff ff      	lddw r1, -0x100000000
    a670: 05 00 17 00 00 00 00 00      	ja +0x17 <entrypoint+0x9f08>
    a678: 55 01 13 00 00 00 00 00      	jne r1, 0x0, +0x13 <entrypoint+0x9ef0>
    a680: b7 06 00 00 09 00 00 00      	mov64 r6, 0x9
    a688: 79 a9 60 f7 00 00 00 00      	ldxdw r9, [r10 - 0x8a0]
    a690: 05 00 21 fa 00 00 00 00      	ja -0x5df <entrypoint+0x6f78>
    a698: b7 01 00 00 11 00 00 00      	mov64 r1, 0x11
    a6a0: 05 00 0f 01 00 00 00 00      	ja +0x10f <entrypoint+0xa6f8>
    a6a8: 18 01 00 00 00 00 00 00 00 00 00 00 ff ff ff ff      	lddw r1, -0x100000000
    a6b8: 79 a9 58 f7 00 00 00 00      	ldxdw r9, [r10 - 0x8a8]
    a6c0: 05 00 0d 00 00 00 00 00      	ja +0xd <entrypoint+0x9f08>
    a6c8: 18 01 00 00 00 00 00 00 00 00 00 00 ff ff ff ff      	lddw r1, -0x100000000
    a6d8: 79 a9 40 f7 00 00 00 00      	ldxdw r9, [r10 - 0x8c0]
    a6e0: 05 00 09 00 00 00 00 00      	ja +0x9 <entrypoint+0x9f08>
    a6e8: 18 01 00 00 00 00 00 00 00 00 00 00 ff ff ff ff      	lddw r1, -0x100000000
    a6f8: 5f 13 00 00 00 00 00 00      	and64 r3, r1
    a700: b7 06 00 00 03 00 00 00      	mov64 r6, 0x3
    a708: bf 39 00 00 00 00 00 00      	mov64 r9, r3
    a710: 05 00 11 fa 00 00 00 00      	ja -0x5ef <entrypoint+0x6f78>
    a718: 18 01 00 00 00 00 00 00 00 00 00 00 ff ff ff ff      	lddw r1, -0x100000000
    a728: 79 a9 60 f7 00 00 00 00      	ldxdw r9, [r10 - 0x8a0]
    a730: 5f 19 00 00 00 00 00 00      	and64 r9, r1
    a738: b7 06 00 00 03 00 00 00      	mov64 r6, 0x3
    a740: 05 00 0b fa 00 00 00 00      	ja -0x5f5 <entrypoint+0x6f78>
    a748: b7 06 00 00 03 00 00 00      	mov64 r6, 0x3
    a750: 05 00 08 fa 00 00 00 00      	ja -0x5f8 <entrypoint+0x6f70>
    a758: b7 01 00 00 00 00 00 00      	mov64 r1, 0x0
    a760: 7b 1a b0 f7 00 00 00 00      	stxdw [r10 - 0x850], r1
    a768: b7 06 00 00 0a 00 00 00      	mov64 r6, 0xa
    a770: 05 00 04 fa 00 00 00 00      	ja -0x5fc <entrypoint+0x6f70>
    a778: b7 01 00 00 13 00 00 00      	mov64 r1, 0x13
    a780: 05 00 f3 00 00 00 00 00      	ja +0xf3 <entrypoint+0xa6f8>
    a788: b7 01 00 00 0e 00 00 00      	mov64 r1, 0xe
    a790: 05 00 f1 00 00 00 00 00      	ja +0xf1 <entrypoint+0xa6f8>
    a798: b7 01 00 00 05 00 00 00      	mov64 r1, 0x5
    a7a0: 05 00 ef 00 00 00 00 00      	ja +0xef <entrypoint+0xa6f8>
    a7a8: b7 06 00 00 07 00 00 00      	mov64 r6, 0x7
    a7b0: 05 00 fc f9 00 00 00 00      	ja -0x604 <entrypoint+0x6f70>
    a7b8: 79 a2 e0 f7 00 00 00 00      	ldxdw r2, [r10 - 0x820]
    a7c0: 79 22 80 00 00 00 00 00      	ldxdw r2, [r2 + 0x80]
    a7c8: 18 00 00 00 79 bd c9 11 00 00 00 00 bf ff 00 db      	lddw r0, -0x24ff0040ee364287
    a7d8: 5d 02 0a 00 00 00 00 00      	jne r2, r0, +0xa <entrypoint+0xa008>
    a7e0: 79 a2 e0 f7 00 00 00 00      	ldxdw r2, [r10 - 0x820]
    a7e8: 79 22 88 00 00 00 00 00      	ldxdw r2, [r2 + 0x88]
    a7f0: 18 00 00 00 d4 4d 2e cd 00 00 00 00 cc f7 9c a6      	lddw r0, -0x5963083332d1b22c
    a800: 5d 02 05 00 00 00 00 00      	jne r2, r0, +0x5 <entrypoint+0xa008>
    a808: 79 a2 e0 f7 00 00 00 00      	ldxdw r2, [r10 - 0x820]
    a810: 79 22 90 00 00 00 00 00      	ldxdw r2, [r2 + 0x90]
    a818: 18 00 00 00 e1 00 38 e1 00 00 00 00 00 00 00 00      	lddw r0, 0xe13800e1
    a828: 1d 02 95 00 00 00 00 00      	jeq r2, r0, +0x95 <entrypoint+0xa4b0>
    a830: bf a2 00 00 00 00 00 00      	mov64 r2, r10
    a838: 07 02 00 00 00 f8 ff ff      	add64 r2, -0x800
    a840: 7b 2a d8 f7 00 00 00 00      	stxdw [r10 - 0x828], r2
    a848: 79 a0 f8 f7 00 00 00 00      	ldxdw r0, [r10 - 0x808]
    a850: 79 a6 e0 f7 00 00 00 00      	ldxdw r6, [r10 - 0x820]
    a858: 71 62 a0 00 00 00 00 00      	ldxb r2, [r6 + 0xa0]
    a860: 55 02 24 00 01 00 00 00      	jne r2, 0x1, +0x24 <entrypoint+0xa160>
    a868: 79 02 08 00 00 00 00 00      	ldxdw r2, [r0 + 0x8]
    a870: 79 68 a4 00 00 00 00 00      	ldxdw r8, [r6 + 0xa4]
    a878: 5d 82 22 00 00 00 00 00      	jne r2, r8, +0x22 <entrypoint+0xa168>
    a880: 79 68 ac 00 00 00 00 00      	ldxdw r8, [r6 + 0xac]
    a888: 79 09 10 00 00 00 00 00      	ldxdw r9, [r0 + 0x10]
    a890: 5d 89 1f 00 00 00 00 00      	jne r9, r8, +0x1f <entrypoint+0xa168>
    a898: 79 a6 e0 f7 00 00 00 00      	ldxdw r6, [r10 - 0x820]
    a8a0: 79 68 b4 00 00 00 00 00      	ldxdw r8, [r6 + 0xb4]
    a8a8: 79 09 18 00 00 00 00 00      	ldxdw r9, [r0 + 0x18]
    a8b0: 5d 89 1b 00 00 00 00 00      	jne r9, r8, +0x1b <entrypoint+0xa168>
    a8b8: 79 a6 e0 f7 00 00 00 00      	ldxdw r6, [r10 - 0x820]
    a8c0: 79 68 bc 00 00 00 00 00      	ldxdw r8, [r6 + 0xbc]
    a8c8: 79 09 20 00 00 00 00 00      	ldxdw r9, [r0 + 0x20]
    a8d0: 5d 89 17 00 00 00 00 00      	jne r9, r8, +0x17 <entrypoint+0xa168>
    a8d8: 79 01 50 00 00 00 00 00      	ldxdw r1, [r0 + 0x50]
    a8e0: 55 01 ae 02 63 01 00 00      	jne r1, 0x163, +0x2ae <entrypoint+0xb630>
    a8e8: 79 01 28 00 00 00 00 00      	ldxdw r1, [r0 + 0x28]
    a8f0: 18 02 00 00 06 dd f6 e1 00 00 00 00 ee 75 8f de      	lddw r2, -0x21708a111e0922fa
    a900: 1d 21 9e 02 00 00 00 00      	jeq r1, r2, +0x29e <entrypoint+0xb5d0>
    a908: 18 02 00 00 06 dd f6 e1 00 00 00 00 d7 65 a1 93      	lddw r2, -0x6c5e9a281e0922fa
    a918: 5d 21 a7 02 00 00 00 00      	jne r1, r2, +0x2a7 <entrypoint+0xb630>
    a920: 79 01 30 00 00 00 00 00      	ldxdw r1, [r0 + 0x30]
    a928: 18 02 00 00 d9 cb e1 46 00 00 00 00 ce eb 79 ac      	lddw r2, -0x53861431b91e3427
    a938: 5d 21 a3 02 00 00 00 00      	jne r1, r2, +0x2a3 <entrypoint+0xb630>
    a940: 79 01 38 00 00 00 00 00      	ldxdw r1, [r0 + 0x38]
    a948: 18 02 00 00 1c b4 85 ed 00 00 00 00 5f 5b 37 91      	lddw r2, -0x6ec8a4a0127a4be4
    a958: 5d 21 9f 02 00 00 00 00      	jne r1, r2, +0x29f <entrypoint+0xb630>
    a960: 79 01 40 00 00 00 00 00      	ldxdw r1, [r0 + 0x40]
    a968: 18 02 00 00 3a 8c f5 85 00 00 00 00 7e ff 00 a9      	lddw r2, -0x56ff00817a0a73c6
    a978: 5d 21 9b 02 00 00 00 00      	jne r1, r2, +0x29b <entrypoint+0xb630>
    a980: 05 00 f8 05 00 00 00 00      	ja +0x5f8 <entrypoint+0xd120>
    a988: 79 02 08 00 00 00 00 00      	ldxdw r2, [r0 + 0x8]
    a990: b7 09 00 00 04 00 00 00      	mov64 r9, 0x4
    a998: 5d 21 4a 04 00 00 00 00      	jne r1, r2, +0x44a <entrypoint+0xc3c8>
    a9a0: 79 01 10 00 00 00 00 00      	ldxdw r1, [r0 + 0x10]
    a9a8: 79 a6 e0 f7 00 00 00 00      	ldxdw r6, [r10 - 0x820]
    a9b0: 79 62 80 00 00 00 00 00      	ldxdw r2, [r6 + 0x80]
    a9b8: b7 08 00 00 00 00 00 00      	mov64 r8, 0x0
    a9c0: 5d 12 ef fb 00 00 00 00      	jne r2, r1, -0x411 <entrypoint+0x8118>
    a9c8: 79 01 18 00 00 00 00 00      	ldxdw r1, [r0 + 0x18]
    a9d0: 79 62 88 00 00 00 00 00      	ldxdw r2, [r6 + 0x88]
    a9d8: 5d 12 ec fb 00 00 00 00      	jne r2, r1, -0x414 <entrypoint+0x8118>
    a9e0: 79 01 20 00 00 00 00 00      	ldxdw r1, [r0 + 0x20]
    a9e8: 79 62 90 00 00 00 00 00      	ldxdw r2, [r6 + 0x90]
    a9f0: 5d 12 e9 fb 00 00 00 00      	jne r2, r1, -0x417 <entrypoint+0x8118>
    a9f8: 79 01 50 00 00 00 00 00      	ldxdw r1, [r0 + 0x50]
    aa00: 55 01 58 00 63 01 00 00      	jne r1, 0x163, +0x58 <entrypoint+0xa4a0>
    aa08: 79 01 28 00 00 00 00 00      	ldxdw r1, [r0 + 0x28]
    aa10: 18 02 00 00 06 dd f6 e1 00 00 00 00 ee 75 8f de      	lddw r2, -0x21708a111e0922fa
    aa20: 1d 21 48 00 00 00 00 00      	jeq r1, r2, +0x48 <entrypoint+0xa440>
    aa28: 18 02 00 00 06 dd f6 e1 00 00 00 00 d7 65 a1 93      	lddw r2, -0x6c5e9a281e0922fa
    aa38: 5d 21 51 00 00 00 00 00      	jne r1, r2, +0x51 <entrypoint+0xa4a0>
    aa40: 79 01 30 00 00 00 00 00      	ldxdw r1, [r0 + 0x30]
    aa48: 18 02 00 00 d9 cb e1 46 00 00 00 00 ce eb 79 ac      	lddw r2, -0x53861431b91e3427
    aa58: 5d 21 4d 00 00 00 00 00      	jne r1, r2, +0x4d <entrypoint+0xa4a0>
    aa60: 79 01 38 00 00 00 00 00      	ldxdw r1, [r0 + 0x38]
    aa68: 18 02 00 00 1c b4 85 ed 00 00 00 00 5f 5b 37 91      	lddw r2, -0x6ec8a4a0127a4be4
    aa78: 5d 21 49 00 00 00 00 00      	jne r1, r2, +0x49 <entrypoint+0xa4a0>
    aa80: 79 01 40 00 00 00 00 00      	ldxdw r1, [r0 + 0x40]
    aa88: 18 02 00 00 3a 8c f5 85 00 00 00 00 7e ff 00 a9      	lddw r2, -0x56ff00817a0a73c6
    aa98: 5d 21 45 00 00 00 00 00      	jne r1, r2, +0x45 <entrypoint+0xa4a0>
    aaa0: 05 00 2b 04 00 00 00 00      	ja +0x42b <entrypoint+0xc3d8>
    aaa8: b7 06 00 00 01 00 00 00      	mov64 r6, 0x1
    aab0: 79 a9 48 f7 00 00 00 00      	ldxdw r9, [r10 - 0x8b8]
    aab8: 05 00 9c f9 00 00 00 00      	ja -0x664 <entrypoint+0x6f78>
    aac0: b7 06 00 00 01 00 00 00      	mov64 r6, 0x1
    aac8: 79 a9 50 f7 00 00 00 00      	ldxdw r9, [r10 - 0x8b0]
    aad0: 05 00 99 f9 00 00 00 00      	ja -0x667 <entrypoint+0x6f78>
    aad8: 79 13 00 7b 00 00 00 00      	ldxdw r3, [r1 + 0x7b00]
    aae0: 18 04 00 00 18 42 5d bc 00 00 00 00 e4 6c cd da      	lddw r4, -0x2532931b43a2bde8
    aaf0: 5d 43 08 00 00 00 00 00      	jne r3, r4, +0x8 <entrypoint+0xa310>
    aaf8: 79 13 08 7b 00 00 00 00      	ldxdw r3, [r1 + 0x7b08]
    ab00: 18 04 00 00 b6 1a fc 4d 00 00 00 00 83 b9 0d 27      	lddw r4, 0x270db9834dfc1ab6
    ab10: 5d 43 04 00 00 00 00 00      	jne r3, r4, +0x4 <entrypoint+0xa310>
    ab18: 79 13 10 7b 00 00 00 00      	ldxdw r3, [r1 + 0x7b10]
    ab20: 18 04 00 00 fe bd f9 28 00 00 00 00 d8 a1 8b fc      	lddw r4, -0x3745e27d7064202
    ab30: 1d 43 ea 03 00 00 00 00      	jeq r3, r4, +0x3ea <entrypoint+0xc260>
    ab38: 71 13 d1 7a 00 00 00 00      	ldxb r3, [r1 + 0x7ad1]
    ab40: 15 03 ca 02 00 00 00 00      	jeq r3, 0x0, +0x2ca <entrypoint+0xb970>
    ab48: 15 02 b2 01 00 00 00 00      	jeq r2, 0x0, +0x1b2 <entrypoint+0xb0b8>
    ab50: 79 a3 e0 f7 00 00 00 00      	ldxdw r3, [r10 - 0x820]
    ab58: 1f 23 00 00 00 00 00 00      	sub64 r3, r2
    ab60: 7b 31 a0 00 00 00 00 00      	stxdw [r1 + 0xa0], r3
    ab68: 79 13 60 52 00 00 00 00      	ldxdw r3, [r1 + 0x5260]
    ab70: 0f 23 00 00 00 00 00 00      	add64 r3, r2
    ab78: 7b 31 60 52 00 00 00 00      	stxdw [r1 + 0x5260], r3
    ab80: b7 00 00 00 00 00 00 00      	mov64 r0, 0x0
    ab88: 71 13 cd 00 00 00 00 00      	ldxb r3, [r1 + 0xcd]
    ab90: 55 03 87 f9 01 00 00 00      	jne r3, 0x1, -0x679 <entrypoint+0x6fa8>
    ab98: 79 13 50 00 00 00 00 00      	ldxdw r3, [r1 + 0x50]
    aba0: 1f 23 00 00 00 00 00 00      	sub64 r3, r2
    aba8: 7b 31 50 00 00 00 00 00      	stxdw [r1 + 0x50], r3
    abb0: 79 13 10 52 00 00 00 00      	ldxdw r3, [r1 + 0x5210]
    abb8: 0f 23 00 00 00 00 00 00      	add64 r3, r2
    abc0: 7b 31 10 52 00 00 00 00      	stxdw [r1 + 0x5210], r3
    abc8: 05 00 80 f9 00 00 00 00      	ja -0x680 <entrypoint+0x6fa8>
    abd0: b7 06 00 00 00 00 00 00      	mov64 r6, 0x0
    abd8: b7 01 00 00 0e 00 00 00      	mov64 r1, 0xe
    abe0: 05 00 75 f9 00 00 00 00      	ja -0x68b <entrypoint+0x6f68>
    abe8: b7 01 00 00 0b 00 00 00      	mov64 r1, 0xb
    abf0: 05 00 65 00 00 00 00 00      	ja +0x65 <entrypoint+0xa6f8>
    abf8: b7 01 00 00 0a 00 00 00      	mov64 r1, 0xa
    ac00: 05 00 63 00 00 00 00 00      	ja +0x63 <entrypoint+0xa6f8>
    ac08: b7 07 00 00 00 00 00 00      	mov64 r7, 0x0
    ac10: 55 00 9a 05 00 00 00 00      	jne r0, 0x0, +0x59a <entrypoint+0xd0c0>
    ac18: b7 06 00 00 09 00 00 00      	mov64 r6, 0x9
    ac20: 05 00 75 fe 00 00 00 00      	ja -0x18b <entrypoint+0x97a8>
    ac28: 67 02 00 00 03 00 00 00      	lsh64 r2, 0x3
    ac30: bf a3 00 00 00 00 00 00      	mov64 r3, r10
    ac38: 07 03 00 00 e8 f7 ff ff      	add64 r3, -0x818
    ac40: 0f 23 00 00 00 00 00 00      	add64 r3, r2
    ac48: 79 32 00 00 00 00 00 00      	ldxdw r2, [r3 + 0x0]
    ac50: 7b 2a f0 f7 00 00 00 00      	stxdw [r10 - 0x810], r2
    ac58: 07 01 00 00 08 00 00 00      	add64 r1, 0x8
    ac60: 05 00 01 ec 00 00 00 00      	ja -0x13ff <entrypoint+0x448>
    ac68: 79 01 30 00 00 00 00 00      	ldxdw r1, [r0 + 0x30]
    ac70: 18 02 00 00 18 42 5d bc 00 00 00 00 e4 6c cd da      	lddw r2, -0x2532931b43a2bde8
    ac80: 5d 21 08 00 00 00 00 00      	jne r1, r2, +0x8 <entrypoint+0xa4a0>
    ac88: 79 01 38 00 00 00 00 00      	ldxdw r1, [r0 + 0x38]
    ac90: 18 02 00 00 b6 1a fc 4d 00 00 00 00 83 b9 0d 27      	lddw r2, 0x270db9834dfc1ab6
    aca0: 5d 21 04 00 00 00 00 00      	jne r1, r2, +0x4 <entrypoint+0xa4a0>
    aca8: 79 01 40 00 00 00 00 00      	ldxdw r1, [r0 + 0x40]
    acb0: 18 02 00 00 fe bd f9 28 00 00 00 00 d8 a1 8b fc      	lddw r2, -0x3745e27d7064202
    acc0: 1d 21 e7 03 00 00 00 00      	jeq r1, r2, +0x3e7 <entrypoint+0xc3d8>
    acc8: 71 01 01 00 00 00 00 00      	ldxb r1, [r0 + 0x1]
    acd0: 15 01 ca 04 00 00 00 00      	jeq r1, 0x0, +0x4ca <entrypoint+0xcb00>
    acd8: 15 04 bc 03 00 00 00 00      	jeq r4, 0x0, +0x3bc <entrypoint+0xc298>
    ace0: 1f 45 00 00 00 00 00 00      	sub64 r5, r4
    ace8: 79 a1 e0 f7 00 00 00 00      	ldxdw r1, [r10 - 0x820]
    acf0: 7b 51 98 00 00 00 00 00      	stxdw [r1 + 0x98], r5
    acf8: 79 31 7c 00 00 00 00 00      	ldxdw r1, [r3 + 0x7c]
    ad00: 1f 41 00 00 00 00 00 00      	sub64 r1, r4
    ad08: 7b 13 7c 00 00 00 00 00      	stxdw [r3 + 0x7c], r1
    ad10: b7 08 00 00 1a 00 00 00      	mov64 r8, 0x1a
    ad18: 05 00 84 fb 00 00 00 00      	ja -0x47c <entrypoint+0x8118>
    ad20: b7 06 00 00 01 00 00 00      	mov64 r6, 0x1
    ad28: 79 a9 78 f7 00 00 00 00      	ldxdw r9, [r10 - 0x888]
    ad30: 05 00 4d f9 00 00 00 00      	ja -0x6b3 <entrypoint+0x6f78>
    ad38: 79 01 30 00 00 00 00 00      	ldxdw r1, [r0 + 0x30]
    ad40: 18 02 00 00 18 42 5d bc 00 00 00 00 e4 6c cd da      	lddw r2, -0x2532931b43a2bde8
    ad50: 5d 21 08 00 00 00 00 00      	jne r1, r2, +0x8 <entrypoint+0xa570>
    ad58: 79 01 38 00 00 00 00 00      	ldxdw r1, [r0 + 0x38]
    ad60: 18 02 00 00 b6 1a fc 4d 00 00 00 00 83 b9 0d 27      	lddw r2, 0x270db9834dfc1ab6
    ad70: 5d 21 04 00 00 00 00 00      	jne r1, r2, +0x4 <entrypoint+0xa570>
    ad78: 79 01 40 00 00 00 00 00      	ldxdw r1, [r0 + 0x40]
    ad80: 18 02 00 00 fe bd f9 28 00 00 00 00 d8 a1 8b fc      	lddw r2, -0x3745e27d7064202
    ad90: 1d 21 d3 03 00 00 00 00      	jeq r1, r2, +0x3d3 <entrypoint+0xc408>
    ad98: 71 01 01 00 00 00 00 00      	ldxb r1, [r0 + 0x1]
    ada0: 15 01 04 05 00 00 00 00      	jeq r1, 0x0, +0x504 <entrypoint+0xcda0>
    ada8: bf 54 00 00 00 00 00 00      	mov64 r4, r5
    adb0: 79 41 d1 00 00 00 00 00      	ldxdw r1, [r4 + 0xd1]
    adb8: ad 81 97 00 00 00 00 00      	jlt r1, r8, +0x97 <entrypoint+0xaa50>
    adc0: 1d 34 07 00 00 00 00 00      	jeq r4, r3, +0x7 <entrypoint+0xa5d8>
    adc8: bf 12 00 00 00 00 00 00      	mov64 r2, r1
    add0: 1f 82 00 00 00 00 00 00      	sub64 r2, r8
    add8: 7b 24 d1 00 00 00 00 00      	stxdw [r4 + 0xd1], r2
    ade0: 5d 81 01 00 00 00 00 00      	jne r1, r8, +0x1 <entrypoint+0xa5c8>
    ade8: 72 05 a0 00 00 00 00 00      	stb [r5 + 0xa0], 0x0
    adf0: bf 54 00 00 00 00 00 00      	mov64 r4, r5
    adf8: 55 08 f8 fd 00 00 00 00      	jne r8, 0x0, -0x208 <entrypoint+0x9598>
    ae00: 79 41 28 00 00 00 00 00      	ldxdw r1, [r4 + 0x28]
    ae08: 18 02 00 00 06 dd f6 e1 00 00 00 00 d7 65 a1 93      	lddw r2, -0x6c5e9a281e0922fa
    ae18: 5d 21 1d 00 00 00 00 00      	jne r1, r2, +0x1d <entrypoint+0xa6e0>
    ae20: 79 41 30 00 00 00 00 00      	ldxdw r1, [r4 + 0x30]
    ae28: 18 02 00 00 d9 cb e1 46 00 00 00 00 ce eb 79 ac      	lddw r2, -0x53861431b91e3427
    ae38: 5d 21 19 00 00 00 00 00      	jne r1, r2, +0x19 <entrypoint+0xa6e0>
    ae40: 79 41 38 00 00 00 00 00      	ldxdw r1, [r4 + 0x38]
    ae48: 18 02 00 00 1c b4 85 ed 00 00 00 00 5f 5b 37 91      	lddw r2, -0x6ec8a4a0127a4be4
    ae58: 5d 21 15 00 00 00 00 00      	jne r1, r2, +0x15 <entrypoint+0xa6e0>
    ae60: 79 41 40 00 00 00 00 00      	ldxdw r1, [r4 + 0x40]
    ae68: 18 02 00 00 3a 8c f5 85 00 00 00 00 7e ff 00 a9      	lddw r2, -0x56ff00817a0a73c6
    ae78: 5d 21 11 00 00 00 00 00      	jne r1, r2, +0x11 <entrypoint+0xa6e0>
    ae80: 79 31 28 00 00 00 00 00      	ldxdw r1, [r3 + 0x28]
    ae88: 18 02 00 00 06 dd f6 e1 00 00 00 00 d7 65 a1 93      	lddw r2, -0x6c5e9a281e0922fa
    ae98: 5d 21 0d 00 00 00 00 00      	jne r1, r2, +0xd <entrypoint+0xa6e0>
    aea0: 79 31 30 00 00 00 00 00      	ldxdw r1, [r3 + 0x30]
    aea8: 18 02 00 00 d9 cb e1 46 00 00 00 00 ce eb 79 ac      	lddw r2, -0x53861431b91e3427
    aeb8: 5d 21 09 00 00 00 00 00      	jne r1, r2, +0x9 <entrypoint+0xa6e0>
    aec0: 79 31 38 00 00 00 00 00      	ldxdw r1, [r3 + 0x38]
    aec8: 18 02 00 00 1c b4 85 ed 00 00 00 00 5f 5b 37 91      	lddw r2, -0x6ec8a4a0127a4be4
    aed8: 5d 21 05 00 00 00 00 00      	jne r1, r2, +0x5 <entrypoint+0xa6e0>
    aee0: b7 00 00 00 00 00 00 00      	mov64 r0, 0x0
    aee8: 79 31 40 00 00 00 00 00      	ldxdw r1, [r3 + 0x40]
    aef0: 18 02 00 00 3a 8c f5 85 00 00 00 00 7e ff 00 a9      	lddw r2, -0x56ff00817a0a73c6
    af00: 1d 21 19 f9 00 00 00 00      	jeq r1, r2, -0x6e7 <entrypoint+0x6fa8>
    af08: b7 06 00 00 06 00 00 00      	mov64 r6, 0x6
    af10: 05 00 11 f9 00 00 00 00      	ja -0x6ef <entrypoint+0x6f78>
    af18: b7 01 00 00 0c 00 00 00      	mov64 r1, 0xc
    af20: 7b 1a b0 f7 00 00 00 00      	stxdw [r10 - 0x850], r1
    af28: b7 06 00 00 00 00 00 00      	mov64 r6, 0x0
    af30: 05 00 0c f9 00 00 00 00      	ja -0x6f4 <entrypoint+0x6f70>
    af38: 18 01 00 00 00 00 00 00 00 00 00 00 ff ff ff ff      	lddw r1, -0x100000000
    af48: 79 a9 90 f7 00 00 00 00      	ldxdw r9, [r10 - 0x870]
    af50: 05 00 fb fe 00 00 00 00      	ja -0x105 <entrypoint+0x9f08>
    af58: 18 01 00 00 00 00 00 00 00 00 00 00 ff ff ff ff      	lddw r1, -0x100000000
    af68: 79 a9 a0 f7 00 00 00 00      	ldxdw r9, [r10 - 0x860]
    af70: 05 00 f7 fe 00 00 00 00      	ja -0x109 <entrypoint+0x9f08>
    af78: b7 06 00 00 09 00 00 00      	mov64 r6, 0x9
    af80: 79 a9 40 f7 00 00 00 00      	ldxdw r9, [r10 - 0x8c0]
    af88: 05 00 02 f9 00 00 00 00      	ja -0x6fe <entrypoint+0x6f78>
    af90: b7 06 00 00 09 00 00 00      	mov64 r6, 0x9
    af98: 79 a9 58 f7 00 00 00 00      	ldxdw r9, [r10 - 0x8a8]
    afa0: 05 00 ff f8 00 00 00 00      	ja -0x701 <entrypoint+0x6f78>
    afa8: b7 06 00 00 09 00 00 00      	mov64 r6, 0x9
    afb0: bf 39 00 00 00 00 00 00      	mov64 r9, r3
    afb8: 05 00 fc f8 00 00 00 00      	ja -0x704 <entrypoint+0x6f78>
    afc0: 79 01 30 00 00 00 00 00      	ldxdw r1, [r0 + 0x30]
    afc8: 18 02 00 00 18 42 5d bc 00 00 00 00 e4 6c cd da      	lddw r2, -0x2532931b43a2bde8
    afd8: 5d 21 08 00 00 00 00 00      	jne r1, r2, +0x8 <entrypoint+0xa7f8>
    afe0: 79 01 38 00 00 00 00 00      	ldxdw r1, [r0 + 0x38]
    afe8: 18 02 00 00 b6 1a fc 4d 00 00 00 00 83 b9 0d 27      	lddw r2, 0x270db9834dfc1ab6
    aff8: 5d 21 04 00 00 00 00 00      	jne r1, r2, +0x4 <entrypoint+0xa7f8>
    b000: 79 01 40 00 00 00 00 00      	ldxdw r1, [r0 + 0x40]
    b008: 18 02 00 00 fe bd f9 28 00 00 00 00 d8 a1 8b fc      	lddw r2, -0x3745e27d7064202
    b018: 1d 21 a5 03 00 00 00 00      	jeq r1, r2, +0x3a5 <entrypoint+0xc520>
    b020: 71 01 01 00 00 00 00 00      	ldxb r1, [r0 + 0x1]
    b028: 15 01 b3 04 00 00 00 00      	jeq r1, 0x0, +0x4b3 <entrypoint+0xcda0>
    b030: 79 41 d1 00 00 00 00 00      	ldxdw r1, [r4 + 0xd1]
    b038: ad 51 ec f8 00 00 00 00      	jlt r1, r5, -0x714 <entrypoint+0x6f78>
    b040: bf 12 00 00 00 00 00 00      	mov64 r2, r1
    b048: 79 a5 d8 f7 00 00 00 00      	ldxdw r5, [r10 - 0x828]
    b050: 1f 52 00 00 00 00 00 00      	sub64 r2, r5
    b058: 7b 24 d1 00 00 00 00 00      	stxdw [r4 + 0xd1], r2
    b060: 5d 51 32 fe 00 00 00 00      	jne r1, r5, -0x1ce <entrypoint+0x99d0>
    b068: 72 04 a0 00 00 00 00 00      	stb [r4 + 0xa0], 0x0
    b070: 05 00 30 fe 00 00 00 00      	ja -0x1d0 <entrypoint+0x99d0>
    b078: b7 06 00 00 01 00 00 00      	mov64 r6, 0x1
    b080: 05 00 e3 f8 00 00 00 00      	ja -0x71d <entrypoint+0x6f78>
    b088: b7 06 00 00 01 00 00 00      	mov64 r6, 0x1
    b090: b7 09 00 00 00 00 00 00      	mov64 r9, 0x0
    b098: 05 00 e0 f8 00 00 00 00      	ja -0x720 <entrypoint+0x6f78>
    b0a0: 79 14 48 52 00 00 00 00      	ldxdw r4, [r1 + 0x5248]
    b0a8: 18 05 00 00 18 42 5d bc 00 00 00 00 e4 6c cd da      	lddw r5, -0x2532931b43a2bde8
    b0b8: 5d 54 08 00 00 00 00 00      	jne r4, r5, +0x8 <entrypoint+0xa8d8>
    b0c0: 79 14 50 52 00 00 00 00      	ldxdw r4, [r1 + 0x5250]
    b0c8: 18 05 00 00 b6 1a fc 4d 00 00 00 00 83 b9 0d 27      	lddw r5, 0x270db9834dfc1ab6
    b0d8: 5d 54 04 00 00 00 00 00      	jne r4, r5, +0x4 <entrypoint+0xa8d8>
    b0e0: 79 14 58 52 00 00 00 00      	ldxdw r4, [r1 + 0x5258]
    b0e8: 18 05 00 00 fe bd f9 28 00 00 00 00 d8 a1 8b fc      	lddw r5, -0x3745e27d7064202
    b0f8: 1d 54 2e 04 00 00 00 00      	jeq r4, r5, +0x42e <entrypoint+0xca48>
    b100: 71 14 19 52 00 00 00 00      	ldxb r4, [r1 + 0x5219]
    b108: 15 04 11 02 00 00 00 00      	jeq r4, 0x0, +0x211 <entrypoint+0xb970>
    b110: 79 14 d9 00 00 00 00 00      	ldxdw r4, [r1 + 0xd9]
    b118: ad 24 d6 fd 00 00 00 00      	jlt r4, r2, -0x22a <entrypoint+0x97a8>
    b120: bf 45 00 00 00 00 00 00      	mov64 r5, r4
    b128: 1f 25 00 00 00 00 00 00      	sub64 r5, r2
    b130: 7b 51 d9 00 00 00 00 00      	stxdw [r1 + 0xd9], r5
    b138: 5d 24 01 00 00 00 00 00      	jne r4, r2, +0x1 <entrypoint+0xa920>
    b140: 72 01 a8 00 00 00 00 00      	stb [r1 + 0xa8], 0x0
    b148: 55 02 39 fe 00 00 00 00      	jne r2, 0x0, -0x1c7 <entrypoint+0x9af0>
    b150: b7 06 00 00 06 00 00 00      	mov64 r6, 0x6
    b158: 79 12 30 00 00 00 00 00      	ldxdw r2, [r1 + 0x30]
    b160: 18 03 00 00 06 dd f6 e1 00 00 00 00 d7 65 a1 93      	lddw r3, -0x6c5e9a281e0922fa
    b170: 5d 32 05 02 00 00 00 00      	jne r2, r3, +0x205 <entrypoint+0xb978>
    b178: 79 12 38 00 00 00 00 00      	ldxdw r2, [r1 + 0x38]
    b180: 18 03 00 00 d9 cb e1 46 00 00 00 00 ce eb 79 ac      	lddw r3, -0x53861431b91e3427
    b190: 5d 32 01 02 00 00 00 00      	jne r2, r3, +0x201 <entrypoint+0xb978>
    b198: 79 12 40 00 00 00 00 00      	ldxdw r2, [r1 + 0x40]
    b1a0: 18 03 00 00 1c b4 85 ed 00 00 00 00 5f 5b 37 91      	lddw r3, -0x6ec8a4a0127a4be4
    b1b0: 5d 32 fd 01 00 00 00 00      	jne r2, r3, +0x1fd <entrypoint+0xb978>
    b1b8: 79 12 48 00 00 00 00 00      	ldxdw r2, [r1 + 0x48]
    b1c0: 18 03 00 00 3a 8c f5 85 00 00 00 00 7e ff 00 a9      	lddw r3, -0x56ff00817a0a73c6
    b1d0: 5d 32 f9 01 00 00 00 00      	jne r2, r3, +0x1f9 <entrypoint+0xb978>
    b1d8: 79 12 38 29 00 00 00 00      	ldxdw r2, [r1 + 0x2938]
    b1e0: 18 03 00 00 06 dd f6 e1 00 00 00 00 d7 65 a1 93      	lddw r3, -0x6c5e9a281e0922fa
    b1f0: 5d 32 f5 01 00 00 00 00      	jne r2, r3, +0x1f5 <entrypoint+0xb978>
    b1f8: 79 12 40 29 00 00 00 00      	ldxdw r2, [r1 + 0x2940]
    b200: 18 03 00 00 d9 cb e1 46 00 00 00 00 ce eb 79 ac      	lddw r3, -0x53861431b91e3427
    b210: 5d 32 f1 01 00 00 00 00      	jne r2, r3, +0x1f1 <entrypoint+0xb978>
    b218: 79 12 48 29 00 00 00 00      	ldxdw r2, [r1 + 0x2948]
    b220: 18 03 00 00 1c b4 85 ed 00 00 00 00 5f 5b 37 91      	lddw r3, -0x6ec8a4a0127a4be4
    b230: 5d 32 ed 01 00 00 00 00      	jne r2, r3, +0x1ed <entrypoint+0xb978>
    b238: b7 00 00 00 00 00 00 00      	mov64 r0, 0x0
    b240: 79 11 50 29 00 00 00 00      	ldxdw r1, [r1 + 0x2950]
    b248: 18 02 00 00 3a 8c f5 85 00 00 00 00 7e ff 00 a9      	lddw r2, -0x56ff00817a0a73c6
    b258: 1d 21 ae f8 00 00 00 00      	jeq r1, r2, -0x752 <entrypoint+0x6fa8>
    b260: 05 00 e7 01 00 00 00 00      	ja +0x1e7 <entrypoint+0xb978>
    b268: b7 06 00 00 06 00 00 00      	mov64 r6, 0x6
    b270: 05 00 a5 f8 00 00 00 00      	ja -0x75b <entrypoint+0x6f78>
    b278: b7 06 00 00 00 00 00 00      	mov64 r6, 0x0
    b280: b7 09 00 00 01 00 00 00      	mov64 r9, 0x1
    b288: 05 00 a2 f8 00 00 00 00      	ja -0x75e <entrypoint+0x6f78>
    b290: b7 06 00 00 03 00 00 00      	mov64 r6, 0x3
    b298: b7 01 00 00 00 00 00 00      	mov64 r1, 0x0
    b2a0: 05 00 9d f8 00 00 00 00      	ja -0x763 <entrypoint+0x6f68>
    b2a8: b7 09 00 00 0c 00 00 00      	mov64 r9, 0xc
    b2b0: b7 08 00 00 00 00 00 00      	mov64 r8, 0x0
    b2b8: 05 00 d0 fa 00 00 00 00      	ja -0x530 <entrypoint+0x8118>
    b2c0: b7 06 00 00 01 00 00 00      	mov64 r6, 0x1
    b2c8: 05 00 9a f8 00 00 00 00      	ja -0x766 <entrypoint+0x6f78>
    b2d0: 67 03 00 00 03 00 00 00      	lsh64 r3, 0x3
    b2d8: bf a4 00 00 00 00 00 00      	mov64 r4, r10
    b2e0: 07 04 00 00 e8 f7 ff ff      	add64 r4, -0x818
    b2e8: 0f 34 00 00 00 00 00 00      	add64 r4, r3
    b2f0: 79 43 00 00 00 00 00 00      	ldxdw r3, [r4 + 0x0]
    b2f8: 7b 32 08 00 00 00 00 00      	stxdw [r2 + 0x8], r3
    b300: 07 01 00 00 08 00 00 00      	add64 r1, 0x8
    b308: 71 13 00 00 00 00 00 00      	ldxb r3, [r1 + 0x0]
    b310: 15 03 cb f8 ff 00 00 00      	jeq r3, 0xff, -0x735 <entrypoint+0x7148>
    b318: 67 03 00 00 03 00 00 00      	lsh64 r3, 0x3
    b320: bf a4 00 00 00 00 00 00      	mov64 r4, r10
    b328: 07 04 00 00 e8 f7 ff ff      	add64 r4, -0x818
    b330: 0f 34 00 00 00 00 00 00      	add64 r4, r3
    b338: 79 43 00 00 00 00 00 00      	ldxdw r3, [r4 + 0x0]
    b340: 7b 32 10 00 00 00 00 00      	stxdw [r2 + 0x10], r3
    b348: 07 01 00 00 08 00 00 00      	add64 r1, 0x8
    b350: 05 00 23 eb 00 00 00 00      	ja -0x14dd <entrypoint+0x448>
    b358: 67 03 00 00 03 00 00 00      	lsh64 r3, 0x3
    b360: bf a4 00 00 00 00 00 00      	mov64 r4, r10
    b368: 07 04 00 00 e8 f7 ff ff      	add64 r4, -0x818
    b370: 0f 34 00 00 00 00 00 00      	add64 r4, r3
    b378: 79 43 00 00 00 00 00 00      	ldxdw r3, [r4 + 0x0]
    b380: 7b 32 08 00 00 00 00 00      	stxdw [r2 + 0x8], r3
    b388: 07 01 00 00 08 00 00 00      	add64 r1, 0x8
    b390: 71 13 00 00 00 00 00 00      	ldxb r3, [r1 + 0x0]
    b398: 15 03 32 f8 ff 00 00 00      	jeq r3, 0xff, -0x7ce <entrypoint+0x6d08>
    b3a0: 67 03 00 00 03 00 00 00      	lsh64 r3, 0x3
    b3a8: bf a4 00 00 00 00 00 00      	mov64 r4, r10
    b3b0: 07 04 00 00 e8 f7 ff ff      	add64 r4, -0x818
    b3b8: 0f 34 00 00 00 00 00 00      	add64 r4, r3
    b3c0: 79 43 00 00 00 00 00 00      	ldxdw r3, [r4 + 0x0]
    b3c8: 7b 32 10 00 00 00 00 00      	stxdw [r2 + 0x10], r3
    b3d0: 07 01 00 00 08 00 00 00      	add64 r1, 0x8
    b3d8: 71 13 00 00 00 00 00 00      	ldxb r3, [r1 + 0x0]
    b3e0: 15 03 30 f8 ff 00 00 00      	jeq r3, 0xff, -0x7d0 <entrypoint+0x6d40>
    b3e8: 67 03 00 00 03 00 00 00      	lsh64 r3, 0x3
    b3f0: bf a4 00 00 00 00 00 00      	mov64 r4, r10
    b3f8: 07 04 00 00 e8 f7 ff ff      	add64 r4, -0x818
    b400: 0f 34 00 00 00 00 00 00      	add64 r4, r3
    b408: 79 43 00 00 00 00 00 00      	ldxdw r3, [r4 + 0x0]
    b410: 7b 32 18 00 00 00 00 00      	stxdw [r2 + 0x18], r3
    b418: 07 01 00 00 08 00 00 00      	add64 r1, 0x8
    b420: 05 00 09 eb 00 00 00 00      	ja -0x14f7 <entrypoint+0x448>
    b428: 67 03 00 00 03 00 00 00      	lsh64 r3, 0x3
    b430: bf a4 00 00 00 00 00 00      	mov64 r4, r10
    b438: 07 04 00 00 e8 f7 ff ff      	add64 r4, -0x818
    b440: 0f 34 00 00 00 00 00 00      	add64 r4, r3
    b448: 79 43 00 00 00 00 00 00      	ldxdw r3, [r4 + 0x0]
    b450: 7b 32 08 00 00 00 00 00      	stxdw [r2 + 0x8], r3
    b458: 07 01 00 00 08 00 00 00      	add64 r1, 0x8
    b460: 71 13 00 00 00 00 00 00      	ldxb r3, [r1 + 0x0]
    b468: 15 03 ab f8 ff 00 00 00      	jeq r3, 0xff, -0x755 <entrypoint+0x71a0>
    b470: 67 03 00 00 03 00 00 00      	lsh64 r3, 0x3
    b478: bf a4 00 00 00 00 00 00      	mov64 r4, r10
    b480: 07 04 00 00 e8 f7 ff ff      	add64 r4, -0x818
    b488: 0f 34 00 00 00 00 00 00      	add64 r4, r3
    b490: 79 43 00 00 00 00 00 00      	ldxdw r3, [r4 + 0x0]
    b498: 7b 32 10 00 00 00 00 00      	stxdw [r2 + 0x10], r3
    b4a0: 07 01 00 00 08 00 00 00      	add64 r1, 0x8
    b4a8: 71 13 00 00 00 00 00 00      	ldxb r3, [r1 + 0x0]
    b4b0: 15 03 a9 f8 ff 00 00 00      	jeq r3, 0xff, -0x757 <entrypoint+0x71d8>
    b4b8: 67 03 00 00 03 00 00 00      	lsh64 r3, 0x3
    b4c0: bf a4 00 00 00 00 00 00      	mov64 r4, r10
    b4c8: 07 04 00 00 e8 f7 ff ff      	add64 r4, -0x818
    b4d0: 0f 34 00 00 00 00 00 00      	add64 r4, r3
    b4d8: 79 43 00 00 00 00 00 00      	ldxdw r3, [r4 + 0x0]
    b4e0: 7b 32 18 00 00 00 00 00      	stxdw [r2 + 0x18], r3
    b4e8: 07 01 00 00 08 00 00 00      	add64 r1, 0x8
    b4f0: 71 13 00 00 00 00 00 00      	ldxb r3, [r1 + 0x0]
    b4f8: 15 03 a7 f8 ff 00 00 00      	jeq r3, 0xff, -0x759 <entrypoint+0x7210>
    b500: 67 03 00 00 03 00 00 00      	lsh64 r3, 0x3
    b508: bf a4 00 00 00 00 00 00      	mov64 r4, r10
    b510: 07 04 00 00 e8 f7 ff ff      	add64 r4, -0x818
    b518: 0f 34 00 00 00 00 00 00      	add64 r4, r3
    b520: 79 43 00 00 00 00 00 00      	ldxdw r3, [r4 + 0x0]
    b528: 7b 32 20 00 00 00 00 00      	stxdw [r2 + 0x20], r3
    b530: 07 01 00 00 08 00 00 00      	add64 r1, 0x8
    b538: 05 00 e6 ea 00 00 00 00      	ja -0x151a <entrypoint+0x448>
    b540: 67 03 00 00 03 00 00 00      	lsh64 r3, 0x3
    b548: bf a4 00 00 00 00 00 00      	mov64 r4, r10
    b550: 07 04 00 00 e8 f7 ff ff      	add64 r4, -0x818
    b558: 0f 34 00 00 00 00 00 00      	add64 r4, r3
    b560: 79 43 00 00 00 00 00 00      	ldxdw r3, [r4 + 0x0]
    b568: 7b 32 08 00 00 00 00 00      	stxdw [r2 + 0x8], r3
    b570: 07 01 00 00 08 00 00 00      	add64 r1, 0x8
    b578: 05 00 de ea 00 00 00 00      	ja -0x1522 <entrypoint+0x448>
    b580: b7 09 00 00 03 00 00 00      	mov64 r9, 0x3
    b588: 05 00 42 f8 00 00 00 00      	ja -0x7be <entrypoint+0x6f78>
    b590: 7b 7a b8 f7 00 00 00 00      	stxdw [r10 - 0x848], r7
    b598: b7 06 00 00 00 00 00 00      	mov64 r6, 0x0
    b5a0: 15 01 6f 02 02 00 00 00      	jeq r1, 0x2, +0x26f <entrypoint+0xc0f8>
    b5a8: 79 51 98 00 00 00 00 00      	ldxdw r1, [r5 + 0x98]
    b5b0: 7b 1a d8 f7 00 00 00 00      	stxdw [r10 - 0x828], r1
    b5b8: 3d 81 0b eb 00 00 00 00      	jge r1, r8, -0x14f5 <entrypoint+0x5f0>
    b5c0: b7 09 00 00 01 00 00 00      	mov64 r9, 0x1
    b5c8: 05 00 3a f8 00 00 00 00      	ja -0x7c6 <entrypoint+0x6f78>
    b5d0: b7 09 00 00 0a 00 00 00      	mov64 r9, 0xa
    b5d8: 05 00 38 f8 00 00 00 00      	ja -0x7c8 <entrypoint+0x6f78>
    b5e0: 71 41 5a 00 00 00 00 00      	ldxb r1, [r4 + 0x5a]
    b5e8: 55 01 77 01 01 00 00 00      	jne r1, 0x1, +0x177 <entrypoint+0xb980>
    b5f0: b7 01 00 00 00 00 00 00      	mov64 r1, 0x0
    b5f8: 7b 1a c0 f7 00 00 00 00      	stxdw [r10 - 0x840], r1
    b600: 67 07 00 00 03 00 00 00      	lsh64 r7, 0x3
    b608: bf a1 00 00 00 00 00 00      	mov64 r1, r10
    b610: 07 01 00 00 e8 f7 ff ff      	add64 r1, -0x818
    b618: 7b 1a d0 f7 00 00 00 00      	stxdw [r10 - 0x830], r1
    b620: 62 0a e7 ff 00 00 00 00      	stw [r10 - 0x19], 0x0
    b628: 7a 0a e0 ff 00 00 00 00      	stdw [r10 - 0x20], 0x0
    b630: bf 71 00 00 00 00 00 00      	mov64 r1, r7
    b638: 55 07 a2 00 18 00 00 00      	jne r7, 0x18, +0xa2 <entrypoint+0xb328>
    b640: 71 41 58 00 00 00 00 00      	ldxb r1, [r4 + 0x58]
    b648: 79 a2 c0 f7 00 00 00 00      	ldxdw r2, [r10 - 0x840]
    b650: 57 02 00 00 ff 00 00 00      	and64 r2, 0xff
    b658: 3d 12 6a fc 00 00 00 00      	jge r2, r1, -0x396 <entrypoint+0x9188>
    b660: 05 00 ec 03 00 00 00 00      	ja +0x3ec <entrypoint+0xcda0>
    b668: b7 06 00 00 00 00 00 00      	mov64 r6, 0x0
    b670: b7 08 00 00 09 00 00 00      	mov64 r8, 0x9
    b678: 05 00 57 fa 00 00 00 00      	ja -0x5a9 <entrypoint+0x8110>
    b680: 71 01 5a 00 00 00 00 00      	ldxb r1, [r0 + 0x5a]
    b688: 55 01 63 01 01 00 00 00      	jne r1, 0x1, +0x163 <entrypoint+0xb980>
    b690: b7 01 00 00 00 00 00 00      	mov64 r1, 0x0
    b698: 7b 1a a8 f7 00 00 00 00      	stxdw [r10 - 0x858], r1
    b6a0: 79 a2 b8 f7 00 00 00 00      	ldxdw r2, [r10 - 0x848]
    b6a8: 67 02 00 00 03 00 00 00      	lsh64 r2, 0x3
    b6b0: bf a1 00 00 00 00 00 00      	mov64 r1, r10
    b6b8: 07 01 00 00 e8 f7 ff ff      	add64 r1, -0x818
    b6c0: 7b 1a b8 f7 00 00 00 00      	stxdw [r10 - 0x848], r1
    b6c8: 62 0a e7 ff 00 00 00 00      	stw [r10 - 0x19], 0x0
    b6d0: 7a 0a e0 ff 00 00 00 00      	stdw [r10 - 0x20], 0x0
    b6d8: bf 21 00 00 00 00 00 00      	mov64 r1, r2
    b6e0: 55 02 fd 00 18 00 00 00      	jne r2, 0x18, +0xfd <entrypoint+0xb6a8>
    b6e8: 71 01 58 00 00 00 00 00      	ldxb r1, [r0 + 0x58]
    b6f0: 79 a2 a8 f7 00 00 00 00      	ldxdw r2, [r10 - 0x858]
    b6f8: 57 02 00 00 ff 00 00 00      	and64 r2, 0xff
    b700: 3d 12 d4 fc 00 00 00 00      	jge r2, r1, -0x32c <entrypoint+0x9580>
    b708: 05 00 d7 03 00 00 00 00      	ja +0x3d7 <entrypoint+0xcda0>
    b710: b7 06 00 00 06 00 00 00      	mov64 r6, 0x6
    b718: 79 41 28 00 00 00 00 00      	ldxdw r1, [r4 + 0x28]
    b720: 18 02 00 00 06 dd f6 e1 00 00 00 00 d7 65 a1 93      	lddw r2, -0x6c5e9a281e0922fa
    b730: 5d 21 1d 00 00 00 00 00      	jne r1, r2, +0x1d <entrypoint+0xaff8>
    b738: 79 41 30 00 00 00 00 00      	ldxdw r1, [r4 + 0x30]
    b740: 18 02 00 00 d9 cb e1 46 00 00 00 00 ce eb 79 ac      	lddw r2, -0x53861431b91e3427
    b750: 5d 21 19 00 00 00 00 00      	jne r1, r2, +0x19 <entrypoint+0xaff8>
    b758: 79 41 38 00 00 00 00 00      	ldxdw r1, [r4 + 0x38]
    b760: 18 02 00 00 1c b4 85 ed 00 00 00 00 5f 5b 37 91      	lddw r2, -0x6ec8a4a0127a4be4
    b770: 5d 21 15 00 00 00 00 00      	jne r1, r2, +0x15 <entrypoint+0xaff8>
    b778: 79 41 40 00 00 00 00 00      	ldxdw r1, [r4 + 0x40]
    b780: 18 02 00 00 3a 8c f5 85 00 00 00 00 7e ff 00 a9      	lddw r2, -0x56ff00817a0a73c6
    b790: 5d 21 11 00 00 00 00 00      	jne r1, r2, +0x11 <entrypoint+0xaff8>
    b798: 79 31 28 00 00 00 00 00      	ldxdw r1, [r3 + 0x28]
    b7a0: 18 02 00 00 06 dd f6 e1 00 00 00 00 d7 65 a1 93      	lddw r2, -0x6c5e9a281e0922fa
    b7b0: 5d 21 0d 00 00 00 00 00      	jne r1, r2, +0xd <entrypoint+0xaff8>
    b7b8: 79 31 30 00 00 00 00 00      	ldxdw r1, [r3 + 0x30]
    b7c0: 18 02 00 00 d9 cb e1 46 00 00 00 00 ce eb 79 ac      	lddw r2, -0x53861431b91e3427
    b7d0: 5d 21 09 00 00 00 00 00      	jne r1, r2, +0x9 <entrypoint+0xaff8>
    b7d8: 79 31 38 00 00 00 00 00      	ldxdw r1, [r3 + 0x38]
    b7e0: 18 02 00 00 1c b4 85 ed 00 00 00 00 5f 5b 37 91      	lddw r2, -0x6ec8a4a0127a4be4
    b7f0: 5d 21 05 00 00 00 00 00      	jne r1, r2, +0x5 <entrypoint+0xaff8>
    b7f8: b7 00 00 00 00 00 00 00      	mov64 r0, 0x0
    b800: 79 31 40 00 00 00 00 00      	ldxdw r1, [r3 + 0x40]
    b808: 18 02 00 00 3a 8c f5 85 00 00 00 00 7e ff 00 a9      	lddw r2, -0x56ff00817a0a73c6
    b818: 1d 21 f6 f7 00 00 00 00      	jeq r1, r2, -0x80a <entrypoint+0x6fa8>
    b820: 05 00 ef f7 00 00 00 00      	ja -0x811 <entrypoint+0x6f78>
    b828: 79 13 00 7b 00 00 00 00      	ldxdw r3, [r1 + 0x7b00]
    b830: 18 04 00 00 18 42 5d bc 00 00 00 00 e4 6c cd da      	lddw r4, -0x2532931b43a2bde8
    b840: 5d 43 08 00 00 00 00 00      	jne r3, r4, +0x8 <entrypoint+0xb060>
    b848: 79 13 08 7b 00 00 00 00      	ldxdw r3, [r1 + 0x7b08]
    b850: 18 04 00 00 b6 1a fc 4d 00 00 00 00 83 b9 0d 27      	lddw r4, 0x270db9834dfc1ab6
    b860: 5d 43 04 00 00 00 00 00      	jne r3, r4, +0x4 <entrypoint+0xb060>
    b868: 79 13 10 7b 00 00 00 00      	ldxdw r3, [r1 + 0x7b10]
    b870: 18 04 00 00 fe bd f9 28 00 00 00 00 d8 a1 8b fc      	lddw r4, -0x3745e27d7064202
    b880: 1d 43 05 04 00 00 00 00      	jeq r3, r4, +0x405 <entrypoint+0xd088>
    b888: 71 13 d1 7a 00 00 00 00      	ldxb r3, [r1 + 0x7ad1]
    b890: 15 03 20 01 00 00 00 00      	jeq r3, 0x0, +0x120 <entrypoint+0xb970>
    b898: 79 14 d9 00 00 00 00 00      	ldxdw r4, [r1 + 0xd9]
    b8a0: b7 07 00 00 01 00 00 00      	mov64 r7, 0x1
    b8a8: ad 24 e4 fc 00 00 00 00      	jlt r4, r2, -0x31c <entrypoint+0x97a8>
    b8b0: bf 43 00 00 00 00 00 00      	mov64 r3, r4
    b8b8: 1f 23 00 00 00 00 00 00      	sub64 r3, r2
    b8c0: 7b 31 d9 00 00 00 00 00      	stxdw [r1 + 0xd9], r3
    b8c8: 5d 24 01 00 00 00 00 00      	jne r4, r2, +0x1 <entrypoint+0xb0b0>
    b8d0: 72 01 a8 00 00 00 00 00      	stb [r1 + 0xa8], 0x0
    b8d8: 55 02 4e fe 00 00 00 00      	jne r2, 0x0, -0x1b2 <entrypoint+0xa328>
    b8e0: b7 06 00 00 06 00 00 00      	mov64 r6, 0x6
    b8e8: 79 12 30 00 00 00 00 00      	ldxdw r2, [r1 + 0x30]
    b8f0: 18 03 00 00 06 dd f6 e1 00 00 00 00 d7 65 a1 93      	lddw r3, -0x6c5e9a281e0922fa
    b900: 5d 32 13 01 00 00 00 00      	jne r2, r3, +0x113 <entrypoint+0xb978>
    b908: 79 12 38 00 00 00 00 00      	ldxdw r2, [r1 + 0x38]
    b910: 18 03 00 00 d9 cb e1 46 00 00 00 00 ce eb 79 ac      	lddw r3, -0x53861431b91e3427
    b920: 5d 32 0f 01 00 00 00 00      	jne r2, r3, +0x10f <entrypoint+0xb978>
    b928: 79 12 40 00 00 00 00 00      	ldxdw r2, [r1 + 0x40]
    b930: 18 03 00 00 1c b4 85 ed 00 00 00 00 5f 5b 37 91      	lddw r3, -0x6ec8a4a0127a4be4
    b940: 5d 32 0b 01 00 00 00 00      	jne r2, r3, +0x10b <entrypoint+0xb978>
    b948: 79 12 48 00 00 00 00 00      	ldxdw r2, [r1 + 0x48]
    b950: 18 03 00 00 3a 8c f5 85 00 00 00 00 7e ff 00 a9      	lddw r3, -0x56ff00817a0a73c6
    b960: 5d 32 07 01 00 00 00 00      	jne r2, r3, +0x107 <entrypoint+0xb978>
    b968: 79 12 f0 51 00 00 00 00      	ldxdw r2, [r1 + 0x51f0]
    b970: 18 03 00 00 06 dd f6 e1 00 00 00 00 d7 65 a1 93      	lddw r3, -0x6c5e9a281e0922fa
    b980: 5d 32 03 01 00 00 00 00      	jne r2, r3, +0x103 <entrypoint+0xb978>
    b988: 79 12 f8 51 00 00 00 00      	ldxdw r2, [r1 + 0x51f8]
    b990: 18 03 00 00 d9 cb e1 46 00 00 00 00 ce eb 79 ac      	lddw r3, -0x53861431b91e3427
    b9a0: 5d 32 ff 00 00 00 00 00      	jne r2, r3, +0xff <entrypoint+0xb978>
    b9a8: 79 12 00 52 00 00 00 00      	ldxdw r2, [r1 + 0x5200]
    b9b0: 18 03 00 00 1c b4 85 ed 00 00 00 00 5f 5b 37 91      	lddw r3, -0x6ec8a4a0127a4be4
    b9c0: 5d 32 fb 00 00 00 00 00      	jne r2, r3, +0xfb <entrypoint+0xb978>
    b9c8: b7 00 00 00 00 00 00 00      	mov64 r0, 0x0
    b9d0: 79 11 08 52 00 00 00 00      	ldxdw r1, [r1 + 0x5208]
    b9d8: 18 02 00 00 3a 8c f5 85 00 00 00 00 7e ff 00 a9      	lddw r2, -0x56ff00817a0a73c6
    b9e8: 1d 21 bc f7 00 00 00 00      	jeq r1, r2, -0x844 <entrypoint+0x6fa8>
    b9f0: 05 00 f5 00 00 00 00 00      	ja +0xf5 <entrypoint+0xb978>
    b9f8: b7 06 00 00 00 00 00 00      	mov64 r6, 0x0
    ba00: 05 00 b9 fc 00 00 00 00      	ja -0x347 <entrypoint+0x97a8>
    ba08: 7b 9a d8 f7 00 00 00 00      	stxdw [r10 - 0x828], r9
    ba10: bf 79 00 00 00 00 00 00      	mov64 r9, r7
    ba18: b7 06 00 00 11 00 00 00      	mov64 r6, 0x11
    ba20: 55 02 f4 00 02 00 00 00      	jne r2, 0x2, +0xf4 <entrypoint+0xb9a0>
    ba28: b7 08 00 00 00 00 00 00      	mov64 r8, 0x0
    ba30: 05 00 e0 f9 00 00 00 00      	ja -0x620 <entrypoint+0x8110>
    ba38: 71 51 5a 00 00 00 00 00      	ldxb r1, [r5 + 0x5a]
    ba40: 55 01 ec 00 01 00 00 00      	jne r1, 0x1, +0xec <entrypoint+0xb980>
    ba48: b7 01 00 00 00 00 00 00      	mov64 r1, 0x0
    ba50: 7b 1a b8 f7 00 00 00 00      	stxdw [r10 - 0x848], r1
    ba58: 67 00 00 00 03 00 00 00      	lsh64 r0, 0x3
    ba60: bf a1 00 00 00 00 00 00      	mov64 r1, r10
    ba68: 07 01 00 00 e8 f7 ff ff      	add64 r1, -0x818
    ba70: 7b 1a c0 f7 00 00 00 00      	stxdw [r10 - 0x840], r1
    ba78: 62 0a e7 ff 00 00 00 00      	stw [r10 - 0x19], 0x0
    ba80: 7a 0a e0 ff 00 00 00 00      	stdw [r10 - 0x20], 0x0
    ba88: bf 01 00 00 00 00 00 00      	mov64 r1, r0
    ba90: 55 00 f3 00 18 00 00 00      	jne r0, 0x18, +0xf3 <entrypoint+0xba08>
    ba98: 71 51 58 00 00 00 00 00      	ldxb r1, [r5 + 0x58]
    baa0: 79 a2 b8 f7 00 00 00 00      	ldxdw r2, [r10 - 0x848]
    baa8: 57 02 00 00 ff 00 00 00      	and64 r2, 0xff
    bab0: 3d 12 ba fc 00 00 00 00      	jge r2, r1, -0x346 <entrypoint+0x9860>
    bab8: 05 00 61 03 00 00 00 00      	ja +0x361 <entrypoint+0xcda0>
    bac0: 71 01 5a 00 00 00 00 00      	ldxb r1, [r0 + 0x5a]
    bac8: 55 01 64 02 01 00 00 00      	jne r1, 0x1, +0x264 <entrypoint+0xc5c8>
    bad0: b7 01 00 00 00 00 00 00      	mov64 r1, 0x0
    bad8: 7b 1a b0 f7 00 00 00 00      	stxdw [r10 - 0x850], r1
    bae0: 67 07 00 00 03 00 00 00      	lsh64 r7, 0x3
    bae8: bf a1 00 00 00 00 00 00      	mov64 r1, r10
    baf0: 07 01 00 00 e8 f7 ff ff      	add64 r1, -0x818
    baf8: 7b 1a b8 f7 00 00 00 00      	stxdw [r10 - 0x848], r1
    bb00: 62 0a e7 ff 00 00 00 00      	stw [r10 - 0x19], 0x0
    bb08: 7a 0a e0 ff 00 00 00 00      	stdw [r10 - 0x20], 0x0
    bb10: bf 71 00 00 00 00 00 00      	mov64 r1, r7
    bb18: 55 07 39 01 18 00 00 00      	jne r7, 0x18, +0x139 <entrypoint+0xbcc0>
    bb20: 71 01 58 00 00 00 00 00      	ldxb r1, [r0 + 0x58]
    bb28: 79 a2 b0 f7 00 00 00 00      	ldxdw r2, [r10 - 0x850]
    bb30: 57 02 00 00 ff 00 00 00      	and64 r2, 0xff
    bb38: ad 12 51 03 00 00 00 00      	jlt r2, r1, +0x351 <entrypoint+0xcda0>
    bb40: 79 a5 d8 f7 00 00 00 00      	ldxdw r5, [r10 - 0x828]
    bb48: 05 00 d5 fc 00 00 00 00      	ja -0x32b <entrypoint+0x99d0>
    bb50: 71 42 59 00 00 00 00 00      	ldxb r2, [r4 + 0x59]
    bb58: b7 05 00 00 01 00 00 00      	mov64 r5, 0x1
    bb60: 7b 2a b8 f7 00 00 00 00      	stxdw [r10 - 0x848], r2
    bb68: 55 02 01 00 00 00 00 00      	jne r2, 0x0, +0x1 <entrypoint+0xb350>
    bb70: b7 05 00 00 00 00 00 00      	mov64 r5, 0x0
    bb78: 79 a2 b8 f7 00 00 00 00      	ldxdw r2, [r10 - 0x848]
    bb80: 25 02 23 04 0b 00 00 00      	jgt r2, 0xb, +0x423 <entrypoint+0xd478>
    bb88: bf a6 00 00 00 00 00 00      	mov64 r6, r10
    bb90: 07 06 00 00 00 f8 ff ff      	add64 r6, -0x800
    bb98: 79 a2 d0 f7 00 00 00 00      	ldxdw r2, [r10 - 0x830]
    bba0: 0f 12 00 00 00 00 00 00      	add64 r2, r1
    bba8: 7b 2a d0 f7 00 00 00 00      	stxdw [r10 - 0x830], r2
    bbb0: 79 a1 b8 f7 00 00 00 00      	ldxdw r1, [r10 - 0x848]
    bbb8: 67 01 00 00 05 00 00 00      	lsh64 r1, 0x5
    bbc0: 67 05 00 00 05 00 00 00      	lsh64 r5, 0x5
    bbc8: bf 42 00 00 00 00 00 00      	mov64 r2, r4
    bbd0: 07 02 00 00 5b 00 00 00      	add64 r2, 0x5b
    bbd8: 7b 2a a8 f7 00 00 00 00      	stxdw [r10 - 0x858], r2
    bbe0: 0f 52 00 00 00 00 00 00      	add64 r2, r5
    bbe8: 7b 2a a0 f7 00 00 00 00      	stxdw [r10 - 0x860], r2
    bbf0: 1f 15 00 00 00 00 00 00      	sub64 r5, r1
    bbf8: 7b 5a b0 f7 00 00 00 00      	stxdw [r10 - 0x850], r5
    bc00: b7 01 00 00 00 00 00 00      	mov64 r1, 0x0
    bc08: 7b 1a c0 f7 00 00 00 00      	stxdw [r10 - 0x840], r1
    bc10: bf a1 00 00 00 00 00 00      	mov64 r1, r10
    bc18: 07 01 00 00 08 f8 ff ff      	add64 r1, -0x7f8
    bc20: 05 00 05 00 00 00 00 00      	ja +0x5 <entrypoint+0xb428>
    bc28: 67 02 00 00 03 00 00 00      	lsh64 r2, 0x3
    bc30: bf 61 00 00 00 00 00 00      	mov64 r1, r6
    bc38: 0f 21 00 00 00 00 00 00      	add64 r1, r2
    bc40: 79 a2 d0 f7 00 00 00 00      	ldxdw r2, [r10 - 0x830]
    bc48: 1d 26 3e ff 00 00 00 00      	jeq r6, r2, -0xc2 <entrypoint+0xae18>
    bc50: bf 65 00 00 00 00 00 00      	mov64 r5, r6
    bc58: 7b 1a c8 f7 00 00 00 00      	stxdw [r10 - 0x838], r1
    bc60: 79 a1 b8 f7 00 00 00 00      	ldxdw r1, [r10 - 0x848]
    bc68: 15 01 2b 00 00 00 00 00      	jeq r1, 0x0, +0x2b <entrypoint+0xb5a0>
    bc70: b7 02 00 00 00 00 00 00      	mov64 r2, 0x0
    bc78: 79 57 00 00 00 00 00 00      	ldxdw r7, [r5 + 0x0]
    bc80: 79 79 08 00 00 00 00 00      	ldxdw r9, [r7 + 0x8]
    bc88: 79 a6 a0 f7 00 00 00 00      	ldxdw r6, [r10 - 0x860]
    bc90: 79 a8 b0 f7 00 00 00 00      	ldxdw r8, [r10 - 0x850]
    bc98: 79 a5 a8 f7 00 00 00 00      	ldxdw r5, [r10 - 0x858]
    bca0: 7b 9a d8 f7 00 00 00 00      	stxdw [r10 - 0x828], r9
    bca8: 05 00 07 00 00 00 00 00      	ja +0x7 <entrypoint+0xb4c0>
    bcb0: bf 97 00 00 00 00 00 00      	mov64 r7, r9
    bcb8: 79 a9 d8 f7 00 00 00 00      	ldxdw r9, [r10 - 0x828]
    bcc0: bf 56 00 00 00 00 00 00      	mov64 r6, r5
    bcc8: 07 06 00 00 20 00 00 00      	add64 r6, 0x20
    bcd0: 07 02 00 00 01 00 00 00      	add64 r2, 0x1
    bcd8: 07 08 00 00 20 00 00 00      	add64 r8, 0x20
    bce0: 15 08 1c 00 20 00 00 00      	jeq r8, 0x20, +0x1c <entrypoint+0xb5a0>
    bce8: bf 51 00 00 00 00 00 00      	mov64 r1, r5
    bcf0: bf 65 00 00 00 00 00 00      	mov64 r5, r6
    bcf8: 79 16 00 00 00 00 00 00      	ldxdw r6, [r1 + 0x0]
    bd00: 5d 96 f7 ff 00 00 00 00      	jne r6, r9, -0x9 <entrypoint+0xb498>
    bd08: 79 76 10 00 00 00 00 00      	ldxdw r6, [r7 + 0x10]
    bd10: bf 79 00 00 00 00 00 00      	mov64 r9, r7
    bd18: 79 17 08 00 00 00 00 00      	ldxdw r7, [r1 + 0x8]
    bd20: 5d 67 f1 ff 00 00 00 00      	jne r7, r6, -0xf <entrypoint+0xb488>
    bd28: 79 96 18 00 00 00 00 00      	ldxdw r6, [r9 + 0x18]
    bd30: 79 17 10 00 00 00 00 00      	ldxdw r7, [r1 + 0x10]
    bd38: 5d 67 ee ff 00 00 00 00      	jne r7, r6, -0x12 <entrypoint+0xb488>
    bd40: 79 96 20 00 00 00 00 00      	ldxdw r6, [r9 + 0x20]
    bd48: 79 11 18 00 00 00 00 00      	ldxdw r1, [r1 + 0x18]
    bd50: bf 97 00 00 00 00 00 00      	mov64 r7, r9
    bd58: 5d 61 eb ff 00 00 00 00      	jne r1, r6, -0x15 <entrypoint+0xb490>
    bd60: 25 02 2f 05 0a 00 00 00      	jgt r2, 0xa, +0x52f <entrypoint+0xdeb8>
    bd68: bf a1 00 00 00 00 00 00      	mov64 r1, r10
    bd70: 07 01 00 00 e0 ff ff ff      	add64 r1, -0x20
    bd78: 0f 21 00 00 00 00 00 00      	add64 r1, r2
    bd80: 71 16 00 00 00 00 00 00      	ldxb r6, [r1 + 0x0]
    bd88: 55 06 e5 ff 00 00 00 00      	jne r6, 0x0, -0x1b <entrypoint+0xb490>
    bd90: 71 76 01 00 00 00 00 00      	ldxb r6, [r7 + 0x1]
    bd98: 15 06 05 03 00 00 00 00      	jeq r6, 0x0, +0x305 <entrypoint+0xcda0>
    bda0: 72 01 00 00 01 00 00 00      	stb [r1 + 0x0], 0x1
    bda8: 79 a1 c0 f7 00 00 00 00      	ldxdw r1, [r10 - 0x840]
    bdb0: 07 01 00 00 01 00 00 00      	add64 r1, 0x1
    bdb8: 7b 1a c0 f7 00 00 00 00      	stxdw [r10 - 0x840], r1
    bdc0: 05 00 de ff 00 00 00 00      	ja -0x22 <entrypoint+0xb490>
    bdc8: b7 02 00 00 01 00 00 00      	mov64 r2, 0x1
    bdd0: 79 a1 d0 f7 00 00 00 00      	ldxdw r1, [r10 - 0x830]
    bdd8: 79 a6 c8 f7 00 00 00 00      	ldxdw r6, [r10 - 0x838]
    bde0: 5d 16 c8 ff 00 00 00 00      	jne r6, r1, -0x38 <entrypoint+0xb400>
    bde8: b7 02 00 00 00 00 00 00      	mov64 r2, 0x0
    bdf0: 05 00 c6 ff 00 00 00 00      	ja -0x3a <entrypoint+0xb400>
    bdf8: 79 01 30 00 00 00 00 00      	ldxdw r1, [r0 + 0x30]
    be00: 18 02 00 00 18 42 5d bc 00 00 00 00 e4 6c cd da      	lddw r2, -0x2532931b43a2bde8
    be10: 5d 21 08 00 00 00 00 00      	jne r1, r2, +0x8 <entrypoint+0xb630>
    be18: 79 01 38 00 00 00 00 00      	ldxdw r1, [r0 + 0x38]
    be20: 18 02 00 00 b6 1a fc 4d 00 00 00 00 83 b9 0d 27      	lddw r2, 0x270db9834dfc1ab6
    be30: 5d 21 04 00 00 00 00 00      	jne r1, r2, +0x4 <entrypoint+0xb630>
    be38: 79 01 40 00 00 00 00 00      	ldxdw r1, [r0 + 0x40]
    be40: 18 02 00 00 fe bd f9 28 00 00 00 00 d8 a1 8b fc      	lddw r2, -0x3745e27d7064202
    be50: 1d 21 5e 03 00 00 00 00      	jeq r1, r2, +0x35e <entrypoint+0xd120>
    be58: 71 01 01 00 00 00 00 00      	ldxb r1, [r0 + 0x1]
    be60: 15 01 98 02 00 00 00 00      	jeq r1, 0x0, +0x298 <entrypoint+0xcb00>
    be68: 79 a1 e0 f7 00 00 00 00      	ldxdw r1, [r10 - 0x820]
    be70: 79 11 d1 00 00 00 00 00      	ldxdw r1, [r1 + 0xd1]
    be78: b7 09 00 00 01 00 00 00      	mov64 r9, 0x1
    be80: b7 08 00 00 00 00 00 00      	mov64 r8, 0x0
    be88: ad 41 56 f9 00 00 00 00      	jlt r1, r4, -0x6aa <entrypoint+0x8118>
    be90: bf 12 00 00 00 00 00 00      	mov64 r2, r1
    be98: 1f 42 00 00 00 00 00 00      	sub64 r2, r4
    bea0: 79 a0 e0 f7 00 00 00 00      	ldxdw r0, [r10 - 0x820]
    bea8: 7b 20 d1 00 00 00 00 00      	stxdw [r0 + 0xd1], r2
    beb0: 5d 41 c4 fd 00 00 00 00      	jne r1, r4, -0x23c <entrypoint+0xa4b0>
    beb8: 79 a1 e0 f7 00 00 00 00      	ldxdw r1, [r10 - 0x820]
    bec0: 72 01 a0 00 00 00 00 00      	stb [r1 + 0xa0], 0x0
    bec8: 05 00 c1 fd 00 00 00 00      	ja -0x23f <entrypoint+0xa4b0>
    bed0: 71 02 59 00 00 00 00 00      	ldxb r2, [r0 + 0x59]
    bed8: b7 04 00 00 01 00 00 00      	mov64 r4, 0x1
    bee0: 7b 2a a0 f7 00 00 00 00      	stxdw [r10 - 0x860], r2
    bee8: 55 02 01 00 00 00 00 00      	jne r2, 0x0, +0x1 <entrypoint+0xb6d0>
    bef0: b7 04 00 00 00 00 00 00      	mov64 r4, 0x0
    bef8: 79 a2 a0 f7 00 00 00 00      	ldxdw r2, [r10 - 0x860]
    bf00: 25 02 b8 03 0b 00 00 00      	jgt r2, 0xb, +0x3b8 <entrypoint+0xd4a0>
    bf08: 79 a2 b8 f7 00 00 00 00      	ldxdw r2, [r10 - 0x848]
    bf10: 0f 12 00 00 00 00 00 00      	add64 r2, r1
    bf18: 7b 2a b8 f7 00 00 00 00      	stxdw [r10 - 0x848], r2
    bf20: 79 a1 a0 f7 00 00 00 00      	ldxdw r1, [r10 - 0x860]
    bf28: 67 01 00 00 05 00 00 00      	lsh64 r1, 0x5
    bf30: 67 04 00 00 05 00 00 00      	lsh64 r4, 0x5
    bf38: bf 02 00 00 00 00 00 00      	mov64 r2, r0
    bf40: 07 02 00 00 5b 00 00 00      	add64 r2, 0x5b
    bf48: 7b 2a 90 f7 00 00 00 00      	stxdw [r10 - 0x870], r2
    bf50: 0f 42 00 00 00 00 00 00      	add64 r2, r4
    bf58: 7b 2a 88 f7 00 00 00 00      	stxdw [r10 - 0x878], r2
    bf60: 1f 14 00 00 00 00 00 00      	sub64 r4, r1
    bf68: 7b 4a 98 f7 00 00 00 00      	stxdw [r10 - 0x868], r4
    bf70: b7 01 00 00 00 00 00 00      	mov64 r1, 0x0
    bf78: 7b 1a a8 f7 00 00 00 00      	stxdw [r10 - 0x858], r1
    bf80: bf a1 00 00 00 00 00 00      	mov64 r1, r10
    bf88: 07 01 00 00 08 f8 ff ff      	add64 r1, -0x7f8
    bf90: bf 76 00 00 00 00 00 00      	mov64 r6, r7
    bf98: 05 00 05 00 00 00 00 00      	ja +0x5 <entrypoint+0xb7a0>
    bfa0: 67 02 00 00 03 00 00 00      	lsh64 r2, 0x3
    bfa8: bf 61 00 00 00 00 00 00      	mov64 r1, r6
    bfb0: 0f 21 00 00 00 00 00 00      	add64 r1, r2
    bfb8: 79 a2 b8 f7 00 00 00 00      	ldxdw r2, [r10 - 0x848]
    bfc0: 1d 26 e4 fe 00 00 00 00      	jeq r6, r2, -0x11c <entrypoint+0xaec0>
    bfc8: 7b 1a b0 f7 00 00 00 00      	stxdw [r10 - 0x850], r1
    bfd0: 79 a1 a0 f7 00 00 00 00      	ldxdw r1, [r10 - 0x860]
    bfd8: 15 01 2d 00 00 00 00 00      	jeq r1, 0x0, +0x2d <entrypoint+0xb920>
    bfe0: b7 02 00 00 00 00 00 00      	mov64 r2, 0x0
    bfe8: 79 67 00 00 00 00 00 00      	ldxdw r7, [r6 + 0x0]
    bff0: 79 74 08 00 00 00 00 00      	ldxdw r4, [r7 + 0x8]
    bff8: 79 a6 88 f7 00 00 00 00      	ldxdw r6, [r10 - 0x878]
    c000: 79 a1 98 f7 00 00 00 00      	ldxdw r1, [r10 - 0x868]
    c008: 79 a9 90 f7 00 00 00 00      	ldxdw r9, [r10 - 0x870]
    c010: 7b 7a c0 f7 00 00 00 00      	stxdw [r10 - 0x840], r7
    c018: 7b 4a c8 f7 00 00 00 00      	stxdw [r10 - 0x838], r4
    c020: 05 00 08 00 00 00 00 00      	ja +0x8 <entrypoint+0xb840>
    c028: bf 47 00 00 00 00 00 00      	mov64 r7, r4
    c030: 79 a4 c8 f7 00 00 00 00      	ldxdw r4, [r10 - 0x838]
    c038: 79 a9 d0 f7 00 00 00 00      	ldxdw r9, [r10 - 0x830]
    c040: bf 96 00 00 00 00 00 00      	mov64 r6, r9
    c048: 07 06 00 00 20 00 00 00      	add64 r6, 0x20
    c050: 07 02 00 00 01 00 00 00      	add64 r2, 0x1
    c058: 07 01 00 00 20 00 00 00      	add64 r1, 0x20
    c060: 15 01 1c 00 20 00 00 00      	jeq r1, 0x20, +0x1c <entrypoint+0xb920>
    c068: 7b 6a d0 f7 00 00 00 00      	stxdw [r10 - 0x830], r6
    c070: 79 96 00 00 00 00 00 00      	ldxdw r6, [r9 + 0x0]
    c078: 5d 46 f7 ff 00 00 00 00      	jne r6, r4, -0x9 <entrypoint+0xb810>
    c080: 79 76 10 00 00 00 00 00      	ldxdw r6, [r7 + 0x10]
    c088: bf 74 00 00 00 00 00 00      	mov64 r4, r7
    c090: 79 97 08 00 00 00 00 00      	ldxdw r7, [r9 + 0x8]
    c098: 5d 67 f1 ff 00 00 00 00      	jne r7, r6, -0xf <entrypoint+0xb800>
    c0a0: 79 46 18 00 00 00 00 00      	ldxdw r6, [r4 + 0x18]
    c0a8: 79 97 10 00 00 00 00 00      	ldxdw r7, [r9 + 0x10]
    c0b0: 5d 67 ee ff 00 00 00 00      	jne r7, r6, -0x12 <entrypoint+0xb800>
    c0b8: 79 46 20 00 00 00 00 00      	ldxdw r6, [r4 + 0x20]
    c0c0: 79 97 18 00 00 00 00 00      	ldxdw r7, [r9 + 0x18]
    c0c8: 5d 67 0d 00 00 00 00 00      	jne r7, r6, +0xd <entrypoint+0xb910>
    c0d0: 25 02 c1 04 0a 00 00 00      	jgt r2, 0xa, +0x4c1 <entrypoint+0xdeb8>
    c0d8: bf a6 00 00 00 00 00 00      	mov64 r6, r10
    c0e0: 07 06 00 00 e0 ff ff ff      	add64 r6, -0x20
    c0e8: 0f 26 00 00 00 00 00 00      	add64 r6, r2
    c0f0: 71 67 00 00 00 00 00 00      	ldxb r7, [r6 + 0x0]
    c0f8: 55 07 07 00 00 00 00 00      	jne r7, 0x0, +0x7 <entrypoint+0xb910>
    c100: 79 a4 c0 f7 00 00 00 00      	ldxdw r4, [r10 - 0x840]
    c108: 71 47 01 00 00 00 00 00      	ldxb r7, [r4 + 0x1]
    c110: 15 07 96 02 00 00 00 00      	jeq r7, 0x0, +0x296 <entrypoint+0xcda0>
    c118: 72 06 00 00 01 00 00 00      	stb [r6 + 0x0], 0x1
    c120: 79 a6 a8 f7 00 00 00 00      	ldxdw r6, [r10 - 0x858]
    c128: 07 06 00 00 01 00 00 00      	add64 r6, 0x1
    c130: 7b 6a a8 f7 00 00 00 00      	stxdw [r10 - 0x858], r6
    c138: 79 a7 c0 f7 00 00 00 00      	ldxdw r7, [r10 - 0x840]
    c140: 05 00 dd ff 00 00 00 00      	ja -0x23 <entrypoint+0xb808>
    c148: b7 02 00 00 01 00 00 00      	mov64 r2, 0x1
    c150: 79 a6 b0 f7 00 00 00 00      	ldxdw r6, [r10 - 0x850]
    c158: 79 a1 b8 f7 00 00 00 00      	ldxdw r1, [r10 - 0x848]
    c160: 5d 16 c7 ff 00 00 00 00      	jne r6, r1, -0x39 <entrypoint+0xb778>
    c168: b7 02 00 00 00 00 00 00      	mov64 r2, 0x0
    c170: 05 00 c5 ff 00 00 00 00      	ja -0x3b <entrypoint+0xb778>
    c178: 71 14 72 52 00 00 00 00      	ldxb r4, [r1 + 0x5272]
    c180: 55 04 22 02 01 00 00 00      	jne r4, 0x1, +0x222 <entrypoint+0xca70>
    c188: 71 14 70 52 00 00 00 00      	ldxb r4, [r1 + 0x5270]
    c190: 15 04 2f fc 00 00 00 00      	jeq r4, 0x0, -0x3d1 <entrypoint+0x9ae8>
    c198: b7 06 00 00 07 00 00 00      	mov64 r6, 0x7
    c1a0: 05 00 c5 fb 00 00 00 00      	ja -0x43b <entrypoint+0x97a8>
    c1a8: 55 01 e9 00 00 00 00 00      	jne r1, 0x0, +0xe9 <entrypoint+0xc0d0>
    c1b0: b7 06 00 00 09 00 00 00      	mov64 r6, 0x9
    c1b8: b7 09 00 00 00 00 00 00      	mov64 r9, 0x0
    c1c0: 05 00 bb f6 00 00 00 00      	ja -0x945 <entrypoint+0x6f78>
    c1c8: b7 06 00 00 01 00 00 00      	mov64 r6, 0x1
    c1d0: 79 a2 e0 f7 00 00 00 00      	ldxdw r2, [r10 - 0x820]
    c1d8: 79 25 98 00 00 00 00 00      	ldxdw r5, [r2 + 0x98]
    c1e0: b7 08 00 00 00 00 00 00      	mov64 r8, 0x0
    c1e8: 79 a2 d8 f7 00 00 00 00      	ldxdw r2, [r10 - 0x828]
    c1f0: ad 25 e8 f8 00 00 00 00      	jlt r5, r2, -0x718 <entrypoint+0x8110>
    c1f8: 79 a2 e0 f7 00 00 00 00      	ldxdw r2, [r10 - 0x820]
    c200: 79 22 58 00 00 00 00 00      	ldxdw r2, [r2 + 0x58]
    c208: b7 06 00 00 03 00 00 00      	mov64 r6, 0x3
    c210: 79 a0 f0 f7 00 00 00 00      	ldxdw r0, [r10 - 0x810]
    c218: 79 07 08 00 00 00 00 00      	ldxdw r7, [r0 + 0x8]
    c220: 5d 27 e2 f8 00 00 00 00      	jne r7, r2, -0x71e <entrypoint+0x8110>
    c228: 05 00 66 fc 00 00 00 00      	ja -0x39a <entrypoint+0x9d38>
    c230: 71 52 59 00 00 00 00 00      	ldxb r2, [r5 + 0x59]
    c238: b7 00 00 00 01 00 00 00      	mov64 r0, 0x1
    c240: 7b 2a b0 f7 00 00 00 00      	stxdw [r10 - 0x850], r2
    c248: 55 02 01 00 00 00 00 00      	jne r2, 0x0, +0x1 <entrypoint+0xba30>
    c250: b7 00 00 00 00 00 00 00      	mov64 r0, 0x0
    c258: 79 a2 b0 f7 00 00 00 00      	ldxdw r2, [r10 - 0x850]
    c260: 25 02 52 04 0b 00 00 00      	jgt r2, 0xb, +0x452 <entrypoint+0xdcd0>
    c268: bf a2 00 00 00 00 00 00      	mov64 r2, r10
    c270: 07 02 00 00 00 f8 ff ff      	add64 r2, -0x800
    c278: 7b 2a c8 f7 00 00 00 00      	stxdw [r10 - 0x838], r2
    c280: 79 a2 c0 f7 00 00 00 00      	ldxdw r2, [r10 - 0x840]
    c288: 0f 12 00 00 00 00 00 00      	add64 r2, r1
    c290: 7b 2a c0 f7 00 00 00 00      	stxdw [r10 - 0x840], r2
    c298: 79 a1 b0 f7 00 00 00 00      	ldxdw r1, [r10 - 0x850]
    c2a0: 67 01 00 00 05 00 00 00      	lsh64 r1, 0x5
    c2a8: 67 00 00 00 05 00 00 00      	lsh64 r0, 0x5
    c2b0: bf 52 00 00 00 00 00 00      	mov64 r2, r5
    c2b8: 07 02 00 00 5b 00 00 00      	add64 r2, 0x5b
    c2c0: 7b 2a a0 f7 00 00 00 00      	stxdw [r10 - 0x860], r2
    c2c8: 0f 02 00 00 00 00 00 00      	add64 r2, r0
    c2d0: 7b 2a 98 f7 00 00 00 00      	stxdw [r10 - 0x868], r2
    c2d8: 1f 10 00 00 00 00 00 00      	sub64 r0, r1
    c2e0: 7b 0a a8 f7 00 00 00 00      	stxdw [r10 - 0x858], r0
    c2e8: b7 01 00 00 00 00 00 00      	mov64 r1, 0x0
    c2f0: 7b 1a b8 f7 00 00 00 00      	stxdw [r10 - 0x848], r1
    c2f8: bf a1 00 00 00 00 00 00      	mov64 r1, r10
    c300: 07 01 00 00 08 f8 ff ff      	add64 r1, -0x7f8
    c308: 05 00 06 00 00 00 00 00      	ja +0x6 <entrypoint+0xbb18>
    c310: 67 02 00 00 03 00 00 00      	lsh64 r2, 0x3
    c318: 79 a0 c8 f7 00 00 00 00      	ldxdw r0, [r10 - 0x838]
    c320: bf 01 00 00 00 00 00 00      	mov64 r1, r0
    c328: 0f 21 00 00 00 00 00 00      	add64 r1, r2
    c330: 79 a2 c0 f7 00 00 00 00      	ldxdw r2, [r10 - 0x840]
    c338: 1d 20 eb fe 00 00 00 00      	jeq r0, r2, -0x115 <entrypoint+0xb270>
    c340: 79 a0 c8 f7 00 00 00 00      	ldxdw r0, [r10 - 0x838]
    c348: 7b 1a c8 f7 00 00 00 00      	stxdw [r10 - 0x838], r1
    c350: 79 a1 b0 f7 00 00 00 00      	ldxdw r1, [r10 - 0x850]
    c358: 15 01 2b 00 00 00 00 00      	jeq r1, 0x0, +0x2b <entrypoint+0xbc90>
    c360: b7 02 00 00 00 00 00 00      	mov64 r2, 0x0
    c368: 79 06 00 00 00 00 00 00      	ldxdw r6, [r0 + 0x0]
    c370: 79 68 08 00 00 00 00 00      	ldxdw r8, [r6 + 0x8]
    c378: 79 a1 98 f7 00 00 00 00      	ldxdw r1, [r10 - 0x868]
    c380: 79 a9 a8 f7 00 00 00 00      	ldxdw r9, [r10 - 0x858]
    c388: 79 a0 a0 f7 00 00 00 00      	ldxdw r0, [r10 - 0x860]
    c390: 7b 8a d0 f7 00 00 00 00      	stxdw [r10 - 0x830], r8
    c398: 05 00 08 00 00 00 00 00      	ja +0x8 <entrypoint+0xbbb8>
    c3a0: bf 86 00 00 00 00 00 00      	mov64 r6, r8
    c3a8: 79 a8 d0 f7 00 00 00 00      	ldxdw r8, [r10 - 0x830]
    c3b0: 79 a0 d8 f7 00 00 00 00      	ldxdw r0, [r10 - 0x828]
    c3b8: bf 01 00 00 00 00 00 00      	mov64 r1, r0
    c3c0: 07 01 00 00 20 00 00 00      	add64 r1, 0x20
    c3c8: 07 02 00 00 01 00 00 00      	add64 r2, 0x1
    c3d0: 07 09 00 00 20 00 00 00      	add64 r9, 0x20
    c3d8: 15 09 1b 00 20 00 00 00      	jeq r9, 0x20, +0x1b <entrypoint+0xbc90>
    c3e0: 7b 1a d8 f7 00 00 00 00      	stxdw [r10 - 0x828], r1
    c3e8: 79 01 00 00 00 00 00 00      	ldxdw r1, [r0 + 0x0]
    c3f0: 5d 81 f7 ff 00 00 00 00      	jne r1, r8, -0x9 <entrypoint+0xbb88>
    c3f8: 79 61 10 00 00 00 00 00      	ldxdw r1, [r6 + 0x10]
    c400: bf 68 00 00 00 00 00 00      	mov64 r8, r6
    c408: 79 06 08 00 00 00 00 00      	ldxdw r6, [r0 + 0x8]
    c410: 5d 16 f1 ff 00 00 00 00      	jne r6, r1, -0xf <entrypoint+0xbb78>
    c418: 79 81 18 00 00 00 00 00      	ldxdw r1, [r8 + 0x18]
    c420: 79 06 10 00 00 00 00 00      	ldxdw r6, [r0 + 0x10]
    c428: 5d 16 ee ff 00 00 00 00      	jne r6, r1, -0x12 <entrypoint+0xbb78>
    c430: 79 81 20 00 00 00 00 00      	ldxdw r1, [r8 + 0x20]
    c438: 79 00 18 00 00 00 00 00      	ldxdw r0, [r0 + 0x18]
    c440: bf 86 00 00 00 00 00 00      	mov64 r6, r8
    c448: 5d 10 eb ff 00 00 00 00      	jne r0, r1, -0x15 <entrypoint+0xbb80>
    c450: 25 02 51 04 0a 00 00 00      	jgt r2, 0xa, +0x451 <entrypoint+0xdeb8>
    c458: bf a1 00 00 00 00 00 00      	mov64 r1, r10
    c460: 07 01 00 00 e0 ff ff ff      	add64 r1, -0x20
    c468: 0f 21 00 00 00 00 00 00      	add64 r1, r2
    c470: 71 10 00 00 00 00 00 00      	ldxb r0, [r1 + 0x0]
    c478: 55 00 e5 ff 00 00 00 00      	jne r0, 0x0, -0x1b <entrypoint+0xbb80>
    c480: 71 60 01 00 00 00 00 00      	ldxb r0, [r6 + 0x1]
    c488: 15 00 27 02 00 00 00 00      	jeq r0, 0x0, +0x227 <entrypoint+0xcda0>
    c490: 72 01 00 00 01 00 00 00      	stb [r1 + 0x0], 0x1
    c498: 79 a1 b8 f7 00 00 00 00      	ldxdw r1, [r10 - 0x848]
    c4a0: 07 01 00 00 01 00 00 00      	add64 r1, 0x1
    c4a8: 7b 1a b8 f7 00 00 00 00      	stxdw [r10 - 0x848], r1
    c4b0: 05 00 de ff 00 00 00 00      	ja -0x22 <entrypoint+0xbb80>
    c4b8: b7 02 00 00 01 00 00 00      	mov64 r2, 0x1
    c4c0: 79 a1 c0 f7 00 00 00 00      	ldxdw r1, [r10 - 0x840]
    c4c8: 79 a0 c8 f7 00 00 00 00      	ldxdw r0, [r10 - 0x838]
    c4d0: 5d 10 c7 ff 00 00 00 00      	jne r0, r1, -0x39 <entrypoint+0xbae8>
    c4d8: b7 02 00 00 00 00 00 00      	mov64 r2, 0x0
    c4e0: 05 00 c5 ff 00 00 00 00      	ja -0x3b <entrypoint+0xbae8>
    c4e8: 71 02 59 00 00 00 00 00      	ldxb r2, [r0 + 0x59]
    c4f0: b7 05 00 00 01 00 00 00      	mov64 r5, 0x1
    c4f8: 7b 2a a8 f7 00 00 00 00      	stxdw [r10 - 0x858], r2
    c500: 55 02 01 00 00 00 00 00      	jne r2, 0x0, +0x1 <entrypoint+0xbce8>
    c508: b7 05 00 00 00 00 00 00      	mov64 r5, 0x0
    c510: 79 a2 a8 f7 00 00 00 00      	ldxdw r2, [r10 - 0x858]
    c518: 25 02 4e 03 0b 00 00 00      	jgt r2, 0xb, +0x34e <entrypoint+0xd768>
    c520: 79 a2 b8 f7 00 00 00 00      	ldxdw r2, [r10 - 0x848]
    c528: 0f 12 00 00 00 00 00 00      	add64 r2, r1
    c530: 7b 2a b8 f7 00 00 00 00      	stxdw [r10 - 0x848], r2
    c538: 79 a1 a8 f7 00 00 00 00      	ldxdw r1, [r10 - 0x858]
    c540: 67 01 00 00 05 00 00 00      	lsh64 r1, 0x5
    c548: 67 05 00 00 05 00 00 00      	lsh64 r5, 0x5
    c550: bf 02 00 00 00 00 00 00      	mov64 r2, r0
    c558: 07 02 00 00 5b 00 00 00      	add64 r2, 0x5b
    c560: 7b 2a 98 f7 00 00 00 00      	stxdw [r10 - 0x868], r2
    c568: 0f 52 00 00 00 00 00 00      	add64 r2, r5
    c570: 7b 2a 90 f7 00 00 00 00      	stxdw [r10 - 0x870], r2
    c578: 1f 15 00 00 00 00 00 00      	sub64 r5, r1
    c580: 7b 5a a0 f7 00 00 00 00      	stxdw [r10 - 0x860], r5
    c588: b7 01 00 00 00 00 00 00      	mov64 r1, 0x0
    c590: 7b 1a b0 f7 00 00 00 00      	stxdw [r10 - 0x850], r1
    c598: bf a1 00 00 00 00 00 00      	mov64 r1, r10
    c5a0: 07 01 00 00 08 f8 ff ff      	add64 r1, -0x7f8
    c5a8: 05 00 06 00 00 00 00 00      	ja +0x6 <entrypoint+0xbdb8>
    c5b0: 67 02 00 00 03 00 00 00      	lsh64 r2, 0x3
    c5b8: 79 a5 c8 f7 00 00 00 00      	ldxdw r5, [r10 - 0x838]
    c5c0: bf 51 00 00 00 00 00 00      	mov64 r1, r5
    c5c8: 0f 21 00 00 00 00 00 00      	add64 r1, r2
    c5d0: 79 a2 b8 f7 00 00 00 00      	ldxdw r2, [r10 - 0x848]
    c5d8: 1d 25 a8 fe 00 00 00 00      	jeq r5, r2, -0x158 <entrypoint+0xb2f8>
    c5e0: 79 a6 c8 f7 00 00 00 00      	ldxdw r6, [r10 - 0x838]
    c5e8: 7b 1a c8 f7 00 00 00 00      	stxdw [r10 - 0x838], r1
    c5f0: 79 a1 a8 f7 00 00 00 00      	ldxdw r1, [r10 - 0x858]
    c5f8: 15 01 2a 00 00 00 00 00      	jeq r1, 0x0, +0x2a <entrypoint+0xbf28>
    c600: b7 02 00 00 00 00 00 00      	mov64 r2, 0x0
    c608: 79 65 00 00 00 00 00 00      	ldxdw r5, [r6 + 0x0]
    c610: 79 57 08 00 00 00 00 00      	ldxdw r7, [r5 + 0x8]
    c618: 79 a6 90 f7 00 00 00 00      	ldxdw r6, [r10 - 0x870]
    c620: 79 a1 a0 f7 00 00 00 00      	ldxdw r1, [r10 - 0x860]
    c628: 79 a9 98 f7 00 00 00 00      	ldxdw r9, [r10 - 0x868]
    c630: 7b 7a c0 f7 00 00 00 00      	stxdw [r10 - 0x840], r7
    c638: 05 00 07 00 00 00 00 00      	ja +0x7 <entrypoint+0xbe50>
    c640: bf 85 00 00 00 00 00 00      	mov64 r5, r8
    c648: 79 a7 c0 f7 00 00 00 00      	ldxdw r7, [r10 - 0x840]
    c650: bf 96 00 00 00 00 00 00      	mov64 r6, r9
    c658: 07 06 00 00 20 00 00 00      	add64 r6, 0x20
    c660: 07 02 00 00 01 00 00 00      	add64 r2, 0x1
    c668: 07 01 00 00 20 00 00 00      	add64 r1, 0x20
    c670: 15 01 1b 00 20 00 00 00      	jeq r1, 0x20, +0x1b <entrypoint+0xbf28>
    c678: bf 98 00 00 00 00 00 00      	mov64 r8, r9
    c680: bf 69 00 00 00 00 00 00      	mov64 r9, r6
    c688: 79 86 00 00 00 00 00 00      	ldxdw r6, [r8 + 0x0]
    c690: 5d 76 f7 ff 00 00 00 00      	jne r6, r7, -0x9 <entrypoint+0xbe28>
    c698: 79 56 10 00 00 00 00 00      	ldxdw r6, [r5 + 0x10]
    c6a0: 79 87 08 00 00 00 00 00      	ldxdw r7, [r8 + 0x8]
    c6a8: 5d 67 f3 ff 00 00 00 00      	jne r7, r6, -0xd <entrypoint+0xbe20>
    c6b0: 79 56 18 00 00 00 00 00      	ldxdw r6, [r5 + 0x18]
    c6b8: 79 87 10 00 00 00 00 00      	ldxdw r7, [r8 + 0x10]
    c6c0: 5d 67 f0 ff 00 00 00 00      	jne r7, r6, -0x10 <entrypoint+0xbe20>
    c6c8: 79 56 20 00 00 00 00 00      	ldxdw r6, [r5 + 0x20]
    c6d0: 79 87 18 00 00 00 00 00      	ldxdw r7, [r8 + 0x18]
    c6d8: 5d 67 ed ff 00 00 00 00      	jne r7, r6, -0x13 <entrypoint+0xbe20>
    c6e0: bf 58 00 00 00 00 00 00      	mov64 r8, r5
    c6e8: 25 02 fe 03 0a 00 00 00      	jgt r2, 0xa, +0x3fe <entrypoint+0xdeb8>
    c6f0: bf a6 00 00 00 00 00 00      	mov64 r6, r10
    c6f8: 07 06 00 00 e0 ff ff ff      	add64 r6, -0x20
    c700: 0f 26 00 00 00 00 00 00      	add64 r6, r2
    c708: 71 67 00 00 00 00 00 00      	ldxb r7, [r6 + 0x0]
    c710: 55 07 e5 ff 00 00 00 00      	jne r7, 0x0, -0x1b <entrypoint+0xbe18>
    c718: 71 87 01 00 00 00 00 00      	ldxb r7, [r8 + 0x1]
    c720: 15 07 d4 01 00 00 00 00      	jeq r7, 0x0, +0x1d4 <entrypoint+0xcda0>
    c728: 72 06 00 00 01 00 00 00      	stb [r6 + 0x0], 0x1
    c730: 79 a5 b0 f7 00 00 00 00      	ldxdw r5, [r10 - 0x850]
    c738: 07 05 00 00 01 00 00 00      	add64 r5, 0x1
    c740: 7b 5a b0 f7 00 00 00 00      	stxdw [r10 - 0x850], r5
    c748: 05 00 de ff 00 00 00 00      	ja -0x22 <entrypoint+0xbe18>
    c750: b7 02 00 00 01 00 00 00      	mov64 r2, 0x1
    c758: 79 a1 c8 f7 00 00 00 00      	ldxdw r1, [r10 - 0x838]
    c760: 79 a5 b8 f7 00 00 00 00      	ldxdw r5, [r10 - 0x848]
    c768: 5d 51 c8 ff 00 00 00 00      	jne r1, r5, -0x38 <entrypoint+0xbd88>
    c770: b7 02 00 00 00 00 00 00      	mov64 r2, 0x0
    c778: 05 00 c6 ff 00 00 00 00      	ja -0x3a <entrypoint+0xbd88>
    c780: b7 06 00 00 12 00 00 00      	mov64 r6, 0x12
    c788: 71 02 84 00 00 00 00 00      	ldxb r2, [r0 + 0x84]
    c790: 5d 21 34 f8 00 00 00 00      	jne r1, r2, -0x7cc <entrypoint+0x8110>
    c798: bf a7 00 00 00 00 00 00      	mov64 r7, r10
    c7a0: 07 07 00 00 08 f8 ff ff      	add64 r7, -0x7f8
    c7a8: 79 a0 00 f8 00 00 00 00      	ldxdw r0, [r10 - 0x800]
    c7b0: 79 01 08 00 00 00 00 00      	ldxdw r1, [r0 + 0x8]
    c7b8: 79 a2 e0 f7 00 00 00 00      	ldxdw r2, [r10 - 0x820]
    c7c0: 71 22 a0 00 00 00 00 00      	ldxb r2, [r2 + 0xa0]
    c7c8: 55 02 2e 00 01 00 00 00      	jne r2, 0x1, +0x2e <entrypoint+0xc118>
    c7d0: 79 a2 e0 f7 00 00 00 00      	ldxdw r2, [r10 - 0x820]
    c7d8: 79 22 a4 00 00 00 00 00      	ldxdw r2, [r2 + 0xa4]
    c7e0: 5d 12 2b 00 00 00 00 00      	jne r2, r1, +0x2b <entrypoint+0xc118>
    c7e8: 79 02 10 00 00 00 00 00      	ldxdw r2, [r0 + 0x10]
    c7f0: 79 a4 e0 f7 00 00 00 00      	ldxdw r4, [r10 - 0x820]
    c7f8: 79 48 ac 00 00 00 00 00      	ldxdw r8, [r4 + 0xac]
    c800: 5d 28 27 00 00 00 00 00      	jne r8, r2, +0x27 <entrypoint+0xc118>
    c808: 79 02 18 00 00 00 00 00      	ldxdw r2, [r0 + 0x18]
    c810: 79 a4 e0 f7 00 00 00 00      	ldxdw r4, [r10 - 0x820]
    c818: 79 48 b4 00 00 00 00 00      	ldxdw r8, [r4 + 0xb4]
    c820: 5d 28 23 00 00 00 00 00      	jne r8, r2, +0x23 <entrypoint+0xc118>
    c828: 79 02 20 00 00 00 00 00      	ldxdw r2, [r0 + 0x20]
    c830: 79 a4 e0 f7 00 00 00 00      	ldxdw r4, [r10 - 0x820]
    c838: 79 48 bc 00 00 00 00 00      	ldxdw r8, [r4 + 0xbc]
    c840: 5d 28 1f 00 00 00 00 00      	jne r8, r2, +0x1f <entrypoint+0xc118>
    c848: 79 01 50 00 00 00 00 00      	ldxdw r1, [r0 + 0x50]
    c850: 55 01 38 02 63 01 00 00      	jne r1, 0x163, +0x238 <entrypoint+0xd1f0>
    c858: 79 01 28 00 00 00 00 00      	ldxdw r1, [r0 + 0x28]
    c860: 18 02 00 00 06 dd f6 e1 00 00 00 00 ee 75 8f de      	lddw r2, -0x21708a111e0922fa
    c870: 1d 21 28 02 00 00 00 00      	jeq r1, r2, +0x228 <entrypoint+0xd190>
    c878: 18 02 00 00 06 dd f6 e1 00 00 00 00 d7 65 a1 93      	lddw r2, -0x6c5e9a281e0922fa
    c888: 5d 21 31 02 00 00 00 00      	jne r1, r2, +0x231 <entrypoint+0xd1f0>
    c890: 79 01 30 00 00 00 00 00      	ldxdw r1, [r0 + 0x30]
    c898: 18 02 00 00 d9 cb e1 46 00 00 00 00 ce eb 79 ac      	lddw r2, -0x53861431b91e3427
    c8a8: 5d 21 2d 02 00 00 00 00      	jne r1, r2, +0x22d <entrypoint+0xd1f0>
    c8b0: 79 01 38 00 00 00 00 00      	ldxdw r1, [r0 + 0x38]
    c8b8: 18 02 00 00 1c b4 85 ed 00 00 00 00 5f 5b 37 91      	lddw r2, -0x6ec8a4a0127a4be4
    c8c8: 5d 21 29 02 00 00 00 00      	jne r1, r2, +0x229 <entrypoint+0xd1f0>
    c8d0: 79 01 40 00 00 00 00 00      	ldxdw r1, [r0 + 0x40]
    c8d8: 18 02 00 00 3a 8c f5 85 00 00 00 00 7e ff 00 a9      	lddw r2, -0x56ff00817a0a73c6
    c8e8: 5d 21 25 02 00 00 00 00      	jne r1, r2, +0x225 <entrypoint+0xd1f0>
    c8f0: 05 00 56 03 00 00 00 00      	ja +0x356 <entrypoint+0xdb80>
    c8f8: b7 06 00 00 03 00 00 00      	mov64 r6, 0x3
    c900: b7 09 00 00 00 00 00 00      	mov64 r9, 0x0
    c908: 05 00 d2 f5 00 00 00 00      	ja -0xa2e <entrypoint+0x6f78>
    c910: b7 09 00 00 03 00 00 00      	mov64 r9, 0x3
    c918: 05 00 04 f8 00 00 00 00      	ja -0x7fc <entrypoint+0x8118>
    c920: b7 09 00 00 11 00 00 00      	mov64 r9, 0x11
    c928: 05 00 ce f5 00 00 00 00      	ja -0xa32 <entrypoint+0x6f78>
    c930: b7 09 00 00 0a 00 00 00      	mov64 r9, 0xa
    c938: 05 00 00 f8 00 00 00 00      	ja -0x800 <entrypoint+0x8118>
    c940: b7 06 00 00 04 00 00 00      	mov64 r6, 0x4
    c948: 79 a2 e0 f7 00 00 00 00      	ldxdw r2, [r10 - 0x820]
    c950: 79 22 78 00 00 00 00 00      	ldxdw r2, [r2 + 0x78]
    c958: 5d 12 19 fe 00 00 00 00      	jne r2, r1, -0x1e7 <entrypoint+0xb200>
    c960: 79 01 10 00 00 00 00 00      	ldxdw r1, [r0 + 0x10]
    c968: 79 a2 e0 f7 00 00 00 00      	ldxdw r2, [r10 - 0x820]
    c970: 79 22 80 00 00 00 00 00      	ldxdw r2, [r2 + 0x80]
    c978: 5d 12 15 fe 00 00 00 00      	jne r2, r1, -0x1eb <entrypoint+0xb200>
    c980: 79 01 18 00 00 00 00 00      	ldxdw r1, [r0 + 0x18]
    c988: 79 a2 e0 f7 00 00 00 00      	ldxdw r2, [r10 - 0x820]
    c990: 79 22 88 00 00 00 00 00      	ldxdw r2, [r2 + 0x88]
    c998: 5d 12 11 fe 00 00 00 00      	jne r2, r1, -0x1ef <entrypoint+0xb200>
    c9a0: 79 01 20 00 00 00 00 00      	ldxdw r1, [r0 + 0x20]
    c9a8: 79 a2 e0 f7 00 00 00 00      	ldxdw r2, [r10 - 0x820]
    c9b0: 79 22 90 00 00 00 00 00      	ldxdw r2, [r2 + 0x90]
    c9b8: b7 08 00 00 00 00 00 00      	mov64 r8, 0x0
    c9c0: 5d 12 ee f7 00 00 00 00      	jne r2, r1, -0x812 <entrypoint+0x8110>
    c9c8: 79 01 50 00 00 00 00 00      	ldxdw r1, [r0 + 0x50]
    c9d0: 55 01 93 00 63 01 00 00      	jne r1, 0x163, +0x93 <entrypoint+0xc648>
    c9d8: 79 01 28 00 00 00 00 00      	ldxdw r1, [r0 + 0x28]
    c9e0: 18 02 00 00 06 dd f6 e1 00 00 00 00 ee 75 8f de      	lddw r2, -0x21708a111e0922fa
    c9f0: 1d 21 83 00 00 00 00 00      	jeq r1, r2, +0x83 <entrypoint+0xc5e8>
    c9f8: 18 02 00 00 06 dd f6 e1 00 00 00 00 d7 65 a1 93      	lddw r2, -0x6c5e9a281e0922fa
    ca08: 5d 21 8c 00 00 00 00 00      	jne r1, r2, +0x8c <entrypoint+0xc648>
    ca10: 79 01 30 00 00 00 00 00      	ldxdw r1, [r0 + 0x30]
    ca18: 18 02 00 00 d9 cb e1 46 00 00 00 00 ce eb 79 ac      	lddw r2, -0x53861431b91e3427
    ca28: 5d 21 88 00 00 00 00 00      	jne r1, r2, +0x88 <entrypoint+0xc648>
    ca30: 79 01 38 00 00 00 00 00      	ldxdw r1, [r0 + 0x38]
    ca38: 18 02 00 00 1c b4 85 ed 00 00 00 00 5f 5b 37 91      	lddw r2, -0x6ec8a4a0127a4be4
    ca48: 5d 21 84 00 00 00 00 00      	jne r1, r2, +0x84 <entrypoint+0xc648>
    ca50: 79 01 40 00 00 00 00 00      	ldxdw r1, [r0 + 0x40]
    ca58: 18 02 00 00 3a 8c f5 85 00 00 00 00 7e ff 00 a9      	lddw r2, -0x56ff00817a0a73c6
    ca68: 5d 21 80 00 00 00 00 00      	jne r1, r2, +0x80 <entrypoint+0xc648>
    ca70: 05 00 ad 02 00 00 00 00      	ja +0x2ad <entrypoint+0xd7b8>
    ca78: b7 07 00 00 12 00 00 00      	mov64 r7, 0x12
    ca80: 05 00 a9 fa 00 00 00 00      	ja -0x557 <entrypoint+0x97a8>
    ca88: 71 14 2a 7b 00 00 00 00      	ldxb r4, [r1 + 0x7b2a]
    ca90: 55 04 c8 01 01 00 00 00      	jne r4, 0x1, +0x1c8 <entrypoint+0xd0b0>
    ca98: 71 13 28 7b 00 00 00 00      	ldxb r3, [r1 + 0x7b28]
    caa0: 15 03 14 fc 00 00 00 00      	jeq r3, 0x0, -0x3ec <entrypoint+0xa320>
    caa8: 05 00 dd fe 00 00 00 00      	ja -0x123 <entrypoint+0xb970>
    cab0: b7 09 00 00 12 00 00 00      	mov64 r9, 0x12
    cab8: 05 00 d0 f7 00 00 00 00      	ja -0x830 <entrypoint+0x8118>
    cac0: 79 a1 e0 f7 00 00 00 00      	ldxdw r1, [r10 - 0x820]
    cac8: 79 11 28 00 00 00 00 00      	ldxdw r1, [r1 + 0x28]
    cad0: 18 02 00 00 06 dd f6 e1 00 00 00 00 d7 65 a1 93      	lddw r2, -0x6c5e9a281e0922fa
    cae0: 5d 21 1f 00 00 00 00 00      	jne r1, r2, +0x1f <entrypoint+0xc3b8>
    cae8: 79 a1 e0 f7 00 00 00 00      	ldxdw r1, [r10 - 0x820]
    caf0: 79 11 30 00 00 00 00 00      	ldxdw r1, [r1 + 0x30]
    caf8: 18 02 00 00 d9 cb e1 46 00 00 00 00 ce eb 79 ac      	lddw r2, -0x53861431b91e3427
    cb08: 5d 21 1a 00 00 00 00 00      	jne r1, r2, +0x1a <entrypoint+0xc3b8>
    cb10: 79 a1 e0 f7 00 00 00 00      	ldxdw r1, [r10 - 0x820]
    cb18: 79 11 38 00 00 00 00 00      	ldxdw r1, [r1 + 0x38]
    cb20: 18 02 00 00 1c b4 85 ed 00 00 00 00 5f 5b 37 91      	lddw r2, -0x6ec8a4a0127a4be4
    cb30: 5d 21 15 00 00 00 00 00      	jne r1, r2, +0x15 <entrypoint+0xc3b8>
    cb38: 79 a1 e0 f7 00 00 00 00      	ldxdw r1, [r10 - 0x820]
    cb40: 79 11 40 00 00 00 00 00      	ldxdw r1, [r1 + 0x40]
    cb48: 18 02 00 00 3a 8c f5 85 00 00 00 00 7e ff 00 a9      	lddw r2, -0x56ff00817a0a73c6
    cb58: 5d 21 10 00 00 00 00 00      	jne r1, r2, +0x10 <entrypoint+0xc3b8>
    cb60: 79 31 28 00 00 00 00 00      	ldxdw r1, [r3 + 0x28]
    cb68: 18 02 00 00 06 dd f6 e1 00 00 00 00 d7 65 a1 93      	lddw r2, -0x6c5e9a281e0922fa
    cb78: 5d 21 0c 00 00 00 00 00      	jne r1, r2, +0xc <entrypoint+0xc3b8>
    cb80: 79 31 30 00 00 00 00 00      	ldxdw r1, [r3 + 0x30]
    cb88: 18 02 00 00 d9 cb e1 46 00 00 00 00 ce eb 79 ac      	lddw r2, -0x53861431b91e3427
    cb98: 5d 21 08 00 00 00 00 00      	jne r1, r2, +0x8 <entrypoint+0xc3b8>
    cba0: 79 31 38 00 00 00 00 00      	ldxdw r1, [r3 + 0x38]
    cba8: 18 02 00 00 1c b4 85 ed 00 00 00 00 5f 5b 37 91      	lddw r2, -0x6ec8a4a0127a4be4
    cbb8: 5d 21 04 00 00 00 00 00      	jne r1, r2, +0x4 <entrypoint+0xc3b8>
    cbc0: 79 31 40 00 00 00 00 00      	ldxdw r1, [r3 + 0x40]
    cbc8: 18 02 00 00 3a 8c f5 85 00 00 00 00 7e ff 00 a9      	lddw r2, -0x56ff00817a0a73c6
    cbd8: 1d 21 26 fc 00 00 00 00      	jeq r1, r2, -0x3da <entrypoint+0xa4e8>
    cbe0: b7 08 00 00 06 00 00 00      	mov64 r8, 0x6
    cbe8: 05 00 aa f7 00 00 00 00      	ja -0x856 <entrypoint+0x8118>
    cbf0: b7 08 00 00 00 00 00 00      	mov64 r8, 0x0
    cbf8: 05 00 a8 f7 00 00 00 00      	ja -0x858 <entrypoint+0x8118>
    cc00: 71 01 5a 00 00 00 00 00      	ldxb r1, [r0 + 0x5a]
    cc08: 15 01 d5 00 01 00 00 00      	jeq r1, 0x1, +0xd5 <entrypoint+0xca90>
    cc10: 15 01 a9 01 00 00 00 00      	jeq r1, 0x0, +0x1a9 <entrypoint+0xd138>
    cc18: b7 09 00 00 00 00 00 00      	mov64 r9, 0x0
    cc20: b7 08 00 00 03 00 00 00      	mov64 r8, 0x3
    cc28: 05 00 a2 f7 00 00 00 00      	ja -0x85e <entrypoint+0x8118>
    cc30: 7b 7a b0 f7 00 00 00 00      	stxdw [r10 - 0x850], r7
    cc38: 71 01 5a 00 00 00 00 00      	ldxb r1, [r0 + 0x5a]
    cc40: 55 01 85 01 01 00 00 00      	jne r1, 0x1, +0x185 <entrypoint+0xd048>
    cc48: b7 01 00 00 00 00 00 00      	mov64 r1, 0x0
    cc50: 7b 1a a8 f7 00 00 00 00      	stxdw [r10 - 0x858], r1
    cc58: 79 a7 b8 f7 00 00 00 00      	ldxdw r7, [r10 - 0x848]
    cc60: 67 07 00 00 03 00 00 00      	lsh64 r7, 0x3
    cc68: bf a1 00 00 00 00 00 00      	mov64 r1, r10
    cc70: 07 01 00 00 e8 f7 ff ff      	add64 r1, -0x818
    cc78: 7b 1a c0 f7 00 00 00 00      	stxdw [r10 - 0x840], r1
    cc80: 62 0a e7 ff 00 00 00 00      	stw [r10 - 0x19], 0x0
    cc88: 7a 0a e0 ff 00 00 00 00      	stdw [r10 - 0x20], 0x0
    cc90: bf 71 00 00 00 00 00 00      	mov64 r1, r7
    cc98: 55 07 5f 00 18 00 00 00      	jne r7, 0x18, +0x5f <entrypoint+0xc770>
    cca0: 71 01 58 00 00 00 00 00      	ldxb r1, [r0 + 0x58]
    cca8: 79 a2 a8 f7 00 00 00 00      	ldxdw r2, [r10 - 0x858]
    ccb0: 57 02 00 00 ff 00 00 00      	and64 r2, 0xff
    ccb8: 3d 12 1d fc 00 00 00 00      	jge r2, r1, -0x3e3 <entrypoint+0xa580>
    ccc0: 05 00 20 01 00 00 00 00      	ja +0x120 <entrypoint+0xcda0>
    ccc8: 55 01 51 00 00 00 00 00      	jne r1, 0x0, +0x51 <entrypoint+0xc730>
    ccd0: b7 06 00 00 09 00 00 00      	mov64 r6, 0x9
    ccd8: 79 a9 d0 f6 00 00 00 00      	ldxdw r9, [r10 - 0x930]
    cce0: 05 00 57 f5 00 00 00 00      	ja -0xaa9 <entrypoint+0x6f78>
    cce8: 55 01 51 00 00 00 00 00      	jne r1, 0x0, +0x51 <entrypoint+0xc750>
    ccf0: b7 06 00 00 09 00 00 00      	mov64 r6, 0x9
    ccf8: 79 a9 c8 f6 00 00 00 00      	ldxdw r9, [r10 - 0x938]
    cd00: 05 00 53 f5 00 00 00 00      	ja -0xaad <entrypoint+0x6f78>
    cd08: 55 01 a4 00 00 00 00 00      	jne r1, 0x0, +0xa4 <entrypoint+0xca08>
    cd10: b7 06 00 00 09 00 00 00      	mov64 r6, 0x9
    cd18: 79 a9 f0 f6 00 00 00 00      	ldxdw r9, [r10 - 0x910]
    cd20: 05 00 4f f5 00 00 00 00      	ja -0xab1 <entrypoint+0x6f78>
    cd28: 55 02 a4 00 00 00 00 00      	jne r2, 0x0, +0xa4 <entrypoint+0xca28>
    cd30: b7 06 00 00 09 00 00 00      	mov64 r6, 0x9
    cd38: 79 a9 c0 f6 00 00 00 00      	ldxdw r9, [r10 - 0x940]
    cd40: 05 00 4b f5 00 00 00 00      	ja -0xab5 <entrypoint+0x6f78>
    cd48: 71 01 5a 00 00 00 00 00      	ldxb r1, [r0 + 0x5a]
    cd50: 55 01 13 00 01 00 00 00      	jne r1, 0x1, +0x13 <entrypoint+0xc5c8>
    cd58: b7 01 00 00 00 00 00 00      	mov64 r1, 0x0
    cd60: 7b 1a a8 f7 00 00 00 00      	stxdw [r10 - 0x858], r1
    cd68: 67 07 00 00 03 00 00 00      	lsh64 r7, 0x3
    cd70: bf a1 00 00 00 00 00 00      	mov64 r1, r10
    cd78: 07 01 00 00 e8 f7 ff ff      	add64 r1, -0x818
    cd80: 7b 1a b0 f7 00 00 00 00      	stxdw [r10 - 0x850], r1
    cd88: 62 0a e7 ff 00 00 00 00      	stw [r10 - 0x19], 0x0
    cd90: 7a 0a e0 ff 00 00 00 00      	stdw [r10 - 0x20], 0x0
    cd98: bf 71 00 00 00 00 00 00      	mov64 r1, r7
    cda0: 55 07 b2 00 18 00 00 00      	jne r7, 0x18, +0xb2 <entrypoint+0xcb10>
    cda8: 71 01 58 00 00 00 00 00      	ldxb r1, [r0 + 0x58]
    cdb0: 79 a2 a8 f7 00 00 00 00      	ldxdw r2, [r10 - 0x858]
    cdb8: 57 02 00 00 ff 00 00 00      	and64 r2, 0xff
    cdc0: ad 12 00 01 00 00 00 00      	jlt r2, r1, +0x100 <entrypoint+0xcda0>
    cdc8: b7 09 00 00 01 00 00 00      	mov64 r9, 0x1
    cdd0: 79 a5 d8 f7 00 00 00 00      	ldxdw r5, [r10 - 0x828]
    cdd8: 79 41 d1 00 00 00 00 00      	ldxdw r1, [r4 + 0xd1]
    cde0: 3d 51 4b fc 00 00 00 00      	jge r1, r5, -0x3b5 <entrypoint+0xa818>
    cde8: 05 00 36 f5 00 00 00 00      	ja -0xaca <entrypoint+0x6f78>
    cdf0: b7 06 00 00 03 00 00 00      	mov64 r6, 0x3
    cdf8: 15 01 76 fe 00 00 00 00      	jeq r1, 0x0, -0x18a <entrypoint+0xb988>
    ce00: b7 09 00 00 00 00 00 00      	mov64 r9, 0x0
    ce08: 05 00 32 f5 00 00 00 00      	ja -0xace <entrypoint+0x6f78>
    ce10: 79 01 30 00 00 00 00 00      	ldxdw r1, [r0 + 0x30]
    ce18: 18 02 00 00 18 42 5d bc 00 00 00 00 e4 6c cd da      	lddw r2, -0x2532931b43a2bde8
    ce28: 5d 21 08 00 00 00 00 00      	jne r1, r2, +0x8 <entrypoint+0xc648>
    ce30: 79 01 38 00 00 00 00 00      	ldxdw r1, [r0 + 0x38]
    ce38: 18 02 00 00 b6 1a fc 4d 00 00 00 00 83 b9 0d 27      	lddw r2, 0x270db9834dfc1ab6
    ce48: 5d 21 04 00 00 00 00 00      	jne r1, r2, +0x4 <entrypoint+0xc648>
    ce50: 79 01 40 00 00 00 00 00      	ldxdw r1, [r0 + 0x40]
    ce58: 18 02 00 00 fe bd f9 28 00 00 00 00 d8 a1 8b fc      	lddw r2, -0x3745e27d7064202
    ce68: 1d 21 2e 02 00 00 00 00      	jeq r1, r2, +0x22e <entrypoint+0xd7b8>
    ce70: 71 01 01 00 00 00 00 00      	ldxb r1, [r0 + 0x1]
    ce78: 15 01 52 02 00 00 00 00      	jeq r1, 0x0, +0x252 <entrypoint+0xd8e8>
    ce80: 79 a1 d8 f7 00 00 00 00      	ldxdw r1, [r10 - 0x828]
    ce88: 15 01 85 01 00 00 00 00      	jeq r1, 0x0, +0x185 <entrypoint+0xd290>
    ce90: 79 a1 e0 f7 00 00 00 00      	ldxdw r1, [r10 - 0x820]
    ce98: 1d 31 83 01 00 00 00 00      	jeq r1, r3, +0x183 <entrypoint+0xd290>
    cea0: 79 a1 d8 f7 00 00 00 00      	ldxdw r1, [r10 - 0x828]
    cea8: 1f 15 00 00 00 00 00 00      	sub64 r5, r1
    ceb0: 79 a1 e0 f7 00 00 00 00      	ldxdw r1, [r10 - 0x820]
    ceb8: 7b 51 98 00 00 00 00 00      	stxdw [r1 + 0x98], r5
    cec0: 79 31 50 00 00 00 00 00      	ldxdw r1, [r3 + 0x50]
    cec8: 55 01 28 02 a5 00 00 00      	jne r1, 0xa5, +0x228 <entrypoint+0xd7e8>
    ced0: 79 31 98 00 00 00 00 00      	ldxdw r1, [r3 + 0x98]
    ced8: 79 a2 d8 f7 00 00 00 00      	ldxdw r2, [r10 - 0x828]
    cee0: 0f 21 00 00 00 00 00 00      	add64 r1, r2
    cee8: 7b 13 98 00 00 00 00 00      	stxdw [r3 + 0x98], r1
    cef0: 79 a1 e0 f7 00 00 00 00      	ldxdw r1, [r10 - 0x820]
    cef8: 71 11 c5 00 00 00 00 00      	ldxb r1, [r1 + 0xc5]
    cf00: 55 01 08 00 01 00 00 00      	jne r1, 0x1, +0x8 <entrypoint+0xc720>
    cf08: 79 a2 e0 f7 00 00 00 00      	ldxdw r2, [r10 - 0x820]
    cf10: 79 21 48 00 00 00 00 00      	ldxdw r1, [r2 + 0x48]
    cf18: 79 a4 d8 f7 00 00 00 00      	ldxdw r4, [r10 - 0x828]
    cf20: 1f 41 00 00 00 00 00 00      	sub64 r1, r4
    cf28: 7b 12 48 00 00 00 00 00      	stxdw [r2 + 0x48], r1
    cf30: 79 31 48 00 00 00 00 00      	ldxdw r1, [r3 + 0x48]
    cf38: 0f 41 00 00 00 00 00 00      	add64 r1, r4
    cf40: 7b 13 48 00 00 00 00 00      	stxdw [r3 + 0x48], r1
    cf48: b7 08 00 00 1a 00 00 00      	mov64 r8, 0x1a
    cf50: 05 00 3c f7 00 00 00 00      	ja -0x8c4 <entrypoint+0x8110>
    cf58: 18 01 00 00 00 00 00 00 00 00 00 00 ff ff ff ff      	lddw r1, -0x100000000
    cf68: 79 a9 d0 f6 00 00 00 00      	ldxdw r9, [r10 - 0x930]
    cf70: 05 00 f7 fa 00 00 00 00      	ja -0x509 <entrypoint+0x9f08>
    cf78: 18 01 00 00 00 00 00 00 00 00 00 00 ff ff ff ff      	lddw r1, -0x100000000
    cf88: 79 a9 c8 f6 00 00 00 00      	ldxdw r9, [r10 - 0x938]
    cf90: 05 00 f3 fa 00 00 00 00      	ja -0x50d <entrypoint+0x9f08>
    cf98: 71 02 59 00 00 00 00 00      	ldxb r2, [r0 + 0x59]
    cfa0: b7 06 00 00 01 00 00 00      	mov64 r6, 0x1
    cfa8: 7b 2a b8 f7 00 00 00 00      	stxdw [r10 - 0x848], r2
    cfb0: 55 02 01 00 00 00 00 00      	jne r2, 0x0, +0x1 <entrypoint+0xc798>
    cfb8: b7 06 00 00 00 00 00 00      	mov64 r6, 0x0
    cfc0: 79 a2 b8 f7 00 00 00 00      	ldxdw r2, [r10 - 0x848]
    cfc8: 25 02 9a 01 0b 00 00 00      	jgt r2, 0xb, +0x19a <entrypoint+0xd478>
    cfd0: 79 a2 c0 f7 00 00 00 00      	ldxdw r2, [r10 - 0x840]
    cfd8: 0f 12 00 00 00 00 00 00      	add64 r2, r1
    cfe0: 7b 2a c0 f7 00 00 00 00      	stxdw [r10 - 0x840], r2
    cfe8: 79 a1 b8 f7 00 00 00 00      	ldxdw r1, [r10 - 0x848]
    cff0: 67 01 00 00 05 00 00 00      	lsh64 r1, 0x5
    cff8: 67 06 00 00 05 00 00 00      	lsh64 r6, 0x5
    d000: bf 02 00 00 00 00 00 00      	mov64 r2, r0
    d008: 07 02 00 00 5b 00 00 00      	add64 r2, 0x5b
    d010: 7b 2a 98 f7 00 00 00 00      	stxdw [r10 - 0x868], r2
    d018: 0f 62 00 00 00 00 00 00      	add64 r2, r6
    d020: 7b 2a 90 f7 00 00 00 00      	stxdw [r10 - 0x870], r2
    d028: 1f 16 00 00 00 00 00 00      	sub64 r6, r1
    d030: 7b 6a a0 f7 00 00 00 00      	stxdw [r10 - 0x860], r6
    d038: b7 01 00 00 00 00 00 00      	mov64 r1, 0x0
    d040: 7b 1a a8 f7 00 00 00 00      	stxdw [r10 - 0x858], r1
    d048: bf a1 00 00 00 00 00 00      	mov64 r1, r10
    d050: 07 01 00 00 08 f8 ff ff      	add64 r1, -0x7f8
    d058: 05 00 06 00 00 00 00 00      	ja +0x6 <entrypoint+0xc868>
    d060: 67 02 00 00 03 00 00 00      	lsh64 r2, 0x3
    d068: 79 a6 b0 f7 00 00 00 00      	ldxdw r6, [r10 - 0x850]
    d070: bf 61 00 00 00 00 00 00      	mov64 r1, r6
    d078: 0f 21 00 00 00 00 00 00      	add64 r1, r2
    d080: 79 a2 c0 f7 00 00 00 00      	ldxdw r2, [r10 - 0x840]
    d088: 1d 26 82 ff 00 00 00 00      	jeq r6, r2, -0x7e <entrypoint+0xc478>
    d090: 79 a6 b0 f7 00 00 00 00      	ldxdw r6, [r10 - 0x850]
    d098: 7b 1a b0 f7 00 00 00 00      	stxdw [r10 - 0x850], r1
    d0a0: 79 a1 b8 f7 00 00 00 00      	ldxdw r1, [r10 - 0x848]
    d0a8: 15 01 2a 00 00 00 00 00      	jeq r1, 0x0, +0x2a <entrypoint+0xc9d8>
    d0b0: b7 02 00 00 00 00 00 00      	mov64 r2, 0x0
    d0b8: 79 61 00 00 00 00 00 00      	ldxdw r1, [r6 + 0x0]
    d0c0: bf 14 00 00 00 00 00 00      	mov64 r4, r1
    d0c8: 79 11 08 00 00 00 00 00      	ldxdw r1, [r1 + 0x8]
    d0d0: 7b 1a c8 f7 00 00 00 00      	stxdw [r10 - 0x838], r1
    d0d8: 79 a6 90 f7 00 00 00 00      	ldxdw r6, [r10 - 0x870]
    d0e0: 79 a1 a0 f7 00 00 00 00      	ldxdw r1, [r10 - 0x860]
    d0e8: 79 a7 98 f7 00 00 00 00      	ldxdw r7, [r10 - 0x868]
    d0f0: 7b 7a d0 f7 00 00 00 00      	stxdw [r10 - 0x830], r7
    d0f8: 05 00 05 00 00 00 00 00      	ja +0x5 <entrypoint+0xc900>
    d100: 79 a6 d0 f7 00 00 00 00      	ldxdw r6, [r10 - 0x830]
    d108: 07 06 00 00 20 00 00 00      	add64 r6, 0x20
    d110: 07 02 00 00 01 00 00 00      	add64 r2, 0x1
    d118: 07 01 00 00 20 00 00 00      	add64 r1, 0x20
    d120: 15 01 1b 00 20 00 00 00      	jeq r1, 0x20, +0x1b <entrypoint+0xc9d8>
    d128: 79 a9 d0 f7 00 00 00 00      	ldxdw r9, [r10 - 0x830]
    d130: 7b 6a d0 f7 00 00 00 00      	stxdw [r10 - 0x830], r6
    d138: 79 96 00 00 00 00 00 00      	ldxdw r6, [r9 + 0x0]
    d140: 79 a7 c8 f7 00 00 00 00      	ldxdw r7, [r10 - 0x838]
    d148: 5d 76 f6 ff 00 00 00 00      	jne r6, r7, -0xa <entrypoint+0xc8d8>
    d150: 79 46 10 00 00 00 00 00      	ldxdw r6, [r4 + 0x10]
    d158: 79 97 08 00 00 00 00 00      	ldxdw r7, [r9 + 0x8]
    d160: 5d 67 f3 ff 00 00 00 00      	jne r7, r6, -0xd <entrypoint+0xc8d8>
    d168: 79 46 18 00 00 00 00 00      	ldxdw r6, [r4 + 0x18]
    d170: 79 97 10 00 00 00 00 00      	ldxdw r7, [r9 + 0x10]
    d178: 5d 67 f0 ff 00 00 00 00      	jne r7, r6, -0x10 <entrypoint+0xc8d8>
    d180: 79 46 20 00 00 00 00 00      	ldxdw r6, [r4 + 0x20]
    d188: 79 97 18 00 00 00 00 00      	ldxdw r7, [r9 + 0x18]
    d190: 5d 67 ed ff 00 00 00 00      	jne r7, r6, -0x13 <entrypoint+0xc8d8>
    d198: 25 02 a8 02 0a 00 00 00      	jgt r2, 0xa, +0x2a8 <entrypoint+0xdeb8>
    d1a0: bf a6 00 00 00 00 00 00      	mov64 r6, r10
    d1a8: 07 06 00 00 e0 ff ff ff      	add64 r6, -0x20
    d1b0: 0f 26 00 00 00 00 00 00      	add64 r6, r2
    d1b8: 71 67 00 00 00 00 00 00      	ldxb r7, [r6 + 0x0]
    d1c0: 55 07 e7 ff 00 00 00 00      	jne r7, 0x0, -0x19 <entrypoint+0xc8d8>
    d1c8: 71 47 01 00 00 00 00 00      	ldxb r7, [r4 + 0x1]
    d1d0: 15 07 7e 00 00 00 00 00      	jeq r7, 0x0, +0x7e <entrypoint+0xcda0>
    d1d8: 72 06 00 00 01 00 00 00      	stb [r6 + 0x0], 0x1
    d1e0: 79 a6 a8 f7 00 00 00 00      	ldxdw r6, [r10 - 0x858]
    d1e8: 07 06 00 00 01 00 00 00      	add64 r6, 0x1
    d1f0: 7b 6a a8 f7 00 00 00 00      	stxdw [r10 - 0x858], r6
    d1f8: 05 00 e0 ff 00 00 00 00      	ja -0x20 <entrypoint+0xc8d8>
    d200: b7 02 00 00 01 00 00 00      	mov64 r2, 0x1
    d208: 79 a1 c0 f7 00 00 00 00      	ldxdw r1, [r10 - 0x840]
    d210: 79 a4 b0 f7 00 00 00 00      	ldxdw r4, [r10 - 0x850]
    d218: 5d 14 c8 ff 00 00 00 00      	jne r4, r1, -0x38 <entrypoint+0xc838>
    d220: b7 02 00 00 00 00 00 00      	mov64 r2, 0x0
    d228: 05 00 c6 ff 00 00 00 00      	ja -0x3a <entrypoint+0xc838>
    d230: 18 01 00 00 00 00 00 00 00 00 00 00 ff ff ff ff      	lddw r1, -0x100000000
    d240: 79 a9 f0 f6 00 00 00 00      	ldxdw r9, [r10 - 0x910]
    d248: 05 00 9c fa 00 00 00 00      	ja -0x564 <entrypoint+0x9f08>
    d250: 18 01 00 00 00 00 00 00 00 00 00 00 ff ff ff ff      	lddw r1, -0x100000000
    d260: 79 a9 c0 f6 00 00 00 00      	ldxdw r9, [r10 - 0x940]
    d268: 05 00 98 fa 00 00 00 00      	ja -0x568 <entrypoint+0x9f08>
    d270: 71 14 72 52 00 00 00 00      	ldxb r4, [r1 + 0x5272]
    d278: 55 04 03 00 01 00 00 00      	jne r4, 0x1, +0x3 <entrypoint+0xca70>
    d280: 71 14 70 52 00 00 00 00      	ldxb r4, [r1 + 0x5270]
    d288: 15 04 d0 fb 00 00 00 00      	jeq r4, 0x0, -0x430 <entrypoint+0xa8e8>
    d290: 05 00 e0 fd 00 00 00 00      	ja -0x220 <entrypoint+0xb970>
    d298: b7 06 00 00 03 00 00 00      	mov64 r6, 0x3
    d2a0: b7 07 00 00 00 00 00 00      	mov64 r7, 0x0
    d2a8: 55 04 a4 f9 00 00 00 00      	jne r4, 0x0, -0x65c <entrypoint+0x97a8>
    d2b0: 05 00 2c fb 00 00 00 00      	ja -0x4d4 <entrypoint+0xa3f0>
    d2b8: b7 01 00 00 00 00 00 00      	mov64 r1, 0x0
    d2c0: 7b 1a b8 f7 00 00 00 00      	stxdw [r10 - 0x848], r1
    d2c8: 67 07 00 00 03 00 00 00      	lsh64 r7, 0x3
    d2d0: bf a1 00 00 00 00 00 00      	mov64 r1, r10
    d2d8: 07 01 00 00 e8 f7 ff ff      	add64 r1, -0x818
    d2e0: 7b 1a c0 f7 00 00 00 00      	stxdw [r10 - 0x840], r1
    d2e8: 62 0a e7 ff 00 00 00 00      	stw [r10 - 0x19], 0x0
    d2f0: 7a 0a e0 ff 00 00 00 00      	stdw [r10 - 0x20], 0x0
    d2f8: bf 71 00 00 00 00 00 00      	mov64 r1, r7
    d300: 55 07 5a 00 18 00 00 00      	jne r7, 0x18, +0x5a <entrypoint+0xcdb0>
    d308: 71 01 58 00 00 00 00 00      	ldxb r1, [r0 + 0x58]
    d310: 79 a2 b8 f7 00 00 00 00      	ldxdw r2, [r10 - 0x848]
    d318: 57 02 00 00 ff 00 00 00      	and64 r2, 0xff
    d320: 3d 12 36 fb 00 00 00 00      	jge r2, r1, -0x4ca <entrypoint+0xa4b0>
    d328: b7 08 00 00 07 00 00 00      	mov64 r8, 0x7
    d330: 05 00 c1 f6 00 00 00 00      	ja -0x93f <entrypoint+0x8118>
    d338: 71 02 59 00 00 00 00 00      	ldxb r2, [r0 + 0x59]
    d340: b7 05 00 00 01 00 00 00      	mov64 r5, 0x1
    d348: 7b 2a a0 f7 00 00 00 00      	stxdw [r10 - 0x860], r2
    d350: 55 02 01 00 00 00 00 00      	jne r2, 0x0, +0x1 <entrypoint+0xcb38>
    d358: b7 05 00 00 00 00 00 00      	mov64 r5, 0x0
    d360: 79 a2 a0 f7 00 00 00 00      	ldxdw r2, [r10 - 0x860]
    d368: 25 02 2b 01 0b 00 00 00      	jgt r2, 0xb, +0x12b <entrypoint+0xd4a0>
    d370: 79 a2 b0 f7 00 00 00 00      	ldxdw r2, [r10 - 0x850]
    d378: 0f 12 00 00 00 00 00 00      	add64 r2, r1
    d380: 7b 2a b0 f7 00 00 00 00      	stxdw [r10 - 0x850], r2
    d388: 79 a1 a0 f7 00 00 00 00      	ldxdw r1, [r10 - 0x860]
    d390: 67 01 00 00 05 00 00 00      	lsh64 r1, 0x5
    d398: 67 05 00 00 05 00 00 00      	lsh64 r5, 0x5
    d3a0: bf 02 00 00 00 00 00 00      	mov64 r2, r0
    d3a8: 07 02 00 00 5b 00 00 00      	add64 r2, 0x5b
    d3b0: 7b 2a 90 f7 00 00 00 00      	stxdw [r10 - 0x870], r2
    d3b8: 0f 52 00 00 00 00 00 00      	add64 r2, r5
    d3c0: 7b 2a 88 f7 00 00 00 00      	stxdw [r10 - 0x878], r2
    d3c8: 1f 15 00 00 00 00 00 00      	sub64 r5, r1
    d3d0: 7b 5a 98 f7 00 00 00 00      	stxdw [r10 - 0x868], r5
    d3d8: b7 01 00 00 00 00 00 00      	mov64 r1, 0x0
    d3e0: 7b 1a a8 f7 00 00 00 00      	stxdw [r10 - 0x858], r1
    d3e8: bf a1 00 00 00 00 00 00      	mov64 r1, r10
    d3f0: 07 01 00 00 08 f8 ff ff      	add64 r1, -0x7f8
    d3f8: 05 00 06 00 00 00 00 00      	ja +0x6 <entrypoint+0xcc08>
    d400: 67 02 00 00 03 00 00 00      	lsh64 r2, 0x3
    d408: 79 a5 c8 f7 00 00 00 00      	ldxdw r5, [r10 - 0x838]
    d410: bf 51 00 00 00 00 00 00      	mov64 r1, r5
    d418: 0f 21 00 00 00 00 00 00      	add64 r1, r2
    d420: 79 a2 b0 f7 00 00 00 00      	ldxdw r2, [r10 - 0x850]
    d428: 1d 25 2f ff 00 00 00 00      	jeq r5, r2, -0xd1 <entrypoint+0xc580>
    d430: 79 a8 c8 f7 00 00 00 00      	ldxdw r8, [r10 - 0x838]
    d438: 7b 1a c8 f7 00 00 00 00      	stxdw [r10 - 0x838], r1
    d440: 79 a1 a0 f7 00 00 00 00      	ldxdw r1, [r10 - 0x860]
    d448: 15 01 29 00 00 00 00 00      	jeq r1, 0x0, +0x29 <entrypoint+0xcd70>
    d450: b7 02 00 00 00 00 00 00      	mov64 r2, 0x0
    d458: 79 85 00 00 00 00 00 00      	ldxdw r5, [r8 + 0x0]
    d460: 79 51 08 00 00 00 00 00      	ldxdw r1, [r5 + 0x8]
    d468: 7b 1a b8 f7 00 00 00 00      	stxdw [r10 - 0x848], r1
    d470: 79 a9 88 f7 00 00 00 00      	ldxdw r9, [r10 - 0x878]
    d478: 79 a8 98 f7 00 00 00 00      	ldxdw r8, [r10 - 0x868]
    d480: 79 a1 90 f7 00 00 00 00      	ldxdw r1, [r10 - 0x870]
    d488: 7b 1a c0 f7 00 00 00 00      	stxdw [r10 - 0x840], r1
    d490: 05 00 05 00 00 00 00 00      	ja +0x5 <entrypoint+0xcc98>
    d498: 79 a9 c0 f7 00 00 00 00      	ldxdw r9, [r10 - 0x840]
    d4a0: 07 09 00 00 20 00 00 00      	add64 r9, 0x20
    d4a8: 07 02 00 00 01 00 00 00      	add64 r2, 0x1
    d4b0: 07 08 00 00 20 00 00 00      	add64 r8, 0x20
    d4b8: 15 08 1b 00 20 00 00 00      	jeq r8, 0x20, +0x1b <entrypoint+0xcd70>
    d4c0: 79 a1 c0 f7 00 00 00 00      	ldxdw r1, [r10 - 0x840]
    d4c8: 7b 9a c0 f7 00 00 00 00      	stxdw [r10 - 0x840], r9
    d4d0: 79 17 00 00 00 00 00 00      	ldxdw r7, [r1 + 0x0]
    d4d8: 79 a9 b8 f7 00 00 00 00      	ldxdw r9, [r10 - 0x848]
    d4e0: 5d 97 f6 ff 00 00 00 00      	jne r7, r9, -0xa <entrypoint+0xcc70>
    d4e8: 79 57 10 00 00 00 00 00      	ldxdw r7, [r5 + 0x10]
    d4f0: 79 19 08 00 00 00 00 00      	ldxdw r9, [r1 + 0x8]
    d4f8: 5d 79 f3 ff 00 00 00 00      	jne r9, r7, -0xd <entrypoint+0xcc70>
    d500: 79 57 18 00 00 00 00 00      	ldxdw r7, [r5 + 0x18]
    d508: 79 19 10 00 00 00 00 00      	ldxdw r9, [r1 + 0x10]
    d510: 5d 79 f0 ff 00 00 00 00      	jne r9, r7, -0x10 <entrypoint+0xcc70>
    d518: 79 57 20 00 00 00 00 00      	ldxdw r7, [r5 + 0x20]
    d520: 79 11 18 00 00 00 00 00      	ldxdw r1, [r1 + 0x18]
    d528: 5d 71 ed ff 00 00 00 00      	jne r1, r7, -0x13 <entrypoint+0xcc70>
    d530: 25 02 35 02 0a 00 00 00      	jgt r2, 0xa, +0x235 <entrypoint+0xdeb8>
    d538: bf a1 00 00 00 00 00 00      	mov64 r1, r10
    d540: 07 01 00 00 e0 ff ff ff      	add64 r1, -0x20
    d548: 0f 21 00 00 00 00 00 00      	add64 r1, r2
    d550: 71 17 00 00 00 00 00 00      	ldxb r7, [r1 + 0x0]
    d558: 55 07 e7 ff 00 00 00 00      	jne r7, 0x0, -0x19 <entrypoint+0xcc70>
    d560: 71 57 01 00 00 00 00 00      	ldxb r7, [r5 + 0x1]
    d568: 15 07 0b 00 00 00 00 00      	jeq r7, 0x0, +0xb <entrypoint+0xcda0>
    d570: 72 01 00 00 01 00 00 00      	stb [r1 + 0x0], 0x1
    d578: 79 a1 a8 f7 00 00 00 00      	ldxdw r1, [r10 - 0x858]
    d580: 07 01 00 00 01 00 00 00      	add64 r1, 0x1
    d588: 7b 1a a8 f7 00 00 00 00      	stxdw [r10 - 0x858], r1
    d590: 05 00 e0 ff 00 00 00 00      	ja -0x20 <entrypoint+0xcc70>
    d598: b7 02 00 00 01 00 00 00      	mov64 r2, 0x1
    d5a0: 79 a1 c8 f7 00 00 00 00      	ldxdw r1, [r10 - 0x838]
    d5a8: 79 a5 b0 f7 00 00 00 00      	ldxdw r5, [r10 - 0x850]
    d5b0: 5d 51 c9 ff 00 00 00 00      	jne r1, r5, -0x37 <entrypoint+0xcbd8>
    d5b8: b7 02 00 00 00 00 00 00      	mov64 r2, 0x0
    d5c0: 05 00 c7 ff 00 00 00 00      	ja -0x39 <entrypoint+0xcbd8>
    d5c8: b7 06 00 00 07 00 00 00      	mov64 r6, 0x7
    d5d0: 05 00 39 f4 00 00 00 00      	ja -0xbc7 <entrypoint+0x6f78>
    d5d8: 71 02 59 00 00 00 00 00      	ldxb r2, [r0 + 0x59]
    d5e0: b7 06 00 00 01 00 00 00      	mov64 r6, 0x1
    d5e8: 7b 2a b0 f7 00 00 00 00      	stxdw [r10 - 0x850], r2
    d5f0: 55 02 01 00 00 00 00 00      	jne r2, 0x0, +0x1 <entrypoint+0xcdd8>
    d5f8: b7 06 00 00 00 00 00 00      	mov64 r6, 0x0
    d600: 79 a2 b0 f7 00 00 00 00      	ldxdw r2, [r10 - 0x850]
    d608: 25 02 dd 01 0b 00 00 00      	jgt r2, 0xb, +0x1dd <entrypoint+0xdcd0>
    d610: 79 a2 c0 f7 00 00 00 00      	ldxdw r2, [r10 - 0x840]
    d618: 0f 12 00 00 00 00 00 00      	add64 r2, r1
    d620: 7b 2a c0 f7 00 00 00 00      	stxdw [r10 - 0x840], r2
    d628: 79 a1 b0 f7 00 00 00 00      	ldxdw r1, [r10 - 0x850]
    d630: 67 01 00 00 05 00 00 00      	lsh64 r1, 0x5
    d638: 67 06 00 00 05 00 00 00      	lsh64 r6, 0x5
    d640: bf 02 00 00 00 00 00 00      	mov64 r2, r0
    d648: 07 02 00 00 5b 00 00 00      	add64 r2, 0x5b
    d650: 7b 2a a0 f7 00 00 00 00      	stxdw [r10 - 0x860], r2
    d658: 0f 62 00 00 00 00 00 00      	add64 r2, r6
    d660: 7b 2a 98 f7 00 00 00 00      	stxdw [r10 - 0x868], r2
    d668: 1f 16 00 00 00 00 00 00      	sub64 r6, r1
    d670: 7b 6a a8 f7 00 00 00 00      	stxdw [r10 - 0x858], r6
    d678: b7 01 00 00 00 00 00 00      	mov64 r1, 0x0
    d680: 7b 1a b8 f7 00 00 00 00      	stxdw [r10 - 0x848], r1
    d688: bf a1 00 00 00 00 00 00      	mov64 r1, r10
    d690: 07 01 00 00 08 f8 ff ff      	add64 r1, -0x7f8
    d698: 05 00 06 00 00 00 00 00      	ja +0x6 <entrypoint+0xcea8>
    d6a0: 67 02 00 00 03 00 00 00      	lsh64 r2, 0x3
    d6a8: 79 a6 d8 f7 00 00 00 00      	ldxdw r6, [r10 - 0x828]
    d6b0: bf 61 00 00 00 00 00 00      	mov64 r1, r6
    d6b8: 0f 21 00 00 00 00 00 00      	add64 r1, r2
    d6c0: 79 a2 c0 f7 00 00 00 00      	ldxdw r2, [r10 - 0x840]
    d6c8: 1d 26 87 ff 00 00 00 00      	jeq r6, r2, -0x79 <entrypoint+0xcae0>
    d6d0: 79 a6 d8 f7 00 00 00 00      	ldxdw r6, [r10 - 0x828]
    d6d8: 7b 1a d8 f7 00 00 00 00      	stxdw [r10 - 0x828], r1
    d6e0: 79 a1 b0 f7 00 00 00 00      	ldxdw r1, [r10 - 0x850]
    d6e8: 15 01 2a 00 00 00 00 00      	jeq r1, 0x0, +0x2a <entrypoint+0xd018>
    d6f0: b7 02 00 00 00 00 00 00      	mov64 r2, 0x0
    d6f8: 79 61 00 00 00 00 00 00      	ldxdw r1, [r6 + 0x0]
    d700: bf 17 00 00 00 00 00 00      	mov64 r7, r1
    d708: 79 11 08 00 00 00 00 00      	ldxdw r1, [r1 + 0x8]
    d710: 7b 1a c8 f7 00 00 00 00      	stxdw [r10 - 0x838], r1
    d718: 79 a6 98 f7 00 00 00 00      	ldxdw r6, [r10 - 0x868]
    d720: 79 a1 a8 f7 00 00 00 00      	ldxdw r1, [r10 - 0x858]
    d728: 79 a8 a0 f7 00 00 00 00      	ldxdw r8, [r10 - 0x860]
    d730: 7b 8a d0 f7 00 00 00 00      	stxdw [r10 - 0x830], r8
    d738: 05 00 09 00 00 00 00 00      	ja +0x9 <entrypoint+0xcf60>
    d740: 72 06 00 00 01 00 00 00      	stb [r6 + 0x0], 0x1
    d748: 79 a6 b8 f7 00 00 00 00      	ldxdw r6, [r10 - 0x848]
    d750: 07 06 00 00 01 00 00 00      	add64 r6, 0x1
    d758: 7b 6a b8 f7 00 00 00 00      	stxdw [r10 - 0x848], r6
    d760: 79 a6 d0 f7 00 00 00 00      	ldxdw r6, [r10 - 0x830]
    d768: 07 06 00 00 20 00 00 00      	add64 r6, 0x20
    d770: 07 02 00 00 01 00 00 00      	add64 r2, 0x1
    d778: 07 01 00 00 20 00 00 00      	add64 r1, 0x20
    d780: 15 01 17 00 20 00 00 00      	jeq r1, 0x20, +0x17 <entrypoint+0xd018>
    d788: 79 a8 d0 f7 00 00 00 00      	ldxdw r8, [r10 - 0x830]
    d790: 7b 6a d0 f7 00 00 00 00      	stxdw [r10 - 0x830], r6
    d798: 79 86 00 00 00 00 00 00      	ldxdw r6, [r8 + 0x0]
    d7a0: 79 a9 c8 f7 00 00 00 00      	ldxdw r9, [r10 - 0x838]
    d7a8: 5d 96 f6 ff 00 00 00 00      	jne r6, r9, -0xa <entrypoint+0xcf38>
    d7b0: 79 76 10 00 00 00 00 00      	ldxdw r6, [r7 + 0x10]
    d7b8: 79 89 08 00 00 00 00 00      	ldxdw r9, [r8 + 0x8]
    d7c0: 5d 69 f3 ff 00 00 00 00      	jne r9, r6, -0xd <entrypoint+0xcf38>
    d7c8: 79 76 18 00 00 00 00 00      	ldxdw r6, [r7 + 0x18]
    d7d0: 79 89 10 00 00 00 00 00      	ldxdw r9, [r8 + 0x10]
    d7d8: 5d 69 f0 ff 00 00 00 00      	jne r9, r6, -0x10 <entrypoint+0xcf38>
    d7e0: 79 76 20 00 00 00 00 00      	ldxdw r6, [r7 + 0x20]
    d7e8: 79 88 18 00 00 00 00 00      	ldxdw r8, [r8 + 0x18]
    d7f0: 5d 68 ed ff 00 00 00 00      	jne r8, r6, -0x13 <entrypoint+0xcf38>
    d7f8: 25 02 dc 01 0a 00 00 00      	jgt r2, 0xa, +0x1dc <entrypoint+0xdeb8>
    d800: bf a6 00 00 00 00 00 00      	mov64 r6, r10
    d808: 07 06 00 00 e0 ff ff ff      	add64 r6, -0x20
    d810: 0f 26 00 00 00 00 00 00      	add64 r6, r2
    d818: 71 68 00 00 00 00 00 00      	ldxb r8, [r6 + 0x0]
    d820: 55 08 e7 ff 00 00 00 00      	jne r8, 0x0, -0x19 <entrypoint+0xcf38>
    d828: 71 78 01 00 00 00 00 00      	ldxb r8, [r7 + 0x1]
    d830: 55 08 e1 ff 00 00 00 00      	jne r8, 0x0, -0x1f <entrypoint+0xcf18>
    d838: 05 00 5d ff 00 00 00 00      	ja -0xa3 <entrypoint+0xcb00>
    d840: b7 02 00 00 01 00 00 00      	mov64 r2, 0x1
    d848: 79 a1 d8 f7 00 00 00 00      	ldxdw r1, [r10 - 0x828]
    d850: 79 a6 c0 f7 00 00 00 00      	ldxdw r6, [r10 - 0x840]
    d858: 5d 61 c8 ff 00 00 00 00      	jne r1, r6, -0x38 <entrypoint+0xce78>
    d860: b7 02 00 00 00 00 00 00      	mov64 r2, 0x0
    d868: 05 00 c6 ff 00 00 00 00      	ja -0x3a <entrypoint+0xce78>
    d870: b7 09 00 00 00 00 00 00      	mov64 r9, 0x0
    d878: 55 01 3e f9 00 00 00 00      	jne r1, 0x0, -0x6c2 <entrypoint+0x9a48>
    d880: 05 00 b9 f9 00 00 00 00      	ja -0x647 <entrypoint+0x9e28>
    d888: 79 a1 18 f7 00 00 00 00      	ldxdw r1, [r10 - 0x8e8]
    d890: b7 02 00 00 0b 00 00 00      	mov64 r2, 0xb
    d898: 18 03 00 00 e8 9b 01 00 00 00 00 00 00 00 00 00      	lddw r3, 0x19be8
    d8a8: 85 10 00 00 7d 13 00 00      	call 0x137d
    d8b0: 71 14 2a 7b 00 00 00 00      	ldxb r4, [r1 + 0x7b2a]
    d8b8: 55 04 03 00 01 00 00 00      	jne r4, 0x1, +0x3 <entrypoint+0xd0b0>
    d8c0: 71 13 28 7b 00 00 00 00      	ldxb r3, [r1 + 0x7b28]
    d8c8: 15 03 f9 fb 00 00 00 00      	jeq r3, 0x0, -0x407 <entrypoint+0xb070>
    d8d0: 05 00 18 fd 00 00 00 00      	ja -0x2e8 <entrypoint+0xb970>
    d8d8: b7 07 00 00 00 00 00 00      	mov64 r7, 0x0
    d8e0: 15 04 66 fa 00 00 00 00      	jeq r4, 0x0, -0x59a <entrypoint+0xa3f0>
    d8e8: b7 06 00 00 03 00 00 00      	mov64 r6, 0x3
    d8f0: 05 00 db f8 00 00 00 00      	ja -0x725 <entrypoint+0x97a8>
    d8f8: 79 a1 00 f7 00 00 00 00      	ldxdw r1, [r10 - 0x900]
    d900: b7 02 00 00 0b 00 00 00      	mov64 r2, 0xb
    d908: 18 03 00 00 e8 9b 01 00 00 00 00 00 00 00 00 00      	lddw r3, 0x19be8
    d918: 85 10 00 00 6f 13 00 00      	call 0x136f
    d920: bf 21 00 00 00 00 00 00      	mov64 r1, r2
    d928: b7 02 00 00 0b 00 00 00      	mov64 r2, 0xb
    d930: 18 03 00 00 e8 9b 01 00 00 00 00 00 00 00 00 00      	lddw r3, 0x19be8
    d940: 85 10 00 00 6a 13 00 00      	call 0x136a
    d948: 71 01 5a 00 00 00 00 00      	ldxb r1, [r0 + 0x5a]
    d950: 15 01 5a 00 01 00 00 00      	jeq r1, 0x1, +0x5a <entrypoint+0xd400>
    d958: 55 01 57 fe 00 00 00 00      	jne r1, 0x0, -0x1a9 <entrypoint+0xc3f0>
    d960: b7 08 00 00 09 00 00 00      	mov64 r8, 0x9
    d968: b7 09 00 00 00 00 00 00      	mov64 r9, 0x0
    d970: 05 00 f9 f5 00 00 00 00      	ja -0xa07 <entrypoint+0x8118>
    d978: 55 01 4d 00 00 00 00 00      	jne r1, 0x0, +0x4d <entrypoint+0xd3c0>
    d980: b7 06 00 00 09 00 00 00      	mov64 r6, 0x9
    d988: 79 a9 b0 f6 00 00 00 00      	ldxdw r9, [r10 - 0x950]
    d990: 05 00 c1 f3 00 00 00 00      	ja -0xc3f <entrypoint+0x6f78>
    d998: 55 01 4d 00 00 00 00 00      	jne r1, 0x0, +0x4d <entrypoint+0xd3e0>
    d9a0: b7 06 00 00 09 00 00 00      	mov64 r6, 0x9
    d9a8: 79 a9 a8 f6 00 00 00 00      	ldxdw r9, [r10 - 0x958]
    d9b0: 05 00 bd f3 00 00 00 00      	ja -0xc43 <entrypoint+0x6f78>
    d9b8: 79 01 30 00 00 00 00 00      	ldxdw r1, [r0 + 0x30]
    d9c0: 18 02 00 00 18 42 5d bc 00 00 00 00 e4 6c cd da      	lddw r2, -0x2532931b43a2bde8
    d9d0: 5d 21 08 00 00 00 00 00      	jne r1, r2, +0x8 <entrypoint+0xd1f0>
    d9d8: 79 01 38 00 00 00 00 00      	ldxdw r1, [r0 + 0x38]
    d9e0: 18 02 00 00 b6 1a fc 4d 00 00 00 00 83 b9 0d 27      	lddw r2, 0x270db9834dfc1ab6
    d9f0: 5d 21 04 00 00 00 00 00      	jne r1, r2, +0x4 <entrypoint+0xd1f0>
    d9f8: 79 01 40 00 00 00 00 00      	ldxdw r1, [r0 + 0x40]
    da00: 18 02 00 00 fe bd f9 28 00 00 00 00 d8 a1 8b fc      	lddw r2, -0x3745e27d7064202
    da10: 1d 21 32 01 00 00 00 00      	jeq r1, r2, +0x132 <entrypoint+0xdb80>
    da18: 71 01 01 00 00 00 00 00      	ldxb r1, [r0 + 0x1]
    da20: 15 01 dd 00 00 00 00 00      	jeq r1, 0x0, +0xdd <entrypoint+0xd8e8>
    da28: b7 06 00 00 01 00 00 00      	mov64 r6, 0x1
    da30: 79 a1 e0 f7 00 00 00 00      	ldxdw r1, [r10 - 0x820]
    da38: 79 11 d1 00 00 00 00 00      	ldxdw r1, [r1 + 0xd1]
    da40: b7 08 00 00 00 00 00 00      	mov64 r8, 0x0
    da48: 79 a2 d8 f7 00 00 00 00      	ldxdw r2, [r10 - 0x828]
    da50: ad 21 dc f5 00 00 00 00      	jlt r1, r2, -0xa24 <entrypoint+0x8110>
    da58: 79 a2 e0 f7 00 00 00 00      	ldxdw r2, [r10 - 0x820]
    da60: 1d 32 0a 00 00 00 00 00      	jeq r2, r3, +0xa <entrypoint+0xd290>
    da68: bf 12 00 00 00 00 00 00      	mov64 r2, r1
    da70: 79 a0 d8 f7 00 00 00 00      	ldxdw r0, [r10 - 0x828]
    da78: 1f 02 00 00 00 00 00 00      	sub64 r2, r0
    da80: 79 a4 e0 f7 00 00 00 00      	ldxdw r4, [r10 - 0x820]
    da88: 7b 24 d1 00 00 00 00 00      	stxdw [r4 + 0xd1], r2
    da90: 5d 01 02 00 00 00 00 00      	jne r1, r0, +0x2 <entrypoint+0xd280>
    da98: 79 a1 e0 f7 00 00 00 00      	ldxdw r1, [r10 - 0x820]
    daa0: 72 01 a0 00 00 00 00 00      	stb [r1 + 0xa0], 0x0
    daa8: 79 a1 d8 f7 00 00 00 00      	ldxdw r1, [r10 - 0x828]
    dab0: 55 01 7d fe 00 00 00 00      	jne r1, 0x0, -0x183 <entrypoint+0xc678>
    dab8: 79 a1 e0 f7 00 00 00 00      	ldxdw r1, [r10 - 0x820]
    dac0: 79 11 28 00 00 00 00 00      	ldxdw r1, [r1 + 0x28]
    dac8: 18 02 00 00 06 dd f6 e1 00 00 00 00 d7 65 a1 93      	lddw r2, -0x6c5e9a281e0922fa
    dad8: 5d 21 94 00 00 00 00 00      	jne r1, r2, +0x94 <entrypoint+0xd758>
    dae0: 79 a1 e0 f7 00 00 00 00      	ldxdw r1, [r10 - 0x820]
    dae8: 79 11 30 00 00 00 00 00      	ldxdw r1, [r1 + 0x30]
    daf0: 18 02 00 00 d9 cb e1 46 00 00 00 00 ce eb 79 ac      	lddw r2, -0x53861431b91e3427
    db00: 5d 21 8f 00 00 00 00 00      	jne r1, r2, +0x8f <entrypoint+0xd758>
    db08: 79 a1 e0 f7 00 00 00 00      	ldxdw r1, [r10 - 0x820]
    db10: 79 11 38 00 00 00 00 00      	ldxdw r1, [r1 + 0x38]
    db18: 18 02 00 00 1c b4 85 ed 00 00 00 00 5f 5b 37 91      	lddw r2, -0x6ec8a4a0127a4be4
    db28: 5d 21 8a 00 00 00 00 00      	jne r1, r2, +0x8a <entrypoint+0xd758>
    db30: 79 a1 e0 f7 00 00 00 00      	ldxdw r1, [r10 - 0x820]
    db38: 79 11 40 00 00 00 00 00      	ldxdw r1, [r1 + 0x40]
    db40: 18 02 00 00 3a 8c f5 85 00 00 00 00 7e ff 00 a9      	lddw r2, -0x56ff00817a0a73c6
    db50: 5d 21 85 00 00 00 00 00      	jne r1, r2, +0x85 <entrypoint+0xd758>
    db58: 79 31 28 00 00 00 00 00      	ldxdw r1, [r3 + 0x28]
    db60: 18 02 00 00 06 dd f6 e1 00 00 00 00 d7 65 a1 93      	lddw r2, -0x6c5e9a281e0922fa
    db70: 5d 21 81 00 00 00 00 00      	jne r1, r2, +0x81 <entrypoint+0xd758>
    db78: 79 31 30 00 00 00 00 00      	ldxdw r1, [r3 + 0x30]
    db80: 18 02 00 00 d9 cb e1 46 00 00 00 00 ce eb 79 ac      	lddw r2, -0x53861431b91e3427
    db90: 5d 21 7d 00 00 00 00 00      	jne r1, r2, +0x7d <entrypoint+0xd758>
    db98: 79 31 38 00 00 00 00 00      	ldxdw r1, [r3 + 0x38]
    dba0: 18 02 00 00 1c b4 85 ed 00 00 00 00 5f 5b 37 91      	lddw r2, -0x6ec8a4a0127a4be4
    dbb0: 5d 21 79 00 00 00 00 00      	jne r1, r2, +0x79 <entrypoint+0xd758>
    dbb8: 79 31 40 00 00 00 00 00      	ldxdw r1, [r3 + 0x40]
    dbc0: 18 02 00 00 3a 8c f5 85 00 00 00 00 7e ff 00 a9      	lddw r2, -0x56ff00817a0a73c6
    dbd0: 5d 21 75 00 00 00 00 00      	jne r1, r2, +0x75 <entrypoint+0xd758>
    dbd8: b7 08 00 00 1a 00 00 00      	mov64 r8, 0x1a
    dbe0: 05 00 aa f5 00 00 00 00      	ja -0xa56 <entrypoint+0x8110>
    dbe8: 18 01 00 00 00 00 00 00 00 00 00 00 ff ff ff ff      	lddw r1, -0x100000000
    dbf8: 79 a9 b0 f6 00 00 00 00      	ldxdw r9, [r10 - 0x950]
    dc00: 05 00 65 f9 00 00 00 00      	ja -0x69b <entrypoint+0x9f08>
    dc08: 18 01 00 00 00 00 00 00 00 00 00 00 ff ff ff ff      	lddw r1, -0x100000000
    dc18: 79 a9 a8 f6 00 00 00 00      	ldxdw r9, [r10 - 0x958]
    dc20: 05 00 61 f9 00 00 00 00      	ja -0x69f <entrypoint+0x9f08>
    dc28: b7 01 00 00 00 00 00 00      	mov64 r1, 0x0
    dc30: 7b 1a b8 f7 00 00 00 00      	stxdw [r10 - 0x848], r1
    dc38: 67 07 00 00 03 00 00 00      	lsh64 r7, 0x3
    dc40: bf a1 00 00 00 00 00 00      	mov64 r1, r10
    dc48: 07 01 00 00 e8 f7 ff ff      	add64 r1, -0x818
    dc50: 7b 1a c0 f7 00 00 00 00      	stxdw [r10 - 0x840], r1
    dc58: 62 0a e7 ff 00 00 00 00      	stw [r10 - 0x19], 0x0
    dc60: 7a 0a e0 ff 00 00 00 00      	stdw [r10 - 0x20], 0x0
    dc68: bf 71 00 00 00 00 00 00      	mov64 r1, r7
    dc70: 55 07 0f 00 18 00 00 00      	jne r7, 0x18, +0xf <entrypoint+0xd4c8>
    dc78: 71 01 58 00 00 00 00 00      	ldxb r1, [r0 + 0x58]
    dc80: 79 a2 b8 f7 00 00 00 00      	ldxdw r2, [r10 - 0x848]
    dc88: 57 02 00 00 ff 00 00 00      	and64 r2, 0xff
    dc90: 3d 12 3a fc 00 00 00 00      	jge r2, r1, -0x3c6 <entrypoint+0xb640>
    dc98: 05 00 d1 fe 00 00 00 00      	ja -0x12f <entrypoint+0xcb00>
    dca0: 79 a1 b8 f7 00 00 00 00      	ldxdw r1, [r10 - 0x848]
    dca8: b7 02 00 00 0b 00 00 00      	mov64 r2, 0xb
    dcb0: 18 03 00 00 e8 9b 01 00 00 00 00 00 00 00 00 00      	lddw r3, 0x19be8
    dcc0: 85 10 00 00 fa 12 00 00      	call 0x12fa
    dcc8: 79 a1 a0 f7 00 00 00 00      	ldxdw r1, [r10 - 0x860]
    dcd0: b7 02 00 00 0b 00 00 00      	mov64 r2, 0xb
    dcd8: 18 03 00 00 e8 9b 01 00 00 00 00 00 00 00 00 00      	lddw r3, 0x19be8
    dce8: 85 10 00 00 f5 12 00 00      	call 0x12f5
    dcf0: 71 02 59 00 00 00 00 00      	ldxb r2, [r0 + 0x59]
    dcf8: b7 06 00 00 01 00 00 00      	mov64 r6, 0x1
    dd00: 7b 2a b0 f7 00 00 00 00      	stxdw [r10 - 0x850], r2
    dd08: 55 02 01 00 00 00 00 00      	jne r2, 0x0, +0x1 <entrypoint+0xd4f0>
    dd10: b7 06 00 00 00 00 00 00      	mov64 r6, 0x0
    dd18: 79 a2 b0 f7 00 00 00 00      	ldxdw r2, [r10 - 0x850]
    dd20: 25 02 fa 00 0b 00 00 00      	jgt r2, 0xb, +0xfa <entrypoint+0xdcd0>
    dd28: 79 a2 c0 f7 00 00 00 00      	ldxdw r2, [r10 - 0x840]
    dd30: 0f 12 00 00 00 00 00 00      	add64 r2, r1
    dd38: 7b 2a c0 f7 00 00 00 00      	stxdw [r10 - 0x840], r2
    dd40: 79 a1 b0 f7 00 00 00 00      	ldxdw r1, [r10 - 0x850]
    dd48: 67 01 00 00 05 00 00 00      	lsh64 r1, 0x5
    dd50: 67 06 00 00 05 00 00 00      	lsh64 r6, 0x5
    dd58: bf 02 00 00 00 00 00 00      	mov64 r2, r0
    dd60: 07 02 00 00 5b 00 00 00      	add64 r2, 0x5b
    dd68: 7b 2a a0 f7 00 00 00 00      	stxdw [r10 - 0x860], r2
    dd70: 0f 62 00 00 00 00 00 00      	add64 r2, r6
    dd78: 7b 2a 98 f7 00 00 00 00      	stxdw [r10 - 0x868], r2
    dd80: 1f 16 00 00 00 00 00 00      	sub64 r6, r1
    dd88: 7b 6a a8 f7 00 00 00 00      	stxdw [r10 - 0x858], r6
    dd90: b7 01 00 00 00 00 00 00      	mov64 r1, 0x0
    dd98: 7b 1a b8 f7 00 00 00 00      	stxdw [r10 - 0x848], r1
    dda0: bf a1 00 00 00 00 00 00      	mov64 r1, r10
    dda8: 07 01 00 00 08 f8 ff ff      	add64 r1, -0x7f8
    ddb0: 05 00 06 00 00 00 00 00      	ja +0x6 <entrypoint+0xd5c0>
    ddb8: 67 02 00 00 03 00 00 00      	lsh64 r2, 0x3
    ddc0: 79 a6 d8 f7 00 00 00 00      	ldxdw r6, [r10 - 0x828]
    ddc8: bf 61 00 00 00 00 00 00      	mov64 r1, r6
    ddd0: 0f 21 00 00 00 00 00 00      	add64 r1, r2
    ddd8: 79 a2 c0 f7 00 00 00 00      	ldxdw r2, [r10 - 0x840]
    dde0: 1d 26 d2 ff 00 00 00 00      	jeq r6, r2, -0x2e <entrypoint+0xd450>
    dde8: 79 a8 d8 f7 00 00 00 00      	ldxdw r8, [r10 - 0x828]
    ddf0: 7b 1a d8 f7 00 00 00 00      	stxdw [r10 - 0x828], r1
    ddf8: 79 a1 b0 f7 00 00 00 00      	ldxdw r1, [r10 - 0x850]
    de00: 15 01 29 00 00 00 00 00      	jeq r1, 0x0, +0x29 <entrypoint+0xd728>
    de08: b7 02 00 00 00 00 00 00      	mov64 r2, 0x0
    de10: 79 86 00 00 00 00 00 00      	ldxdw r6, [r8 + 0x0]
    de18: 79 61 08 00 00 00 00 00      	ldxdw r1, [r6 + 0x8]
    de20: 7b 1a c8 f7 00 00 00 00      	stxdw [r10 - 0x838], r1
    de28: 79 a9 98 f7 00 00 00 00      	ldxdw r9, [r10 - 0x868]
    de30: 79 a8 a8 f7 00 00 00 00      	ldxdw r8, [r10 - 0x858]
    de38: 79 a1 a0 f7 00 00 00 00      	ldxdw r1, [r10 - 0x860]
    de40: 7b 1a d0 f7 00 00 00 00      	stxdw [r10 - 0x830], r1
    de48: 05 00 09 00 00 00 00 00      	ja +0x9 <entrypoint+0xd670>
    de50: 72 01 00 00 01 00 00 00      	stb [r1 + 0x0], 0x1
    de58: 79 a1 b8 f7 00 00 00 00      	ldxdw r1, [r10 - 0x848]
    de60: 07 01 00 00 01 00 00 00      	add64 r1, 0x1
    de68: 7b 1a b8 f7 00 00 00 00      	stxdw [r10 - 0x848], r1
    de70: 79 a9 d0 f7 00 00 00 00      	ldxdw r9, [r10 - 0x830]
    de78: 07 09 00 00 20 00 00 00      	add64 r9, 0x20
    de80: 07 02 00 00 01 00 00 00      	add64 r2, 0x1
    de88: 07 08 00 00 20 00 00 00      	add64 r8, 0x20
    de90: 15 08 17 00 20 00 00 00      	jeq r8, 0x20, +0x17 <entrypoint+0xd728>
    de98: 79 a1 d0 f7 00 00 00 00      	ldxdw r1, [r10 - 0x830]
    dea0: 7b 9a d0 f7 00 00 00 00      	stxdw [r10 - 0x830], r9
    dea8: 79 19 00 00 00 00 00 00      	ldxdw r9, [r1 + 0x0]
    deb0: 79 a7 c8 f7 00 00 00 00      	ldxdw r7, [r10 - 0x838]
    deb8: 5d 79 f6 ff 00 00 00 00      	jne r9, r7, -0xa <entrypoint+0xd648>
    dec0: 79 67 10 00 00 00 00 00      	ldxdw r7, [r6 + 0x10]
    dec8: 79 19 08 00 00 00 00 00      	ldxdw r9, [r1 + 0x8]
    ded0: 5d 79 f3 ff 00 00 00 00      	jne r9, r7, -0xd <entrypoint+0xd648>
    ded8: 79 67 18 00 00 00 00 00      	ldxdw r7, [r6 + 0x18]
    dee0: 79 19 10 00 00 00 00 00      	ldxdw r9, [r1 + 0x10]
    dee8: 5d 79 f0 ff 00 00 00 00      	jne r9, r7, -0x10 <entrypoint+0xd648>
    def0: 79 69 20 00 00 00 00 00      	ldxdw r9, [r6 + 0x20]
    def8: 79 11 18 00 00 00 00 00      	ldxdw r1, [r1 + 0x18]
    df00: 5d 91 ed ff 00 00 00 00      	jne r1, r9, -0x13 <entrypoint+0xd648>
    df08: 25 02 fa 00 0a 00 00 00      	jgt r2, 0xa, +0xfa <entrypoint+0xdeb8>
    df10: bf a1 00 00 00 00 00 00      	mov64 r1, r10
    df18: 07 01 00 00 e0 ff ff ff      	add64 r1, -0x20
    df20: 0f 21 00 00 00 00 00 00      	add64 r1, r2
    df28: 71 19 00 00 00 00 00 00      	ldxb r9, [r1 + 0x0]
    df30: 55 09 e7 ff 00 00 00 00      	jne r9, 0x0, -0x19 <entrypoint+0xd648>
    df38: 71 69 01 00 00 00 00 00      	ldxb r9, [r6 + 0x1]
    df40: 55 09 e1 ff 00 00 00 00      	jne r9, 0x0, -0x1f <entrypoint+0xd628>
    df48: 05 00 7b fe 00 00 00 00      	ja -0x185 <entrypoint+0xcb00>
    df50: b7 02 00 00 01 00 00 00      	mov64 r2, 0x1
    df58: 79 a1 d8 f7 00 00 00 00      	ldxdw r1, [r10 - 0x828]
    df60: 79 a6 c0 f7 00 00 00 00      	ldxdw r6, [r10 - 0x840]
    df68: 5d 61 c9 ff 00 00 00 00      	jne r1, r6, -0x37 <entrypoint+0xd590>
    df70: b7 02 00 00 00 00 00 00      	mov64 r2, 0x0
    df78: 05 00 c7 ff 00 00 00 00      	ja -0x39 <entrypoint+0xd590>
    df80: b7 08 00 00 06 00 00 00      	mov64 r8, 0x6
    df88: 05 00 35 f5 00 00 00 00      	ja -0xacb <entrypoint+0x8110>
    df90: 79 a1 a8 f7 00 00 00 00      	ldxdw r1, [r10 - 0x858]
    df98: b7 02 00 00 0b 00 00 00      	mov64 r2, 0xb
    dfa0: 18 03 00 00 e8 9b 01 00 00 00 00 00 00 00 00 00      	lddw r3, 0x19be8
    dfb0: 85 10 00 00 9c 12 00 00      	call 0x129c
    dfb8: 79 a1 10 f7 00 00 00 00      	ldxdw r1, [r10 - 0x8f0]
    dfc0: b7 02 00 00 0b 00 00 00      	mov64 r2, 0xb
    dfc8: 18 03 00 00 e8 9b 01 00 00 00 00 00 00 00 00 00      	lddw r3, 0x19be8
    dfd8: 85 10 00 00 97 12 00 00      	call 0x1297
    dfe0: 71 01 5a 00 00 00 00 00      	ldxb r1, [r0 + 0x5a]
    dfe8: 15 01 16 00 01 00 00 00      	jeq r1, 0x1, +0x16 <entrypoint+0xd878>
    dff0: b7 06 00 00 00 00 00 00      	mov64 r6, 0x0
    dff8: 15 01 be f8 00 00 00 00      	jeq r1, 0x0, -0x742 <entrypoint+0x9dc8>
    e000: b7 08 00 00 03 00 00 00      	mov64 r8, 0x3
    e008: 05 00 25 f5 00 00 00 00      	ja -0xadb <entrypoint+0x8110>
    e010: b7 06 00 00 00 00 00 00      	mov64 r6, 0x0
    e018: b7 08 00 00 03 00 00 00      	mov64 r8, 0x3
    e020: 05 00 22 f5 00 00 00 00      	ja -0xade <entrypoint+0x8110>
    e028: 79 a1 b0 f7 00 00 00 00      	ldxdw r1, [r10 - 0x850]
    e030: b7 02 00 00 0b 00 00 00      	mov64 r2, 0xb
    e038: 18 03 00 00 00 9c 01 00 00 00 00 00 00 00 00 00      	lddw r3, 0x19c00
    e048: 85 10 00 00 5a 11 00 00      	call 0x115a
    e050: bf 61 00 00 00 00 00 00      	mov64 r1, r6
    e058: b7 02 00 00 0b 00 00 00      	mov64 r2, 0xb
    e060: 18 03 00 00 e8 9b 01 00 00 00 00 00 00 00 00 00      	lddw r3, 0x19be8
    e070: 85 10 00 00 84 12 00 00      	call 0x1284
    e078: 79 a1 30 f7 00 00 00 00      	ldxdw r1, [r10 - 0x8d0]
    e080: b7 02 00 00 0b 00 00 00      	mov64 r2, 0xb
    e088: 18 03 00 00 00 9c 01 00 00 00 00 00 00 00 00 00      	lddw r3, 0x19c00
    e098: 85 10 00 00 50 11 00 00      	call 0x1150
    e0a0: b7 01 00 00 00 00 00 00      	mov64 r1, 0x0
    e0a8: 7b 1a b8 f7 00 00 00 00      	stxdw [r10 - 0x848], r1
    e0b0: 67 09 00 00 03 00 00 00      	lsh64 r9, 0x3
    e0b8: bf a1 00 00 00 00 00 00      	mov64 r1, r10
    e0c0: 07 01 00 00 e8 f7 ff ff      	add64 r1, -0x818
    e0c8: 7b 1a c0 f7 00 00 00 00      	stxdw [r10 - 0x840], r1
    e0d0: 62 0a e7 ff 00 00 00 00      	stw [r10 - 0x19], 0x0
    e0d8: 7a 0a e0 ff 00 00 00 00      	stdw [r10 - 0x20], 0x0
    e0e0: bf 91 00 00 00 00 00 00      	mov64 r1, r9
    e0e8: 55 09 06 00 20 00 00 00      	jne r9, 0x20, +0x6 <entrypoint+0xd8f8>
    e0f0: 71 01 58 00 00 00 00 00      	ldxb r1, [r0 + 0x58]
    e0f8: 79 a2 b8 f7 00 00 00 00      	ldxdw r2, [r10 - 0x848]
    e100: 57 02 00 00 ff 00 00 00      	and64 r2, 0xff
    e108: 3d 12 ae fd 00 00 00 00      	jge r2, r1, -0x252 <entrypoint+0xc658>
    e110: b7 08 00 00 07 00 00 00      	mov64 r8, 0x7
    e118: 05 00 03 f5 00 00 00 00      	ja -0xafd <entrypoint+0x8110>
    e120: 71 02 59 00 00 00 00 00      	ldxb r2, [r0 + 0x59]
    e128: b7 06 00 00 01 00 00 00      	mov64 r6, 0x1
    e130: 7b 2a b0 f7 00 00 00 00      	stxdw [r10 - 0x850], r2
    e138: 55 02 01 00 00 00 00 00      	jne r2, 0x0, +0x1 <entrypoint+0xd920>
    e140: b7 06 00 00 00 00 00 00      	mov64 r6, 0x0
    e148: 79 a2 b0 f7 00 00 00 00      	ldxdw r2, [r10 - 0x850]
    e150: 25 02 74 00 0b 00 00 00      	jgt r2, 0xb, +0x74 <entrypoint+0xdcd0>
    e158: 79 a2 c0 f7 00 00 00 00      	ldxdw r2, [r10 - 0x840]
    e160: 0f 12 00 00 00 00 00 00      	add64 r2, r1
    e168: 7b 2a c0 f7 00 00 00 00      	stxdw [r10 - 0x840], r2
    e170: 79 a1 b0 f7 00 00 00 00      	ldxdw r1, [r10 - 0x850]
    e178: 67 01 00 00 05 00 00 00      	lsh64 r1, 0x5
    e180: 67 06 00 00 05 00 00 00      	lsh64 r6, 0x5
    e188: bf 02 00 00 00 00 00 00      	mov64 r2, r0
    e190: 07 02 00 00 5b 00 00 00      	add64 r2, 0x5b
    e198: 7b 2a a0 f7 00 00 00 00      	stxdw [r10 - 0x860], r2
    e1a0: 0f 62 00 00 00 00 00 00      	add64 r2, r6
    e1a8: 7b 2a 98 f7 00 00 00 00      	stxdw [r10 - 0x868], r2
    e1b0: 1f 16 00 00 00 00 00 00      	sub64 r6, r1
    e1b8: 7b 6a a8 f7 00 00 00 00      	stxdw [r10 - 0x858], r6
    e1c0: b7 01 00 00 00 00 00 00      	mov64 r1, 0x0
    e1c8: 7b 1a b8 f7 00 00 00 00      	stxdw [r10 - 0x848], r1
    e1d0: bf a1 00 00 00 00 00 00      	mov64 r1, r10
    e1d8: 07 01 00 00 10 f8 ff ff      	add64 r1, -0x7f0
    e1e0: 05 00 05 00 00 00 00 00      	ja +0x5 <entrypoint+0xd9e8>
    e1e8: 67 02 00 00 03 00 00 00      	lsh64 r2, 0x3
    e1f0: bf 71 00 00 00 00 00 00      	mov64 r1, r7
    e1f8: 0f 21 00 00 00 00 00 00      	add64 r1, r2
    e200: 79 a2 c0 f7 00 00 00 00      	ldxdw r2, [r10 - 0x840]
    e208: 1d 27 dc ff 00 00 00 00      	jeq r7, r2, -0x24 <entrypoint+0xd8c8>
    e210: bf 76 00 00 00 00 00 00      	mov64 r6, r7
    e218: bf 17 00 00 00 00 00 00      	mov64 r7, r1
    e220: 79 a1 b0 f7 00 00 00 00      	ldxdw r1, [r10 - 0x850]
    e228: 15 01 2a 00 00 00 00 00      	jeq r1, 0x0, +0x2a <entrypoint+0xdb58>
    e230: b7 02 00 00 00 00 00 00      	mov64 r2, 0x0
    e238: 79 61 00 00 00 00 00 00      	ldxdw r1, [r6 + 0x0]
    e240: bf 14 00 00 00 00 00 00      	mov64 r4, r1
    e248: 79 11 08 00 00 00 00 00      	ldxdw r1, [r1 + 0x8]
    e250: 7b 1a c8 f7 00 00 00 00      	stxdw [r10 - 0x838], r1
    e258: 79 a6 98 f7 00 00 00 00      	ldxdw r6, [r10 - 0x868]
    e260: 79 a1 a8 f7 00 00 00 00      	ldxdw r1, [r10 - 0x858]
    e268: 79 a8 a0 f7 00 00 00 00      	ldxdw r8, [r10 - 0x860]
    e270: 7b 8a d0 f7 00 00 00 00      	stxdw [r10 - 0x830], r8
    e278: 05 00 09 00 00 00 00 00      	ja +0x9 <entrypoint+0xdaa0>
    e280: 72 06 00 00 01 00 00 00      	stb [r6 + 0x0], 0x1
    e288: 79 a6 b8 f7 00 00 00 00      	ldxdw r6, [r10 - 0x848]
    e290: 07 06 00 00 01 00 00 00      	add64 r6, 0x1
    e298: 7b 6a b8 f7 00 00 00 00      	stxdw [r10 - 0x848], r6
    e2a0: 79 a6 d0 f7 00 00 00 00      	ldxdw r6, [r10 - 0x830]
    e2a8: 07 06 00 00 20 00 00 00      	add64 r6, 0x20
    e2b0: 07 02 00 00 01 00 00 00      	add64 r2, 0x1
    e2b8: 07 01 00 00 20 00 00 00      	add64 r1, 0x20
    e2c0: 15 01 17 00 20 00 00 00      	jeq r1, 0x20, +0x17 <entrypoint+0xdb58>
    e2c8: 79 a8 d0 f7 00 00 00 00      	ldxdw r8, [r10 - 0x830]
    e2d0: 7b 6a d0 f7 00 00 00 00      	stxdw [r10 - 0x830], r6
    e2d8: 79 86 00 00 00 00 00 00      	ldxdw r6, [r8 + 0x0]
    e2e0: 79 a9 c8 f7 00 00 00 00      	ldxdw r9, [r10 - 0x838]
    e2e8: 5d 96 f6 ff 00 00 00 00      	jne r6, r9, -0xa <entrypoint+0xda78>
    e2f0: 79 46 10 00 00 00 00 00      	ldxdw r6, [r4 + 0x10]
    e2f8: 79 89 08 00 00 00 00 00      	ldxdw r9, [r8 + 0x8]
    e300: 5d 69 f3 ff 00 00 00 00      	jne r9, r6, -0xd <entrypoint+0xda78>
    e308: 79 46 18 00 00 00 00 00      	ldxdw r6, [r4 + 0x18]
    e310: 79 89 10 00 00 00 00 00      	ldxdw r9, [r8 + 0x10]
    e318: 5d 69 f0 ff 00 00 00 00      	jne r9, r6, -0x10 <entrypoint+0xda78>
    e320: 79 46 20 00 00 00 00 00      	ldxdw r6, [r4 + 0x20]
    e328: 79 88 18 00 00 00 00 00      	ldxdw r8, [r8 + 0x18]
    e330: 5d 68 ed ff 00 00 00 00      	jne r8, r6, -0x13 <entrypoint+0xda78>
    e338: 25 02 74 00 0a 00 00 00      	jgt r2, 0xa, +0x74 <entrypoint+0xdeb8>
    e340: bf a6 00 00 00 00 00 00      	mov64 r6, r10
    e348: 07 06 00 00 e0 ff ff ff      	add64 r6, -0x20
    e350: 0f 26 00 00 00 00 00 00      	add64 r6, r2
    e358: 71 68 00 00 00 00 00 00      	ldxb r8, [r6 + 0x0]
    e360: 55 08 e7 ff 00 00 00 00      	jne r8, 0x0, -0x19 <entrypoint+0xda78>
    e368: 71 48 01 00 00 00 00 00      	ldxb r8, [r4 + 0x1]
    e370: 55 08 e1 ff 00 00 00 00      	jne r8, 0x0, -0x1f <entrypoint+0xda58>
    e378: 05 00 b2 ff 00 00 00 00      	ja -0x4e <entrypoint+0xd8e8>
    e380: b7 02 00 00 01 00 00 00      	mov64 r2, 0x1
    e388: 79 a1 c0 f7 00 00 00 00      	ldxdw r1, [r10 - 0x840]
    e390: 5d 17 ca ff 00 00 00 00      	jne r7, r1, -0x36 <entrypoint+0xd9c0>
    e398: b7 02 00 00 00 00 00 00      	mov64 r2, 0x0
    e3a0: 05 00 c8 ff 00 00 00 00      	ja -0x38 <entrypoint+0xd9c0>
    e3a8: 71 01 5a 00 00 00 00 00      	ldxb r1, [r0 + 0x5a]
    e3b0: 55 01 87 ff 01 00 00 00      	jne r1, 0x1, -0x79 <entrypoint+0xd7c8>
    e3b8: b7 01 00 00 00 00 00 00      	mov64 r1, 0x0
    e3c0: 7b 1a b8 f7 00 00 00 00      	stxdw [r10 - 0x848], r1
    e3c8: 67 09 00 00 03 00 00 00      	lsh64 r9, 0x3
    e3d0: bf a1 00 00 00 00 00 00      	mov64 r1, r10
    e3d8: 07 01 00 00 e8 f7 ff ff      	add64 r1, -0x818
    e3e0: 7b 1a c0 f7 00 00 00 00      	stxdw [r10 - 0x840], r1
    e3e8: 62 0a e7 ff 00 00 00 00      	stw [r10 - 0x19], 0x0
    e3f0: 7a 0a e0 ff 00 00 00 00      	stdw [r10 - 0x20], 0x0
    e3f8: bf 91 00 00 00 00 00 00      	mov64 r1, r9
    e400: 55 09 05 00 20 00 00 00      	jne r9, 0x20, +0x5 <entrypoint+0xdc08>
    e408: 71 01 58 00 00 00 00 00      	ldxb r1, [r0 + 0x58]
    e410: 79 a6 b8 f7 00 00 00 00      	ldxdw r6, [r10 - 0x848]
    e418: 57 06 00 00 ff 00 00 00      	and64 r6, 0xff
    e420: 3d 16 c0 fe 00 00 00 00      	jge r6, r1, -0x140 <entrypoint+0xd200>
    e428: 05 00 9c ff 00 00 00 00      	ja -0x64 <entrypoint+0xd8e8>
    e430: 71 06 59 00 00 00 00 00      	ldxb r6, [r0 + 0x59]
    e438: b7 02 00 00 01 00 00 00      	mov64 r2, 0x1
    e440: 7b 6a b0 f7 00 00 00 00      	stxdw [r10 - 0x850], r6
    e448: 55 06 01 00 00 00 00 00      	jne r6, 0x0, +0x1 <entrypoint+0xdc30>
    e450: b7 02 00 00 00 00 00 00      	mov64 r2, 0x0
    e458: 79 a6 b0 f7 00 00 00 00      	ldxdw r6, [r10 - 0x850]
    e460: 25 06 12 00 0b 00 00 00      	jgt r6, 0xb, +0x12 <entrypoint+0xdcd0>
    e468: 79 a4 c0 f7 00 00 00 00      	ldxdw r4, [r10 - 0x840]
    e470: 0f 14 00 00 00 00 00 00      	add64 r4, r1
    e478: 7b 4a c0 f7 00 00 00 00      	stxdw [r10 - 0x840], r4
    e480: 79 a1 b0 f7 00 00 00 00      	ldxdw r1, [r10 - 0x850]
    e488: 67 01 00 00 05 00 00 00      	lsh64 r1, 0x5
    e490: 67 02 00 00 05 00 00 00      	lsh64 r2, 0x5
    e498: bf 06 00 00 00 00 00 00      	mov64 r6, r0
    e4a0: 07 06 00 00 5b 00 00 00      	add64 r6, 0x5b
    e4a8: 7b 6a a0 f7 00 00 00 00      	stxdw [r10 - 0x860], r6
    e4b0: 0f 26 00 00 00 00 00 00      	add64 r6, r2
    e4b8: 7b 6a 98 f7 00 00 00 00      	stxdw [r10 - 0x868], r6
    e4c0: 1f 12 00 00 00 00 00 00      	sub64 r2, r1
    e4c8: 7b 2a a8 f7 00 00 00 00      	stxdw [r10 - 0x858], r2
    e4d0: b7 01 00 00 00 00 00 00      	mov64 r1, 0x0
    e4d8: 7b 1a b8 f7 00 00 00 00      	stxdw [r10 - 0x848], r1
    e4e0: bf a1 00 00 00 00 00 00      	mov64 r1, r10
    e4e8: 07 01 00 00 10 f8 ff ff      	add64 r1, -0x7f0
    e4f0: 05 00 0a 00 00 00 00 00      	ja +0xa <entrypoint+0xdd20>
    e4f8: 79 a1 b0 f7 00 00 00 00      	ldxdw r1, [r10 - 0x850]
    e500: b7 02 00 00 0b 00 00 00      	mov64 r2, 0xb
    e508: 18 03 00 00 e8 9b 01 00 00 00 00 00 00 00 00 00      	lddw r3, 0x19be8
    e518: 85 10 00 00 ef 11 00 00      	call 0x11ef
    e520: 67 02 00 00 03 00 00 00      	lsh64 r2, 0x3
    e528: bf 71 00 00 00 00 00 00      	mov64 r1, r7
    e530: 0f 21 00 00 00 00 00 00      	add64 r1, r2
    e538: 79 a2 c0 f7 00 00 00 00      	ldxdw r2, [r10 - 0x840]
    e540: 1d 27 d8 ff 00 00 00 00      	jeq r7, r2, -0x28 <entrypoint+0xdbe0>
    e548: bf 78 00 00 00 00 00 00      	mov64 r8, r7
    e550: bf 17 00 00 00 00 00 00      	mov64 r7, r1
    e558: 79 a1 b0 f7 00 00 00 00      	ldxdw r1, [r10 - 0x850]
    e560: 15 01 2a 00 00 00 00 00      	jeq r1, 0x0, +0x2a <entrypoint+0xde90>
    e568: b7 02 00 00 00 00 00 00      	mov64 r2, 0x0
    e570: 79 81 00 00 00 00 00 00      	ldxdw r1, [r8 + 0x0]
    e578: bf 16 00 00 00 00 00 00      	mov64 r6, r1
    e580: 79 11 08 00 00 00 00 00      	ldxdw r1, [r1 + 0x8]
    e588: 7b 1a c8 f7 00 00 00 00      	stxdw [r10 - 0x838], r1
    e590: 79 a9 98 f7 00 00 00 00      	ldxdw r9, [r10 - 0x868]
    e598: 79 a8 a8 f7 00 00 00 00      	ldxdw r8, [r10 - 0x858]
    e5a0: 79 a1 a0 f7 00 00 00 00      	ldxdw r1, [r10 - 0x860]
    e5a8: 7b 1a d0 f7 00 00 00 00      	stxdw [r10 - 0x830], r1
    e5b0: 05 00 05 00 00 00 00 00      	ja +0x5 <entrypoint+0xddb8>
    e5b8: 79 a9 d0 f7 00 00 00 00      	ldxdw r9, [r10 - 0x830]
    e5c0: 07 09 00 00 20 00 00 00      	add64 r9, 0x20
    e5c8: 07 02 00 00 01 00 00 00      	add64 r2, 0x1
    e5d0: 07 08 00 00 20 00 00 00      	add64 r8, 0x20
    e5d8: 15 08 1b 00 20 00 00 00      	jeq r8, 0x20, +0x1b <entrypoint+0xde90>
    e5e0: 79 a1 d0 f7 00 00 00 00      	ldxdw r1, [r10 - 0x830]
    e5e8: 7b 9a d0 f7 00 00 00 00      	stxdw [r10 - 0x830], r9
    e5f0: 79 19 00 00 00 00 00 00      	ldxdw r9, [r1 + 0x0]
    e5f8: 79 a4 c8 f7 00 00 00 00      	ldxdw r4, [r10 - 0x838]
    e600: 5d 49 f6 ff 00 00 00 00      	jne r9, r4, -0xa <entrypoint+0xdd90>
    e608: 79 64 10 00 00 00 00 00      	ldxdw r4, [r6 + 0x10]
    e610: 79 19 08 00 00 00 00 00      	ldxdw r9, [r1 + 0x8]
    e618: 5d 49 f3 ff 00 00 00 00      	jne r9, r4, -0xd <entrypoint+0xdd90>
    e620: 79 64 18 00 00 00 00 00      	ldxdw r4, [r6 + 0x18]
    e628: 79 19 10 00 00 00 00 00      	ldxdw r9, [r1 + 0x10]
    e630: 5d 49 f0 ff 00 00 00 00      	jne r9, r4, -0x10 <entrypoint+0xdd90>
    e638: 79 69 20 00 00 00 00 00      	ldxdw r9, [r6 + 0x20]
    e640: 79 11 18 00 00 00 00 00      	ldxdw r1, [r1 + 0x18]
    e648: 5d 91 ed ff 00 00 00 00      	jne r1, r9, -0x13 <entrypoint+0xdd90>
    e650: 25 02 11 00 0a 00 00 00      	jgt r2, 0xa, +0x11 <entrypoint+0xdeb8>
    e658: bf a1 00 00 00 00 00 00      	mov64 r1, r10
    e660: 07 01 00 00 e0 ff ff ff      	add64 r1, -0x20
    e668: 0f 21 00 00 00 00 00 00      	add64 r1, r2
    e670: 71 19 00 00 00 00 00 00      	ldxb r9, [r1 + 0x0]
    e678: 55 09 e7 ff 00 00 00 00      	jne r9, 0x0, -0x19 <entrypoint+0xdd90>
    e680: 71 69 01 00 00 00 00 00      	ldxb r9, [r6 + 0x1]
    e688: 15 09 50 ff 00 00 00 00      	jeq r9, 0x0, -0xb0 <entrypoint+0xd8e8>
    e690: 72 01 00 00 01 00 00 00      	stb [r1 + 0x0], 0x1
    e698: 79 a1 b8 f7 00 00 00 00      	ldxdw r1, [r10 - 0x848]
    e6a0: 07 01 00 00 01 00 00 00      	add64 r1, 0x1
    e6a8: 7b 1a b8 f7 00 00 00 00      	stxdw [r10 - 0x848], r1
    e6b0: 05 00 e0 ff 00 00 00 00      	ja -0x20 <entrypoint+0xdd90>
    e6b8: b7 02 00 00 01 00 00 00      	mov64 r2, 0x1
    e6c0: 79 a1 c0 f7 00 00 00 00      	ldxdw r1, [r10 - 0x840]
    e6c8: 5d 17 ca ff 00 00 00 00      	jne r7, r1, -0x36 <entrypoint+0xdcf8>
    e6d0: b7 02 00 00 00 00 00 00      	mov64 r2, 0x0
    e6d8: 05 00 c8 ff 00 00 00 00      	ja -0x38 <entrypoint+0xdcf8>
    e6e0: bf 21 00 00 00 00 00 00      	mov64 r1, r2
    e6e8: b7 02 00 00 0b 00 00 00      	mov64 r2, 0xb
    e6f0: 18 03 00 00 00 9c 01 00 00 00 00 00 00 00 00 00      	lddw r3, 0x19c00
    e700: 85 10 00 00 83 10 00 00      	call 0x1083
    e708: 67 01 00 00 20 00 00 00      	lsh64 r1, 0x20
    e710: 77 01 00 00 20 00 00 00      	rsh64 r1, 0x20
    e718: 65 01 08 00 0c 00 00 00      	jsgt r1, 0xc, +0x8 <entrypoint+0xdf38>
    e720: d5 01 0f 00 05 00 00 00      	jsle r1, 0x5, +0xf <entrypoint+0xdf78>
    e728: d5 01 1c 00 08 00 00 00      	jsle r1, 0x8, +0x1c <entrypoint+0xdfe8>
    e730: 65 01 33 00 0a 00 00 00      	jsgt r1, 0xa, +0x33 <entrypoint+0xe0a8>
    e738: 55 01 5e 00 09 00 00 00      	jne r1, 0x9, +0x5e <entrypoint+0xe208>
    e740: 18 01 00 00 f8 93 01 00 00 00 00 00 00 00 00 00      	lddw r1, 0x193f8
    e750: b7 02 00 00 1b 00 00 00      	mov64 r2, 0x1b
    e758: 05 00 8d 00 00 00 00 00      	ja +0x8d <entrypoint+0xe3a0>
    e760: d5 01 0e 00 12 00 00 00      	jsle r1, 0x12, +0xe <entrypoint+0xdfb0>
    e768: d5 01 1a 00 15 00 00 00      	jsle r1, 0x15, +0x1a <entrypoint+0xe018>
    e770: 65 01 30 00 17 00 00 00      	jsgt r1, 0x17, +0x30 <entrypoint+0xe0d0>
    e778: 55 01 5a 00 16 00 00 00      	jne r1, 0x16, +0x5a <entrypoint+0xe228>
    e780: 18 01 00 00 63 95 01 00 00 00 00 00 00 00 00 00      	lddw r1, 0x19563
    e790: b7 02 00 00 1a 00 00 00      	mov64 r2, 0x1a
    e798: 05 00 85 00 00 00 00 00      	ja +0x85 <entrypoint+0xe3a0>
    e7a0: 65 01 19 00 02 00 00 00      	jsgt r1, 0x2, +0x19 <entrypoint+0xe048>
    e7a8: 15 01 36 00 00 00 00 00      	jeq r1, 0x0, +0x36 <entrypoint+0xe138>
    e7b0: 55 01 5f 00 01 00 00 00      	jne r1, 0x1, +0x5f <entrypoint+0xe288>
    e7b8: 18 01 00 00 bc 92 01 00 00 00 00 00 00 00 00 00      	lddw r1, 0x192bc
    e7c8: b7 02 00 00 16 00 00 00      	mov64 r2, 0x16
    e7d0: 05 00 7e 00 00 00 00 00      	ja +0x7e <entrypoint+0xe3a0>
    e7d8: 65 01 18 00 0f 00 00 00      	jsgt r1, 0xf, +0x18 <entrypoint+0xe078>
    e7e0: 15 01 35 00 0d 00 00 00      	jeq r1, 0xd, +0x35 <entrypoint+0xe168>
    e7e8: 55 01 5c 00 0e 00 00 00      	jne r1, 0xe, +0x5c <entrypoint+0xe2a8>
    e7f0: 18 01 00 00 77 94 01 00 00 00 00 00 00 00 00 00      	lddw r1, 0x19477
    e800: b7 02 00 00 13 00 00 00      	mov64 r2, 0x13
    e808: 05 00 77 00 00 00 00 00      	ja +0x77 <entrypoint+0xe3a0>
    e810: 15 01 21 00 06 00 00 00      	jeq r1, 0x6, +0x21 <entrypoint+0xe0f8>
    e818: 55 01 3a 00 07 00 00 00      	jne r1, 0x7, +0x3a <entrypoint+0xe1c8>
    e820: 18 01 00 00 53 93 01 00 00 00 00 00 00 00 00 00      	lddw r1, 0x19353
    e830: b7 02 00 00 1f 00 00 00      	mov64 r2, 0x1f
    e838: 05 00 71 00 00 00 00 00      	ja +0x71 <entrypoint+0xe3a0>
    e840: 15 01 1f 00 13 00 00 00      	jeq r1, 0x13, +0x1f <entrypoint+0xe118>
    e848: 55 01 38 00 14 00 00 00      	jne r1, 0x14, +0x38 <entrypoint+0xe1e8>
    e850: 18 01 00 00 0e 95 01 00 00 00 00 00 00 00 00 00      	lddw r1, 0x1950e
    e860: b7 02 00 00 28 00 00 00      	mov64 r2, 0x28
    e868: 05 00 6b 00 00 00 00 00      	ja +0x6b <entrypoint+0xe3a0>
    e870: 15 01 27 00 03 00 00 00      	jeq r1, 0x3, +0x27 <entrypoint+0xe188>
    e878: 55 01 4e 00 04 00 00 00      	jne r1, 0x4, +0x4e <entrypoint+0xe2c8>
    e880: 18 01 00 00 08 93 01 00 00 00 00 00 00 00 00 00      	lddw r1, 0x19308
    e890: b7 02 00 00 1a 00 00 00      	mov64 r2, 0x1a
    e898: 05 00 65 00 00 00 00 00      	ja +0x65 <entrypoint+0xe3a0>
    e8a0: 15 01 25 00 10 00 00 00      	jeq r1, 0x10, +0x25 <entrypoint+0xe1a8>
    e8a8: 55 01 4c 00 11 00 00 00      	jne r1, 0x11, +0x4c <entrypoint+0xe2e8>
    e8b0: 18 01 00 00 bd 94 01 00 00 00 00 00 00 00 00 00      	lddw r1, 0x194bd
    e8c0: b7 02 00 00 13 00 00 00      	mov64 r2, 0x13
    e8c8: 05 00 5f 00 00 00 00 00      	ja +0x5f <entrypoint+0xe3a0>
    e8d0: 55 01 33 00 0b 00 00 00      	jne r1, 0xb, +0x33 <entrypoint+0xe248>
    e8d8: 18 01 00 00 2e 94 01 00 00 00 00 00 00 00 00 00      	lddw r1, 0x1942e
    e8e8: b7 02 00 00 1a 00 00 00      	mov64 r2, 0x1a
    e8f0: 05 00 5a 00 00 00 00 00      	ja +0x5a <entrypoint+0xe3a0>
    e8f8: 55 01 32 00 18 00 00 00      	jne r1, 0x18, +0x32 <entrypoint+0xe268>
    e900: 18 01 00 00 98 95 01 00 00 00 00 00 00 00 00 00      	lddw r1, 0x19598
    e910: b7 02 00 00 10 00 00 00      	mov64 r2, 0x10
    e918: 05 00 55 00 00 00 00 00      	ja +0x55 <entrypoint+0xe3a0>
    e920: 18 01 00 00 3a 93 01 00 00 00 00 00 00 00 00 00      	lddw r1, 0x1933a
    e930: b7 02 00 00 19 00 00 00      	mov64 r2, 0x19
    e938: 05 00 51 00 00 00 00 00      	ja +0x51 <entrypoint+0xe3a0>
    e940: 18 01 00 00 f9 94 01 00 00 00 00 00 00 00 00 00      	lddw r1, 0x194f9
    e950: b7 02 00 00 15 00 00 00      	mov64 r2, 0x15
    e958: 05 00 4d 00 00 00 00 00      	ja +0x4d <entrypoint+0xe3a0>
    e960: 67 02 00 00 20 00 00 00      	lsh64 r2, 0x20
    e968: bf 21 00 00 00 00 00 00      	mov64 r1, r2
    e970: 77 01 00 00 20 00 00 00      	rsh64 r1, 0x20
    e978: a5 01 36 00 14 00 00 00      	jlt r1, 0x14, +0x36 <entrypoint+0xe308>
    e980: b7 02 00 00 01 00 00 00      	mov64 r2, 0x1
    e988: 05 00 35 00 00 00 00 00      	ja +0x35 <entrypoint+0xe310>
    e990: 18 01 00 00 64 94 01 00 00 00 00 00 00 00 00 00      	lddw r1, 0x19464
    e9a0: b7 02 00 00 13 00 00 00      	mov64 r2, 0x13
    e9a8: 05 00 43 00 00 00 00 00      	ja +0x43 <entrypoint+0xe3a0>
    e9b0: 18 01 00 00 ef 92 01 00 00 00 00 00 00 00 00 00      	lddw r1, 0x192ef
    e9c0: b7 02 00 00 19 00 00 00      	mov64 r2, 0x19
    e9c8: 05 00 3f 00 00 00 00 00      	ja +0x3f <entrypoint+0xe3a0>
    e9d0: 18 01 00 00 a5 94 01 00 00 00 00 00 00 00 00 00      	lddw r1, 0x194a5
    e9e0: b7 02 00 00 18 00 00 00      	mov64 r2, 0x18
    e9e8: 05 00 3b 00 00 00 00 00      	ja +0x3b <entrypoint+0xe3a0>
    e9f0: 18 01 00 00 98 93 01 00 00 00 00 00 00 00 00 00      	lddw r1, 0x19398
    ea00: b7 02 00 00 20 00 00 00      	mov64 r2, 0x20
    ea08: 05 00 37 00 00 00 00 00      	ja +0x37 <entrypoint+0xe3a0>
    ea10: 18 01 00 00 36 95 01 00 00 00 00 00 00 00 00 00      	lddw r1, 0x19536
    ea20: b7 02 00 00 2d 00 00 00      	mov64 r2, 0x2d
    ea28: 05 00 33 00 00 00 00 00      	ja +0x33 <entrypoint+0xe3a0>
    ea30: 18 01 00 00 13 94 01 00 00 00 00 00 00 00 00 00      	lddw r1, 0x19413
    ea40: b7 02 00 00 1b 00 00 00      	mov64 r2, 0x1b
    ea48: 05 00 2f 00 00 00 00 00      	ja +0x2f <entrypoint+0xe3a0>
    ea50: 18 01 00 00 7d 95 01 00 00 00 00 00 00 00 00 00      	lddw r1, 0x1957d
    ea60: b7 02 00 00 19 00 00 00      	mov64 r2, 0x19
    ea68: 05 00 2b 00 00 00 00 00      	ja +0x2b <entrypoint+0xe3a0>
    ea70: 18 01 00 00 48 94 01 00 00 00 00 00 00 00 00 00      	lddw r1, 0x19448
    ea80: b7 02 00 00 1c 00 00 00      	mov64 r2, 0x1c
    ea88: 05 00 27 00 00 00 00 00      	ja +0x27 <entrypoint+0xe3a0>
    ea90: 18 01 00 00 b8 95 01 00 00 00 00 00 00 00 00 00      	lddw r1, 0x195b8
    eaa0: b7 02 00 00 19 00 00 00      	mov64 r2, 0x19
    eaa8: 05 00 23 00 00 00 00 00      	ja +0x23 <entrypoint+0xe3a0>
    eab0: 18 01 00 00 d2 92 01 00 00 00 00 00 00 00 00 00      	lddw r1, 0x192d2
    eac0: b7 02 00 00 1d 00 00 00      	mov64 r2, 0x1d
    eac8: 05 00 1f 00 00 00 00 00      	ja +0x1f <entrypoint+0xe3a0>
    ead0: 18 01 00 00 8a 94 01 00 00 00 00 00 00 00 00 00      	lddw r1, 0x1948a
    eae0: b7 02 00 00 1b 00 00 00      	mov64 r2, 0x1b
    eae8: 05 00 1b 00 00 00 00 00      	ja +0x1b <entrypoint+0xe3a0>
    eaf0: 18 01 00 00 22 93 01 00 00 00 00 00 00 00 00 00      	lddw r1, 0x19322
    eb00: b7 02 00 00 18 00 00 00      	mov64 r2, 0x18
    eb08: 05 00 17 00 00 00 00 00      	ja +0x17 <entrypoint+0xe3a0>
    eb10: 18 01 00 00 d0 94 01 00 00 00 00 00 00 00 00 00      	lddw r1, 0x194d0
    eb20: b7 02 00 00 29 00 00 00      	mov64 r2, 0x29
    eb28: 05 00 13 00 00 00 00 00      	ja +0x13 <entrypoint+0xe3a0>
    eb30: 47 02 00 00 1a 00 00 00      	or64 r2, 0x1a
    eb38: bf 21 00 00 00 00 00 00      	mov64 r1, r2
    eb40: 57 01 00 00 1b 00 00 00      	and64 r1, 0x1b
    eb48: 55 01 0c 00 1a 00 00 00      	jne r1, 0x1a, +0xc <entrypoint+0xe388>
    eb50: 67 02 00 00 18 00 00 00      	lsh64 r2, 0x18
    eb58: c7 02 00 00 38 00 00 00      	arsh64 r2, 0x38
    eb60: 67 02 00 00 03 00 00 00      	lsh64 r2, 0x3
    eb68: 18 03 00 00 f0 98 01 00 00 00 00 00 00 00 00 00      	lddw r3, 0x198f0
    eb78: 0f 23 00 00 00 00 00 00      	add64 r3, r2
    eb80: 18 01 00 00 30 9c 01 00 00 00 00 00 00 00 00 00      	lddw r1, 0x19c30
    eb90: 0f 21 00 00 00 00 00 00      	add64 r1, r2
    eb98: 79 11 00 00 00 00 00 00      	ldxdw r1, [r1 + 0x0]
    eba0: 79 32 00 00 00 00 00 00      	ldxdw r2, [r3 + 0x0]
    eba8: 05 00 03 00 00 00 00 00      	ja +0x3 <entrypoint+0xe3a0>
    ebb0: 18 01 00 00 ae 92 01 00 00 00 00 00 00 00 00 00      	lddw r1, 0x192ae
    ebc0: b7 02 00 00 0e 00 00 00      	mov64 r2, 0xe
    ebc8: 85 10 00 00 ff ff ff ff      	call -0x1
    ebd0: 95 00 00 00 00 00 00 00      	exit
    ebd8: bf 16 00 00 00 00 00 00      	mov64 r6, r1
    ebe0: b7 00 00 00 00 00 00 00      	mov64 r0, 0x0
    ebe8: b7 01 00 00 0c 00 00 00      	mov64 r1, 0xc
    ebf0: 57 05 00 00 ff 00 00 00      	and64 r5, 0xff
    ebf8: d5 05 2a 00 0d 00 00 00      	jsle r5, 0xd, +0x2a <entrypoint+0xe528>
    ec00: 65 05 76 00 16 00 00 00      	jsgt r5, 0x16, +0x76 <entrypoint+0xe790>
    ec08: 65 05 00 01 12 00 00 00      	jsgt r5, 0x12, +0x100 <entrypoint+0xebe8>
    ec10: 15 05 ab 01 0e 00 00 00      	jeq r5, 0xe, +0x1ab <entrypoint+0xf148>
    ec18: 55 05 63 09 10 00 00 00      	jne r5, 0x10, +0x963 <entrypoint+0x12f10>
    ec20: b5 04 62 09 1f 00 00 00      	jle r4, 0x1f, +0x962 <entrypoint+0x12f10>
    ec28: b7 00 00 00 0a 00 00 00      	mov64 r0, 0xa
    ec30: a5 02 60 09 02 00 00 00      	jlt r2, 0x2, +0x960 <entrypoint+0x12f10>
    ec38: b7 01 00 00 00 00 00 00      	mov64 r1, 0x0
    ec40: 15 02 5e 09 02 00 00 00      	jeq r2, 0x2, +0x95e <entrypoint+0x12f10>
    ec48: b7 00 00 00 01 00 00 00      	mov64 r0, 0x1
    ec50: 79 64 10 00 00 00 00 00      	ldxdw r4, [r6 + 0x10]
    ec58: 79 42 08 00 00 00 00 00      	ldxdw r2, [r4 + 0x8]
    ec60: 18 05 00 00 06 a7 d5 17 00 00 00 00 19 2c 5c 51      	lddw r5, 0x515c2c1917d5a706
    ec70: 5d 52 58 09 00 00 00 00      	jne r2, r5, +0x958 <entrypoint+0x12f10>
    ec78: 79 42 10 00 00 00 00 00      	ldxdw r2, [r4 + 0x10]
    ec80: 18 05 00 00 21 8c c9 4c 00 00 00 00 3d 4a f1 7f      	lddw r5, 0x7ff14a3d4cc98c21
    ec90: 5d 52 54 09 00 00 00 00      	jne r2, r5, +0x954 <entrypoint+0x12f10>
    ec98: 79 42 18 00 00 00 00 00      	ldxdw r2, [r4 + 0x18]
    eca0: 18 05 00 00 58 da ee 08 00 00 00 00 9b a1 fd 44      	lddw r5, 0x44fda19b08eeda58
    ecb0: 5d 52 50 09 00 00 00 00      	jne r2, r5, +0x950 <entrypoint+0x12f10>
    ecb8: 79 42 20 00 00 00 00 00      	ldxdw r2, [r4 + 0x20]
    ecc0: 18 05 00 00 e3 db d9 8a 00 00 00 00 00 00 00 00      	lddw r5, 0x8ad9dbe3
    ecd0: 5d 52 4c 09 00 00 00 00      	jne r2, r5, +0x94c <entrypoint+0x12f10>
    ecd8: 79 68 00 00 00 00 00 00      	ldxdw r8, [r6 + 0x0]
    ece0: 79 89 50 00 00 00 00 00      	ldxdw r9, [r8 + 0x50]
    ece8: bf 95 00 00 00 00 00 00      	mov64 r5, r9
    ecf0: 07 05 00 00 80 00 00 00      	add64 r5, 0x80
    ecf8: 79 42 58 00 00 00 00 00      	ldxdw r2, [r4 + 0x58]
    ed00: 2f 52 00 00 00 00 00 00      	mul64 r2, r5
    ed08: 79 47 60 00 00 00 00 00      	ldxdw r7, [r4 + 0x60]
    ed10: 18 04 00 00 00 00 00 00 00 00 00 00 00 00 f0 3f      	lddw r4, 0x3ff0000000000000
    ed20: 1d 47 79 05 00 00 00 00      	jeq r7, r4, +0x579 <entrypoint+0x110c8>
    ed28: 18 04 00 00 00 00 00 00 00 00 00 00 00 00 00 40      	lddw r4, 0x4000000000000000
    ed38: 5d 47 5a 05 00 00 00 00      	jne r7, r4, +0x55a <entrypoint+0x10fe8>
    ed40: 67 02 00 00 01 00 00 00      	lsh64 r2, 0x1
    ed48: 05 00 74 05 00 00 00 00      	ja +0x574 <entrypoint+0x110c8>
    ed50: d5 05 91 00 05 00 00 00      	jsle r5, 0x5, +0x91 <entrypoint+0xe9b8>
    ed58: 65 05 b2 00 0a 00 00 00      	jsgt r5, 0xa, +0xb2 <entrypoint+0xeac8>
    ed60: 15 05 37 01 06 00 00 00      	jeq r5, 0x6, +0x137 <entrypoint+0xeef8>
    ed68: 55 05 39 09 0a 00 00 00      	jne r5, 0xa, +0x939 <entrypoint+0x12f10>
    ed70: a5 02 37 09 03 00 00 00      	jlt r2, 0x3, +0x937 <entrypoint+0x12f08>
    ed78: b7 00 00 00 03 00 00 00      	mov64 r0, 0x3
    ed80: b7 01 00 00 00 00 00 00      	mov64 r1, 0x0
    ed88: 79 63 00 00 00 00 00 00      	ldxdw r3, [r6 + 0x0]
    ed90: 79 34 50 00 00 00 00 00      	ldxdw r4, [r3 + 0x50]
    ed98: 55 04 33 09 a5 00 00 00      	jne r4, 0xa5, +0x933 <entrypoint+0x12f10>
    eda0: 71 34 c4 00 00 00 00 00      	ldxb r4, [r3 + 0xc4]
    eda8: 25 04 31 09 02 00 00 00      	jgt r4, 0x2, +0x931 <entrypoint+0x12f10>
    edb0: 15 04 43 01 02 00 00 00      	jeq r4, 0x2, +0x143 <entrypoint+0xefa8>
    edb8: b7 00 00 00 09 00 00 00      	mov64 r0, 0x9
    edc0: 15 04 2e 09 00 00 00 00      	jeq r4, 0x0, +0x92e <entrypoint+0x12f10>
    edc8: b7 00 00 00 00 00 00 00      	mov64 r0, 0x0
    edd0: b7 01 00 00 0a 00 00 00      	mov64 r1, 0xa
    edd8: 71 34 c5 00 00 00 00 00      	ldxb r4, [r3 + 0xc5]
    ede0: 15 04 2a 09 01 00 00 00      	jeq r4, 0x1, +0x92a <entrypoint+0x12f10>
    ede8: b7 01 00 00 03 00 00 00      	mov64 r1, 0x3
    edf0: 79 34 58 00 00 00 00 00      	ldxdw r4, [r3 + 0x58]
    edf8: 79 65 08 00 00 00 00 00      	ldxdw r5, [r6 + 0x8]
    ee00: 79 57 08 00 00 00 00 00      	ldxdw r7, [r5 + 0x8]
    ee08: 5d 47 25 09 00 00 00 00      	jne r7, r4, +0x925 <entrypoint+0x12f10>
    ee10: 79 34 60 00 00 00 00 00      	ldxdw r4, [r3 + 0x60]
    ee18: 79 57 10 00 00 00 00 00      	ldxdw r7, [r5 + 0x10]
    ee20: 5d 47 22 09 00 00 00 00      	jne r7, r4, +0x922 <entrypoint+0x12f10>
    ee28: 79 34 68 00 00 00 00 00      	ldxdw r4, [r3 + 0x68]
    ee30: 79 57 18 00 00 00 00 00      	ldxdw r7, [r5 + 0x18]
    ee38: 5d 47 1f 09 00 00 00 00      	jne r7, r4, +0x91f <entrypoint+0x12f10>
    ee40: 79 34 70 00 00 00 00 00      	ldxdw r4, [r3 + 0x70]
    ee48: 79 57 20 00 00 00 00 00      	ldxdw r7, [r5 + 0x20]
    ee50: 5d 47 1c 09 00 00 00 00      	jne r7, r4, +0x91c <entrypoint+0x12f10>
    ee58: b7 01 00 00 00 00 00 00      	mov64 r1, 0x0
    ee60: 79 54 50 00 00 00 00 00      	ldxdw r4, [r5 + 0x50]
    ee68: 55 04 c5 05 52 00 00 00      	jne r4, 0x52, +0x5c5 <entrypoint+0x11470>
    ee70: 71 54 85 00 00 00 00 00      	ldxb r4, [r5 + 0x85]
    ee78: 55 04 e3 02 01 00 00 00      	jne r4, 0x1, +0x2e3 <entrypoint+0xfd70>
    ee80: 71 51 86 00 00 00 00 00      	ldxb r1, [r5 + 0x86]
    ee88: 55 01 d1 08 01 00 00 00      	jne r1, 0x1, +0x8d1 <entrypoint+0x12cf0>
    ee90: 79 51 8a 00 00 00 00 00      	ldxdw r1, [r5 + 0x8a]
    ee98: 79 64 10 00 00 00 00 00      	ldxdw r4, [r6 + 0x10]
    eea0: 79 40 08 00 00 00 00 00      	ldxdw r0, [r4 + 0x8]
    eea8: 5d 01 e5 0a 00 00 00 00      	jne r1, r0, +0xae5 <entrypoint+0x13db0>
    eeb0: 79 41 10 00 00 00 00 00      	ldxdw r1, [r4 + 0x10]
    eeb8: 79 50 92 00 00 00 00 00      	ldxdw r0, [r5 + 0x92]
    eec0: 5d 10 e2 0a 00 00 00 00      	jne r0, r1, +0xae2 <entrypoint+0x13db0>
    eec8: 79 41 18 00 00 00 00 00      	ldxdw r1, [r4 + 0x18]
    eed0: 79 50 9a 00 00 00 00 00      	ldxdw r0, [r5 + 0x9a]
    eed8: 5d 10 df 0a 00 00 00 00      	jne r0, r1, +0xadf <entrypoint+0x13db0>
    eee0: 79 47 20 00 00 00 00 00      	ldxdw r7, [r4 + 0x20]
    eee8: 79 55 a2 00 00 00 00 00      	ldxdw r5, [r5 + 0xa2]
    eef0: b7 00 00 00 00 00 00 00      	mov64 r0, 0x0
    eef8: b7 01 00 00 04 00 00 00      	mov64 r1, 0x4
    ef00: 5d 75 06 09 00 00 00 00      	jne r5, r7, +0x906 <entrypoint+0x12f10>
    ef08: 79 41 50 00 00 00 00 00      	ldxdw r1, [r4 + 0x50]
    ef10: 55 01 5e 09 63 01 00 00      	jne r1, 0x163, +0x95e <entrypoint+0x131e0>
    ef18: 79 41 28 00 00 00 00 00      	ldxdw r1, [r4 + 0x28]
    ef20: 18 05 00 00 06 dd f6 e1 00 00 00 00 ee 75 8f de      	lddw r5, -0x21708a111e0922fa
    ef30: 1d 51 4e 09 00 00 00 00      	jeq r1, r5, +0x94e <entrypoint+0x13180>
    ef38: 18 05 00 00 06 dd f6 e1 00 00 00 00 d7 65 a1 93      	lddw r5, -0x6c5e9a281e0922fa
    ef48: 5d 51 57 09 00 00 00 00      	jne r1, r5, +0x957 <entrypoint+0x131e0>
    ef50: 79 41 30 00 00 00 00 00      	ldxdw r1, [r4 + 0x30]
    ef58: 18 05 00 00 d9 cb e1 46 00 00 00 00 ce eb 79 ac      	lddw r5, -0x53861431b91e3427
    ef68: 5d 51 53 09 00 00 00 00      	jne r1, r5, +0x953 <entrypoint+0x131e0>
    ef70: 79 41 38 00 00 00 00 00      	ldxdw r1, [r4 + 0x38]
    ef78: 18 05 00 00 1c b4 85 ed 00 00 00 00 5f 5b 37 91      	lddw r5, -0x6ec8a4a0127a4be4
    ef88: 5d 51 4f 09 00 00 00 00      	jne r1, r5, +0x94f <entrypoint+0x131e0>
    ef90: 79 41 40 00 00 00 00 00      	ldxdw r1, [r4 + 0x40]
    ef98: 18 05 00 00 3a 8c f5 85 00 00 00 00 7e ff 00 a9      	lddw r5, -0x56ff00817a0a73c6
    efa8: 5d 51 4b 09 00 00 00 00      	jne r1, r5, +0x94b <entrypoint+0x131e0>
    efb0: 05 00 03 0d 00 00 00 00      	ja +0xd03 <entrypoint+0x14fa8>
    efb8: 65 05 ab 00 25 00 00 00      	jsgt r5, 0x25, +0xab <entrypoint+0xecf0>
    efc0: 15 05 5a 01 17 00 00 00      	jeq r5, 0x17, +0x15a <entrypoint+0xf270>
    efc8: 55 05 ed 08 18 00 00 00      	jne r5, 0x18, +0x8ed <entrypoint+0x12f10>
    efd0: bf a1 00 00 00 00 00 00      	mov64 r1, r10
    efd8: 07 01 00 00 a8 fe ff ff      	add64 r1, -0x158
    efe0: bf 27 00 00 00 00 00 00      	mov64 r7, r2
    efe8: bf 32 00 00 00 00 00 00      	mov64 r2, r3
    eff0: bf 43 00 00 00 00 00 00      	mov64 r3, r4
    eff8: 85 10 00 00 94 10 00 00      	call 0x1094
    f000: b7 01 00 00 0c 00 00 00      	mov64 r1, 0xc
    f008: b7 00 00 00 00 00 00 00      	mov64 r0, 0x0
    f010: bf 73 00 00 00 00 00 00      	mov64 r3, r7
    f018: 79 a4 a8 fe 00 00 00 00      	ldxdw r4, [r10 - 0x158]
    f020: 55 04 e2 08 00 00 00 00      	jne r4, 0x0, +0x8e2 <entrypoint+0x12f10>
    f028: 15 03 2c 02 00 00 00 00      	jeq r3, 0x0, +0x22c <entrypoint+0xf968>
    f030: b7 00 00 00 06 00 00 00      	mov64 r0, 0x6
    f038: 79 62 00 00 00 00 00 00      	ldxdw r2, [r6 + 0x0]
    f040: 79 21 28 00 00 00 00 00      	ldxdw r1, [r2 + 0x28]
    f048: 18 03 00 00 06 dd f6 e1 00 00 00 00 d7 65 a1 93      	lddw r3, -0x6c5e9a281e0922fa
    f058: 5d 31 db 08 00 00 00 00      	jne r1, r3, +0x8db <entrypoint+0x12f10>
    f060: 79 21 30 00 00 00 00 00      	ldxdw r1, [r2 + 0x30]
    f068: 18 03 00 00 d9 cb e1 46 00 00 00 00 ce eb 79 ac      	lddw r3, -0x53861431b91e3427
    f078: 5d 31 d7 08 00 00 00 00      	jne r1, r3, +0x8d7 <entrypoint+0x12f10>
    f080: 79 21 38 00 00 00 00 00      	ldxdw r1, [r2 + 0x38]
    f088: 18 03 00 00 1c b4 85 ed 00 00 00 00 5f 5b 37 91      	lddw r3, -0x6ec8a4a0127a4be4
    f098: 5d 31 d3 08 00 00 00 00      	jne r1, r3, +0x8d3 <entrypoint+0x12f10>
    f0a0: 79 21 40 00 00 00 00 00      	ldxdw r1, [r2 + 0x40]
    f0a8: 18 03 00 00 3a 8c f5 85 00 00 00 00 7e ff 00 a9      	lddw r3, -0x56ff00817a0a73c6
    f0b8: 5d 31 cf 08 00 00 00 00      	jne r1, r3, +0x8cf <entrypoint+0x12f10>
    f0c0: b7 00 00 00 00 00 00 00      	mov64 r0, 0x0
    f0c8: b7 01 00 00 02 00 00 00      	mov64 r1, 0x2
    f0d0: 79 23 50 00 00 00 00 00      	ldxdw r3, [r2 + 0x50]
    f0d8: 55 03 cb 08 52 00 00 00      	jne r3, 0x52, +0x8cb <entrypoint+0x12f10>
    f0e0: 71 23 85 00 00 00 00 00      	ldxb r3, [r2 + 0x85]
    f0e8: 55 03 c9 08 01 00 00 00      	jne r3, 0x1, +0x8c9 <entrypoint+0x12f10>
    f0f0: 79 a1 b8 fe 00 00 00 00      	ldxdw r1, [r10 - 0x148]
    f0f8: 79 a3 b0 fe 00 00 00 00      	ldxdw r3, [r10 - 0x150]
    f100: 71 27 84 00 00 00 00 00      	ldxb r7, [r2 + 0x84]
    f108: 18 02 00 00 2e 00 00 00 00 00 00 00 2e 00 00 00      	lddw r2, 0x2e0000002e
    f118: 7b 2a e8 ff 00 00 00 00      	stxdw [r10 - 0x18], r2
    f120: 7b 3a c8 ff 00 00 00 00      	stxdw [r10 - 0x38], r3
    f128: 7b 1a e0 ff 00 00 00 00      	stxdw [r10 - 0x20], r1
    f130: 7b 1a d0 ff 00 00 00 00      	stxdw [r10 - 0x30], r1
    f138: 7b 1a c0 ff 00 00 00 00      	stxdw [r10 - 0x40], r1
    f140: 6a 0a f8 ff 01 00 00 00      	sth [r10 - 0x8], 0x1
    f148: 72 0a f0 ff 01 00 00 00      	stb [r10 - 0x10], 0x1
    f150: 7a 0a d8 ff 00 00 00 00      	stdw [r10 - 0x28], 0x0
    f158: 7a 0a b8 ff 00 00 00 00      	stdw [r10 - 0x48], 0x0
    f160: bf a1 00 00 00 00 00 00      	mov64 r1, r10
    f168: 07 01 00 00 b8 ff ff ff      	add64 r1, -0x48
    f170: 85 10 00 00 f5 e1 ff ff      	call -0x1e0b
    f178: bf 16 00 00 00 00 00 00      	mov64 r6, r1
    f180: 15 00 28 09 00 00 00 00      	jeq r0, 0x0, +0x928 <entrypoint+0x132a0>
    f188: 7b 0a a0 fe 00 00 00 00      	stxdw [r10 - 0x160], r0
    f190: bf a1 00 00 00 00 00 00      	mov64 r1, r10
    f198: 07 01 00 00 b8 ff ff ff      	add64 r1, -0x48
    f1a0: 85 10 00 00 ef e1 ff ff      	call -0x1e11
    f1a8: b7 02 00 00 00 00 00 00      	mov64 r2, 0x0
    f1b0: 15 00 01 00 00 00 00 00      	jeq r0, 0x0, +0x1 <entrypoint+0xe998>
    f1b8: bf 12 00 00 00 00 00 00      	mov64 r2, r1
    f1c0: b7 08 00 00 01 00 00 00      	mov64 r8, 0x1
    f1c8: 15 00 83 00 00 00 00 00      	jeq r0, 0x0, +0x83 <entrypoint+0xedc0>
    f1d0: bf 08 00 00 00 00 00 00      	mov64 r8, r0
    f1d8: 05 00 81 00 00 00 00 00      	ja +0x81 <entrypoint+0xedc0>
    f1e0: 15 05 cc 01 02 00 00 00      	jeq r5, 0x2, +0x1cc <entrypoint+0xf820>
    f1e8: 15 05 bf 00 04 00 00 00      	jeq r5, 0x4, +0xbf <entrypoint+0xefc0>
    f1f0: 55 05 a8 08 05 00 00 00      	jne r5, 0x5, +0x8a8 <entrypoint+0x12f10>
    f1f8: b7 00 00 00 0a 00 00 00      	mov64 r0, 0xa
    f200: 15 02 a6 08 00 00 00 00      	jeq r2, 0x0, +0x8a6 <entrypoint+0x12f10>
    f208: b7 01 00 00 00 00 00 00      	mov64 r1, 0x0
    f210: 79 63 00 00 00 00 00 00      	ldxdw r3, [r6 + 0x0]
    f218: 79 34 50 00 00 00 00 00      	ldxdw r4, [r3 + 0x50]
    f220: 55 04 4e 05 a5 00 00 00      	jne r4, 0xa5, +0x54e <entrypoint+0x11470>
    f228: 71 34 c4 00 00 00 00 00      	ldxb r4, [r3 + 0xc4]
    f230: 25 04 4c 05 02 00 00 00      	jgt r4, 0x2, +0x54c <entrypoint+0x11470>
    f238: 15 04 50 02 00 00 00 00      	jeq r4, 0x0, +0x250 <entrypoint+0xfc98>
    f240: 15 02 9e 08 01 00 00 00      	jeq r2, 0x1, +0x89e <entrypoint+0x12f10>
    f248: b7 00 00 00 00 00 00 00      	mov64 r0, 0x0
    f250: 15 04 4f 02 02 00 00 00      	jeq r4, 0x2, +0x24f <entrypoint+0xfca8>
    f258: 79 64 08 00 00 00 00 00      	ldxdw r4, [r6 + 0x8]
    f260: bf 45 00 00 00 00 00 00      	mov64 r5, r4
    f268: 07 05 00 00 08 00 00 00      	add64 r5, 0x8
    f270: 71 31 a0 00 00 00 00 00      	ldxb r1, [r3 + 0xa0]
    f278: 55 01 31 03 01 00 00 00      	jne r1, 0x1, +0x331 <entrypoint+0x103e0>
    f280: 79 51 00 00 00 00 00 00      	ldxdw r1, [r5 + 0x0]
    f288: 79 37 a4 00 00 00 00 00      	ldxdw r7, [r3 + 0xa4]
    f290: 5d 17 56 05 00 00 00 00      	jne r7, r1, +0x556 <entrypoint+0x11520>
    f298: 79 41 10 00 00 00 00 00      	ldxdw r1, [r4 + 0x10]
    f2a0: 79 38 ac 00 00 00 00 00      	ldxdw r8, [r3 + 0xac]
    f2a8: 5d 18 52 05 00 00 00 00      	jne r8, r1, +0x552 <entrypoint+0x11518>
    f2b0: 79 41 18 00 00 00 00 00      	ldxdw r1, [r4 + 0x18]
    f2b8: 79 38 b4 00 00 00 00 00      	ldxdw r8, [r3 + 0xb4]
    f2c0: 5d 18 4f 05 00 00 00 00      	jne r8, r1, +0x54f <entrypoint+0x11518>
    f2c8: 79 48 20 00 00 00 00 00      	ldxdw r8, [r4 + 0x20]
    f2d0: 79 39 bc 00 00 00 00 00      	ldxdw r9, [r3 + 0xbc]
    f2d8: bf 71 00 00 00 00 00 00      	mov64 r1, r7
    f2e0: 5d 89 4c 05 00 00 00 00      	jne r9, r8, +0x54c <entrypoint+0x11520>
    f2e8: 05 00 4f 05 00 00 00 00      	ja +0x54f <entrypoint+0x11540>
    f2f0: 15 05 90 00 0b 00 00 00      	jeq r5, 0xb, +0x90 <entrypoint+0xef50>
    f2f8: 55 05 87 08 0d 00 00 00      	jne r5, 0xd, +0x887 <entrypoint+0x12f10>
    f300: a5 04 86 08 09 00 00 00      	jlt r4, 0x9, +0x886 <entrypoint+0x12f10>
    f308: a5 02 ce 01 04 00 00 00      	jlt r2, 0x4, +0x1ce <entrypoint+0xf958>
    f310: b7 00 00 00 03 00 00 00      	mov64 r0, 0x3
    f318: b7 01 00 00 00 00 00 00      	mov64 r1, 0x0
    f320: 79 64 00 00 00 00 00 00      	ldxdw r4, [r6 + 0x0]
    f328: 79 45 50 00 00 00 00 00      	ldxdw r5, [r4 + 0x50]
    f330: 55 05 80 08 a5 00 00 00      	jne r5, 0xa5, +0x880 <entrypoint+0x12f10>
    f338: 71 45 c4 00 00 00 00 00      	ldxb r5, [r4 + 0xc4]
    f340: 25 05 7e 08 02 00 00 00      	jgt r5, 0x2, +0x87e <entrypoint+0x12f10>
    f348: 15 05 cd 01 02 00 00 00      	jeq r5, 0x2, +0x1cd <entrypoint+0xf990>
    f350: b7 00 00 00 09 00 00 00      	mov64 r0, 0x9
    f358: 15 05 7b 08 00 00 00 00      	jeq r5, 0x0, +0x87b <entrypoint+0x12f10>
    f360: b7 00 00 00 00 00 00 00      	mov64 r0, 0x0
    f368: b7 01 00 00 03 00 00 00      	mov64 r1, 0x3
    f370: 79 47 58 00 00 00 00 00      	ldxdw r7, [r4 + 0x58]
    f378: 79 65 08 00 00 00 00 00      	ldxdw r5, [r6 + 0x8]
    f380: 79 58 08 00 00 00 00 00      	ldxdw r8, [r5 + 0x8]
    f388: 5d 78 75 08 00 00 00 00      	jne r8, r7, +0x875 <entrypoint+0x12f10>
    f390: 79 47 60 00 00 00 00 00      	ldxdw r7, [r4 + 0x60]
    f398: 79 58 10 00 00 00 00 00      	ldxdw r8, [r5 + 0x10]
    f3a0: 5d 78 72 08 00 00 00 00      	jne r8, r7, +0x872 <entrypoint+0x12f10>
    f3a8: 79 47 68 00 00 00 00 00      	ldxdw r7, [r4 + 0x68]
    f3b0: 79 58 18 00 00 00 00 00      	ldxdw r8, [r5 + 0x18]
    f3b8: 5d 78 6f 08 00 00 00 00      	jne r8, r7, +0x86f <entrypoint+0x12f10>
    f3c0: 79 47 70 00 00 00 00 00      	ldxdw r7, [r4 + 0x70]
    f3c8: 79 58 20 00 00 00 00 00      	ldxdw r8, [r5 + 0x20]
    f3d0: 5d 78 6c 08 00 00 00 00      	jne r8, r7, +0x86c <entrypoint+0x12f10>
    f3d8: b7 01 00 00 00 00 00 00      	mov64 r1, 0x0
    f3e0: 79 50 50 00 00 00 00 00      	ldxdw r0, [r5 + 0x50]
    f3e8: 55 00 d9 02 52 00 00 00      	jne r0, 0x52, +0x2d9 <entrypoint+0x10290>
    f3f0: 71 50 85 00 00 00 00 00      	ldxb r0, [r5 + 0x85]
    f3f8: 15 00 b9 04 01 00 00 00      	jeq r0, 0x1, +0x4b9 <entrypoint+0x111a0>
    f400: 15 00 d0 00 00 00 00 00      	jeq r0, 0x0, +0xd0 <entrypoint+0xf260>
    f408: 05 00 d5 02 00 00 00 00      	ja +0x2d5 <entrypoint+0x10290>
    f410: 15 05 36 01 13 00 00 00      	jeq r5, 0x13, +0x136 <entrypoint+0xf5a0>
    f418: 55 05 63 08 15 00 00 00      	jne r5, 0x15, +0x863 <entrypoint+0x12f10>
    f420: b7 01 00 00 02 00 00 00      	mov64 r1, 0x2
    f428: 15 02 af 01 00 00 00 00      	jeq r2, 0x0, +0x1af <entrypoint+0xf980>
    f430: 79 62 00 00 00 00 00 00      	ldxdw r2, [r6 + 0x0]
    f438: 79 23 28 00 00 00 00 00      	ldxdw r3, [r2 + 0x28]
    f440: 18 04 00 00 06 dd f6 e1 00 00 00 00 d7 65 a1 93      	lddw r4, -0x6c5e9a281e0922fa
    f450: 5d 43 1a 08 00 00 00 00      	jne r3, r4, +0x81a <entrypoint+0x12d00>
    f458: 79 23 30 00 00 00 00 00      	ldxdw r3, [r2 + 0x30]
    f460: 18 04 00 00 d9 cb e1 46 00 00 00 00 ce eb 79 ac      	lddw r4, -0x53861431b91e3427
    f470: 5d 43 16 08 00 00 00 00      	jne r3, r4, +0x816 <entrypoint+0x12d00>
    f478: 79 23 38 00 00 00 00 00      	ldxdw r3, [r2 + 0x38]
    f480: 18 04 00 00 1c b4 85 ed 00 00 00 00 5f 5b 37 91      	lddw r4, -0x6ec8a4a0127a4be4
    f490: 5d 43 12 08 00 00 00 00      	jne r3, r4, +0x812 <entrypoint+0x12d00>
    f498: 79 23 40 00 00 00 00 00      	ldxdw r3, [r2 + 0x40]
    f4a0: 18 04 00 00 3a 8c f5 85 00 00 00 00 7e ff 00 a9      	lddw r4, -0x56ff00817a0a73c6
    f4b0: 5d 43 0e 08 00 00 00 00      	jne r3, r4, +0x80e <entrypoint+0x12d00>
    f4b8: 79 23 50 00 00 00 00 00      	ldxdw r3, [r2 + 0x50]
    f4c0: 55 03 4e 08 52 00 00 00      	jne r3, 0x52, +0x84e <entrypoint+0x12f10>
    f4c8: 71 22 85 00 00 00 00 00      	ldxb r2, [r2 + 0x85]
    f4d0: 55 02 4c 08 01 00 00 00      	jne r2, 0x1, +0x84c <entrypoint+0x12f10>
    f4d8: 7a 0a a8 fe a5 00 00 00      	stdw [r10 - 0x158], 0xa5
    f4e0: bf a1 00 00 00 00 00 00      	mov64 r1, r10
    f4e8: 07 01 00 00 a8 fe ff ff      	add64 r1, -0x158
    f4f0: b7 02 00 00 08 00 00 00      	mov64 r2, 0x8
    f4f8: 85 10 00 00 ff ff ff ff      	call -0x1
    f500: b7 01 00 00 02 00 00 00      	mov64 r1, 0x2
    f508: b7 00 00 00 1a 00 00 00      	mov64 r0, 0x1a
    f510: 05 00 44 08 00 00 00 00      	ja +0x844 <entrypoint+0x12f10>
    f518: 15 05 2e 01 26 00 00 00      	jeq r5, 0x26, +0x12e <entrypoint+0xf668>
    f520: 55 05 42 08 2d 00 00 00      	jne r5, 0x2d, +0x842 <entrypoint+0x12f10>
    f528: 15 04 41 08 00 00 00 00      	jeq r4, 0x0, +0x841 <entrypoint+0x12f10>
    f530: 71 35 00 00 00 00 00 00      	ldxb r5, [r3 + 0x0]
    f538: 55 05 3a 08 00 00 00 00      	jne r5, 0x0, +0x83a <entrypoint+0x12ee8>
    f540: b5 02 3d 08 02 00 00 00      	jle r2, 0x2, +0x83d <entrypoint+0x12f08>
    f548: b7 01 00 00 00 00 00 00      	mov64 r1, 0x0
    f550: 79 63 00 00 00 00 00 00      	ldxdw r3, [r6 + 0x0]
    f558: 79 34 50 00 00 00 00 00      	ldxdw r4, [r3 + 0x50]
    f560: 55 04 e6 04 a5 00 00 00      	jne r4, 0xa5, +0x4e6 <entrypoint+0x11470>
    f568: 71 34 c4 00 00 00 00 00      	ldxb r4, [r3 + 0xc4]
    f570: 25 04 e4 04 02 00 00 00      	jgt r4, 0x2, +0x4e4 <entrypoint+0x11470>
    f578: b7 00 00 00 09 00 00 00      	mov64 r0, 0x9
    f580: 15 04 36 08 00 00 00 00      	jeq r4, 0x0, +0x836 <entrypoint+0x12f10>
    f588: 71 31 c5 00 00 00 00 00      	ldxb r1, [r3 + 0xc5]
    f590: 55 01 cb 02 01 00 00 00      	jne r1, 0x1, +0x2cb <entrypoint+0x103c8>
    f598: 79 34 98 00 00 00 00 00      	ldxdw r4, [r3 + 0x98]
    f5a0: 15 05 f0 04 00 00 00 00      	jeq r5, 0x0, +0x4f0 <entrypoint+0x11500>
    f5a8: 3d 74 29 05 00 00 00 00      	jge r4, r7, +0x529 <entrypoint+0x116d0>
    f5b0: b7 00 00 00 00 00 00 00      	mov64 r0, 0x0
    f5b8: b7 01 00 00 01 00 00 00      	mov64 r1, 0x1
    f5c0: 05 00 2e 08 00 00 00 00      	ja +0x82e <entrypoint+0x12f10>
    f5c8: 07 02 00 00 ff ff ff ff      	add64 r2, -0x1
    f5d0: bf 13 00 00 00 00 00 00      	mov64 r3, r1
    f5d8: 1f 82 00 00 00 00 00 00      	sub64 r2, r8
    f5e0: 55 03 9d 02 30 00 00 00      	jne r3, 0x30, +0x29d <entrypoint+0x102a8>
    f5e8: bf 29 00 00 00 00 00 00      	mov64 r9, r2
    f5f0: 15 09 9a 02 00 00 00 00      	jeq r9, 0x0, +0x29a <entrypoint+0x102a0>
    f5f8: bf 82 00 00 00 00 00 00      	mov64 r2, r8
    f600: 0f 92 00 00 00 00 00 00      	add64 r2, r9
    f608: 71 21 ff ff 00 00 00 00      	ldxb r1, [r2 - 0x1]
    f610: 67 01 00 00 38 00 00 00      	lsh64 r1, 0x38
    f618: c7 01 00 00 38 00 00 00      	arsh64 r1, 0x38
    f620: 65 01 f4 ff ff ff ff ff      	jsgt r1, -0x1, -0xc <entrypoint+0xeda0>
    f628: 71 24 fe ff 00 00 00 00      	ldxb r4, [r2 - 0x2]
    f630: 67 04 00 00 38 00 00 00      	lsh64 r4, 0x38
    f638: c7 04 00 00 38 00 00 00      	arsh64 r4, 0x38
    f640: 75 04 0c 00 c0 ff ff ff      	jsge r4, -0x40, +0xc <entrypoint+0xee80>
    f648: 71 23 fd ff 00 00 00 00      	ldxb r3, [r2 - 0x3]
    f650: 67 03 00 00 38 00 00 00      	lsh64 r3, 0x38
    f658: c7 03 00 00 38 00 00 00      	arsh64 r3, 0x38
    f660: 75 03 0c 00 c0 ff ff ff      	jsge r3, -0x40, +0xc <entrypoint+0xeea0>
    f668: 57 03 00 00 3f 00 00 00      	and64 r3, 0x3f
    f670: 71 25 fc ff 00 00 00 00      	ldxb r5, [r2 - 0x4]
    f678: 57 05 00 00 07 00 00 00      	and64 r5, 0x7
    f680: 67 05 00 00 06 00 00 00      	lsh64 r5, 0x6
    f688: 4f 35 00 00 00 00 00 00      	or64 r5, r3
    f690: 07 02 00 00 fc ff ff ff      	add64 r2, -0x4
    f698: bf 53 00 00 00 00 00 00      	mov64 r3, r5
    f6a0: 05 00 06 00 00 00 00 00      	ja +0x6 <entrypoint+0xeeb0>
    f6a8: 07 02 00 00 fe ff ff ff      	add64 r2, -0x2
    f6b0: 57 04 00 00 1f 00 00 00      	and64 r4, 0x1f
    f6b8: bf 43 00 00 00 00 00 00      	mov64 r3, r4
    f6c0: 05 00 05 00 00 00 00 00      	ja +0x5 <entrypoint+0xeec8>
    f6c8: 07 02 00 00 fd ff ff ff      	add64 r2, -0x3
    f6d0: 57 03 00 00 0f 00 00 00      	and64 r3, 0xf
    f6d8: 57 04 00 00 3f 00 00 00      	and64 r4, 0x3f
    f6e0: 67 03 00 00 06 00 00 00      	lsh64 r3, 0x6
    f6e8: 4f 43 00 00 00 00 00 00      	or64 r3, r4
    f6f0: 57 01 00 00 3f 00 00 00      	and64 r1, 0x3f
    f6f8: 67 03 00 00 06 00 00 00      	lsh64 r3, 0x6
    f700: 4f 13 00 00 00 00 00 00      	or64 r3, r1
    f708: 1f 82 00 00 00 00 00 00      	sub64 r2, r8
    f710: 15 03 da ff 30 00 00 00      	jeq r3, 0x30, -0x26 <entrypoint+0xedc0>
    f718: 05 00 76 02 00 00 00 00      	ja +0x276 <entrypoint+0x102a8>
    f720: a5 04 02 08 02 00 00 00      	jlt r4, 0x2, +0x802 <entrypoint+0x12f10>
    f728: 71 37 00 00 00 00 00 00      	ldxb r7, [r3 + 0x0]
    f730: bf 71 00 00 00 00 00 00      	mov64 r1, r7
    f738: a5 07 01 00 04 00 00 00      	jlt r7, 0x4, +0x1 <entrypoint+0xef20>
    f740: b7 01 00 00 0c 00 00 00      	mov64 r1, 0xc
    f748: 25 07 fd 07 03 00 00 00      	jgt r7, 0x3, +0x7fd <entrypoint+0x12f10>
    f750: b7 01 00 00 0c 00 00 00      	mov64 r1, 0xc
    f758: 71 35 01 00 00 00 00 00      	ldxb r5, [r3 + 0x1]
    f760: 55 05 72 01 00 00 00 00      	jne r5, 0x0, +0x172 <entrypoint+0xfad0>
    f768: b7 03 00 00 00 00 00 00      	mov64 r3, 0x0
    f770: 05 00 73 01 00 00 00 00      	ja +0x173 <entrypoint+0xfae8>
    f778: a5 02 f6 07 03 00 00 00      	jlt r2, 0x3, +0x7f6 <entrypoint+0x12f08>
    f780: b7 00 00 00 03 00 00 00      	mov64 r0, 0x3
    f788: b7 01 00 00 00 00 00 00      	mov64 r1, 0x0
    f790: 79 63 00 00 00 00 00 00      	ldxdw r3, [r6 + 0x0]
    f798: 79 34 50 00 00 00 00 00      	ldxdw r4, [r3 + 0x50]
    f7a0: 55 04 f2 07 a5 00 00 00      	jne r4, 0xa5, +0x7f2 <entrypoint+0x12f10>
    f7a8: 71 34 c4 00 00 00 00 00      	ldxb r4, [r3 + 0xc4]
    f7b0: 25 04 f0 07 02 00 00 00      	jgt r4, 0x2, +0x7f0 <entrypoint+0x12f10>
    f7b8: 15 04 a4 01 02 00 00 00      	jeq r4, 0x2, +0x1a4 <entrypoint+0xfcb8>
    f7c0: b7 00 00 00 09 00 00 00      	mov64 r0, 0x9
    f7c8: 15 04 ed 07 00 00 00 00      	jeq r4, 0x0, +0x7ed <entrypoint+0x12f10>
    f7d0: b7 00 00 00 00 00 00 00      	mov64 r0, 0x0
    f7d8: b7 01 00 00 0d 00 00 00      	mov64 r1, 0xd
    f7e0: 05 00 ea 07 00 00 00 00      	ja +0x7ea <entrypoint+0x12f10>
    f7e8: a5 04 e9 07 08 00 00 00      	jlt r4, 0x8, +0x7e9 <entrypoint+0x12f10>
    f7f0: b5 02 e7 07 02 00 00 00      	jle r2, 0x2, +0x7e7 <entrypoint+0x12f08>
    f7f8: b7 01 00 00 00 00 00 00      	mov64 r1, 0x0
    f800: 79 64 00 00 00 00 00 00      	ldxdw r4, [r6 + 0x0]
    f808: 79 45 50 00 00 00 00 00      	ldxdw r5, [r4 + 0x50]
    f810: 55 05 90 04 a5 00 00 00      	jne r5, 0xa5, +0x490 <entrypoint+0x11470>
    f818: 71 45 c4 00 00 00 00 00      	ldxb r5, [r4 + 0xc4]
    f820: 25 05 8e 04 02 00 00 00      	jgt r5, 0x2, +0x48e <entrypoint+0x11470>
    f828: 15 05 94 01 02 00 00 00      	jeq r5, 0x2, +0x194 <entrypoint+0xfca8>
    f830: b7 00 00 00 09 00 00 00      	mov64 r0, 0x9
    f838: 15 05 df 07 00 00 00 00      	jeq r5, 0x0, +0x7df <entrypoint+0x12f10>
    f840: b7 00 00 00 00 00 00 00      	mov64 r0, 0x0
    f848: b7 01 00 00 04 00 00 00      	mov64 r1, 0x4
    f850: 79 47 78 00 00 00 00 00      	ldxdw r7, [r4 + 0x78]
    f858: 79 65 10 00 00 00 00 00      	ldxdw r5, [r6 + 0x10]
    f860: 79 58 08 00 00 00 00 00      	ldxdw r8, [r5 + 0x8]
    f868: 5d 87 d9 07 00 00 00 00      	jne r7, r8, +0x7d9 <entrypoint+0x12f10>
    f870: 79 57 10 00 00 00 00 00      	ldxdw r7, [r5 + 0x10]
    f878: 79 48 80 00 00 00 00 00      	ldxdw r8, [r4 + 0x80]
    f880: 5d 78 d6 07 00 00 00 00      	jne r8, r7, +0x7d6 <entrypoint+0x12f10>
    f888: 79 57 18 00 00 00 00 00      	ldxdw r7, [r5 + 0x18]
    f890: 79 48 88 00 00 00 00 00      	ldxdw r8, [r4 + 0x88]
    f898: 5d 78 d3 07 00 00 00 00      	jne r8, r7, +0x7d3 <entrypoint+0x12f10>
    f8a0: 79 57 20 00 00 00 00 00      	ldxdw r7, [r5 + 0x20]
    f8a8: 79 48 90 00 00 00 00 00      	ldxdw r8, [r4 + 0x90]
    f8b0: 5d 78 d0 07 00 00 00 00      	jne r8, r7, +0x7d0 <entrypoint+0x12f10>
    f8b8: 79 33 00 00 00 00 00 00      	ldxdw r3, [r3 + 0x0]
    f8c0: 79 51 50 00 00 00 00 00      	ldxdw r1, [r5 + 0x50]
    f8c8: 55 01 58 05 63 01 00 00      	jne r1, 0x163, +0x558 <entrypoint+0x11b68>
    f8d0: 79 51 28 00 00 00 00 00      	ldxdw r1, [r5 + 0x28]
    f8d8: 18 00 00 00 06 dd f6 e1 00 00 00 00 ee 75 8f de      	lddw r0, -0x21708a111e0922fa
    f8e8: 1d 01 48 05 00 00 00 00      	jeq r1, r0, +0x548 <entrypoint+0x11b08>
    f8f0: 18 00 00 00 06 dd f6 e1 00 00 00 00 d7 65 a1 93      	lddw r0, -0x6c5e9a281e0922fa
    f900: 5d 01 51 05 00 00 00 00      	jne r1, r0, +0x551 <entrypoint+0x11b68>
    f908: 79 51 30 00 00 00 00 00      	ldxdw r1, [r5 + 0x30]
    f910: 18 00 00 00 d9 cb e1 46 00 00 00 00 ce eb 79 ac      	lddw r0, -0x53861431b91e3427
    f920: 5d 01 4d 05 00 00 00 00      	jne r1, r0, +0x54d <entrypoint+0x11b68>
    f928: 79 51 38 00 00 00 00 00      	ldxdw r1, [r5 + 0x38]
    f930: 18 00 00 00 1c b4 85 ed 00 00 00 00 5f 5b 37 91      	lddw r0, -0x6ec8a4a0127a4be4
    f940: 5d 01 49 05 00 00 00 00      	jne r1, r0, +0x549 <entrypoint+0x11b68>
    f948: 79 51 40 00 00 00 00 00      	ldxdw r1, [r5 + 0x40]
    f950: 18 00 00 00 3a 8c f5 85 00 00 00 00 7e ff 00 a9      	lddw r0, -0x56ff00817a0a73c6
    f960: 5d 01 45 05 00 00 00 00      	jne r1, r0, +0x545 <entrypoint+0x11b68>
    f968: 05 00 77 08 00 00 00 00      	ja +0x877 <entrypoint+0x13500>
    f970: a5 04 b8 07 09 00 00 00      	jlt r4, 0x9, +0x7b8 <entrypoint+0x12f10>
    f978: a5 02 00 01 03 00 00 00      	jlt r2, 0x3, +0x100 <entrypoint+0xf958>
    f980: b7 00 00 00 03 00 00 00      	mov64 r0, 0x3
    f988: b7 01 00 00 00 00 00 00      	mov64 r1, 0x0
    f990: 79 64 08 00 00 00 00 00      	ldxdw r4, [r6 + 0x8]
    f998: 79 45 50 00 00 00 00 00      	ldxdw r5, [r4 + 0x50]
    f9a0: 55 05 b2 07 a5 00 00 00      	jne r5, 0xa5, +0x7b2 <entrypoint+0x12f10>
    f9a8: 71 45 c4 00 00 00 00 00      	ldxb r5, [r4 + 0xc4]
    f9b0: 25 05 b0 07 02 00 00 00      	jgt r5, 0x2, +0x7b0 <entrypoint+0x12f10>
    f9b8: 15 05 ff 00 02 00 00 00      	jeq r5, 0x2, +0xff <entrypoint+0xf990>
    f9c0: b7 00 00 00 09 00 00 00      	mov64 r0, 0x9
    f9c8: 15 05 ad 07 00 00 00 00      	jeq r5, 0x0, +0x7ad <entrypoint+0x12f10>
    f9d0: b7 00 00 00 00 00 00 00      	mov64 r0, 0x0
    f9d8: 71 41 c5 00 00 00 00 00      	ldxb r1, [r4 + 0xc5]
    f9e0: 15 01 58 08 01 00 00 00      	jeq r1, 0x1, +0x858 <entrypoint+0x13480>
    f9e8: b7 01 00 00 03 00 00 00      	mov64 r1, 0x3
    f9f0: 79 47 58 00 00 00 00 00      	ldxdw r7, [r4 + 0x58]
    f9f8: 79 65 00 00 00 00 00 00      	ldxdw r5, [r6 + 0x0]
    fa00: 79 58 08 00 00 00 00 00      	ldxdw r8, [r5 + 0x8]
    fa08: 5d 78 a5 07 00 00 00 00      	jne r8, r7, +0x7a5 <entrypoint+0x12f10>
    fa10: 79 47 60 00 00 00 00 00      	ldxdw r7, [r4 + 0x60]
    fa18: 79 58 10 00 00 00 00 00      	ldxdw r8, [r5 + 0x10]
    fa20: 5d 78 a2 07 00 00 00 00      	jne r8, r7, +0x7a2 <entrypoint+0x12f10>
    fa28: 79 47 68 00 00 00 00 00      	ldxdw r7, [r4 + 0x68]
    fa30: 79 58 18 00 00 00 00 00      	ldxdw r8, [r5 + 0x18]
    fa38: 5d 78 9f 07 00 00 00 00      	jne r8, r7, +0x79f <entrypoint+0x12f10>
    fa40: 79 47 70 00 00 00 00 00      	ldxdw r7, [r4 + 0x70]
    fa48: 79 58 20 00 00 00 00 00      	ldxdw r8, [r5 + 0x20]
    fa50: 5d 78 9c 07 00 00 00 00      	jne r8, r7, +0x79c <entrypoint+0x12f10>
    fa58: b7 01 00 00 00 00 00 00      	mov64 r1, 0x0
    fa60: 79 50 50 00 00 00 00 00      	ldxdw r0, [r5 + 0x50]
    fa68: 55 00 09 02 52 00 00 00      	jne r0, 0x52, +0x209 <entrypoint+0x10290>
    fa70: 71 50 85 00 00 00 00 00      	ldxb r0, [r5 + 0x85]
    fa78: 15 00 12 04 01 00 00 00      	jeq r0, 0x1, +0x412 <entrypoint+0x112e8>
    fa80: 55 00 06 02 00 00 00 00      	jne r0, 0x0, +0x206 <entrypoint+0x10290>
    fa88: b7 00 00 00 09 00 00 00      	mov64 r0, 0x9
    fa90: 05 00 94 07 00 00 00 00      	ja +0x794 <entrypoint+0x12f10>
    fa98: a5 04 93 07 08 00 00 00      	jlt r4, 0x8, +0x793 <entrypoint+0x12f10>
    faa0: 15 02 dd 00 00 00 00 00      	jeq r2, 0x0, +0xdd <entrypoint+0xf968>
    faa8: b7 00 00 00 06 00 00 00      	mov64 r0, 0x6
    fab0: 79 66 00 00 00 00 00 00      	ldxdw r6, [r6 + 0x0]
    fab8: 79 61 28 00 00 00 00 00      	ldxdw r1, [r6 + 0x28]
    fac0: 18 02 00 00 06 dd f6 e1 00 00 00 00 d7 65 a1 93      	lddw r2, -0x6c5e9a281e0922fa
    fad0: 5d 21 8c 07 00 00 00 00      	jne r1, r2, +0x78c <entrypoint+0x12f10>
    fad8: 79 61 30 00 00 00 00 00      	ldxdw r1, [r6 + 0x30]
    fae0: 18 02 00 00 d9 cb e1 46 00 00 00 00 ce eb 79 ac      	lddw r2, -0x53861431b91e3427
    faf0: 5d 21 88 07 00 00 00 00      	jne r1, r2, +0x788 <entrypoint+0x12f10>
    faf8: 79 61 38 00 00 00 00 00      	ldxdw r1, [r6 + 0x38]
    fb00: 18 02 00 00 1c b4 85 ed 00 00 00 00 5f 5b 37 91      	lddw r2, -0x6ec8a4a0127a4be4
    fb10: 5d 21 84 07 00 00 00 00      	jne r1, r2, +0x784 <entrypoint+0x12f10>
    fb18: 79 61 40 00 00 00 00 00      	ldxdw r1, [r6 + 0x40]
    fb20: 18 02 00 00 3a 8c f5 85 00 00 00 00 7e ff 00 a9      	lddw r2, -0x56ff00817a0a73c6
    fb30: 5d 21 80 07 00 00 00 00      	jne r1, r2, +0x780 <entrypoint+0x12f10>
    fb38: b7 00 00 00 00 00 00 00      	mov64 r0, 0x0
    fb40: b7 01 00 00 02 00 00 00      	mov64 r1, 0x2
    fb48: 79 62 50 00 00 00 00 00      	ldxdw r2, [r6 + 0x50]
    fb50: 55 02 7c 07 52 00 00 00      	jne r2, 0x52, +0x77c <entrypoint+0x12f10>
    fb58: 71 62 85 00 00 00 00 00      	ldxb r2, [r6 + 0x85]
    fb60: 55 02 7a 07 01 00 00 00      	jne r2, 0x1, +0x77a <entrypoint+0x12f10>
    fb68: 79 31 00 00 00 00 00 00      	ldxdw r1, [r3 + 0x0]
    fb70: bf a9 00 00 00 00 00 00      	mov64 r9, r10
    fb78: 07 09 00 00 b0 fe ff ff      	add64 r9, -0x150
    fb80: 7a 0a a8 fe 00 00 00 00      	stdw [r10 - 0x158], 0x0
    fb88: 71 60 84 00 00 00 00 00      	ldxb r0, [r6 + 0x84]
    fb90: 15 01 42 01 00 00 00 00      	jeq r1, 0x0, +0x142 <entrypoint+0xfd80>
    fb98: 7b 9a a0 fe 00 00 00 00      	stxdw [r10 - 0x160], r9
    fba0: b7 07 00 00 00 00 00 00      	mov64 r7, 0x0
    fba8: b7 09 00 00 00 00 00 00      	mov64 r9, 0x0
    fbb0: bf 12 00 00 00 00 00 00      	mov64 r2, r1
    fbb8: bf a3 00 00 00 00 00 00      	mov64 r3, r10
    fbc0: 07 03 00 00 b8 ff ff ff      	add64 r3, -0x48
    fbc8: 0f 93 00 00 00 00 00 00      	add64 r3, r9
    fbd0: 37 01 00 00 0a 00 00 00      	div64 r1, 0xa
    fbd8: bf 14 00 00 00 00 00 00      	mov64 r4, r1
    fbe0: 27 04 00 00 0a 00 00 00      	mul64 r4, 0xa
    fbe8: bf 25 00 00 00 00 00 00      	mov64 r5, r2
    fbf0: 1f 45 00 00 00 00 00 00      	sub64 r5, r4
    fbf8: 47 05 00 00 30 00 00 00      	or64 r5, 0x30
    fc00: 73 53 13 00 00 00 00 00      	stxb [r3 + 0x13], r5
    fc08: 07 07 00 00 01 00 00 00      	add64 r7, 0x1
    fc10: 07 09 00 00 ff ff ff ff      	add64 r9, -0x1
    fc18: 25 02 f2 ff 09 00 00 00      	jgt r2, 0x9, -0xe <entrypoint+0xf388>
    fc20: bf a2 00 00 00 00 00 00      	mov64 r2, r10
    fc28: 07 02 00 00 b8 ff ff ff      	add64 r2, -0x48
    fc30: 0f 92 00 00 00 00 00 00      	add64 r2, r9
    fc38: bf 98 00 00 00 00 00 00      	mov64 r8, r9
    fc40: 87 08 00 00 00 00 00 00      	neg64 r8
    fc48: 07 02 00 00 14 00 00 00      	add64 r2, 0x14
    fc50: 15 00 f8 01 00 00 00 00      	jeq r0, 0x0, +0x1f8 <entrypoint+0x103f0>
    fc58: bf 84 00 00 00 00 00 00      	mov64 r4, r8
    fc60: a5 08 01 00 01 01 00 00      	jlt r8, 0x101, +0x1 <entrypoint+0xf448>
    fc68: b7 04 00 00 01 01 00 00      	mov64 r4, 0x101
    fc70: b7 03 00 00 01 00 00 00      	mov64 r3, 0x1
    fc78: 1f 93 00 00 00 00 00 00      	sub64 r3, r9
    fc80: bf 05 00 00 00 00 00 00      	mov64 r5, r0
    fc88: 07 05 00 00 02 00 00 00      	add64 r5, 0x2
    fc90: bf 31 00 00 00 00 00 00      	mov64 r1, r3
    fc98: 2d 08 01 00 00 00 00 00      	jgt r8, r0, +0x1 <entrypoint+0xf480>
    fca0: bf 51 00 00 00 00 00 00      	mov64 r1, r5
    fca8: 7b 1a 98 fe 00 00 00 00      	stxdw [r10 - 0x168], r1
    fcb0: bd 08 2f 03 00 00 00 00      	jle r8, r0, +0x32f <entrypoint+0x10e08>
    fcb8: 7b 3a 80 fe 00 00 00 00      	stxdw [r10 - 0x180], r3
    fcc0: 1f 04 00 00 00 00 00 00      	sub64 r4, r0
    fcc8: 7b 4a 88 fe 00 00 00 00      	stxdw [r10 - 0x178], r4
    fcd0: 79 a8 a0 fe 00 00 00 00      	ldxdw r8, [r10 - 0x160]
    fcd8: bf 81 00 00 00 00 00 00      	mov64 r1, r8
    fce0: bf 43 00 00 00 00 00 00      	mov64 r3, r4
    fce8: 7b 0a 90 fe 00 00 00 00      	stxdw [r10 - 0x170], r0
    fcf0: 85 10 00 00 ff ff ff ff      	call -0x1
    fcf8: 79 a4 88 fe 00 00 00 00      	ldxdw r4, [r10 - 0x178]
    fd00: 79 a2 90 fe 00 00 00 00      	ldxdw r2, [r10 - 0x170]
    fd08: 0f 48 00 00 00 00 00 00      	add64 r8, r4
    fd10: 72 08 00 00 2e 00 00 00      	stb [r8 + 0x0], 0x2e
    fd18: 25 04 30 03 ff 00 00 00      	jgt r4, 0xff, +0x330 <entrypoint+0x10e78>
    fd20: b7 03 00 00 00 01 00 00      	mov64 r3, 0x100
    fd28: 1f 43 00 00 00 00 00 00      	sub64 r3, r4
    fd30: a5 07 01 00 01 01 00 00      	jlt r7, 0x101, +0x1 <entrypoint+0xf518>
    fd38: b7 07 00 00 01 01 00 00      	mov64 r7, 0x101
    fd40: 1f 27 00 00 00 00 00 00      	sub64 r7, r2
    fd48: ad 23 01 00 00 00 00 00      	jlt r3, r2, +0x1 <entrypoint+0xf530>
    fd50: bf 23 00 00 00 00 00 00      	mov64 r3, r2
    fd58: bf a2 00 00 00 00 00 00      	mov64 r2, r10
    fd60: 07 02 00 00 b8 ff ff ff      	add64 r2, -0x48
    fd68: 0f 27 00 00 00 00 00 00      	add64 r7, r2
    fd70: 0f 97 00 00 00 00 00 00      	add64 r7, r9
    fd78: 07 07 00 00 14 00 00 00      	add64 r7, 0x14
    fd80: 07 08 00 00 01 00 00 00      	add64 r8, 0x1
    fd88: bf 81 00 00 00 00 00 00      	mov64 r1, r8
    fd90: bf 72 00 00 00 00 00 00      	mov64 r2, r7
    fd98: 85 10 00 00 ff ff ff ff      	call -0x1
    fda0: 79 a8 80 fe 00 00 00 00      	ldxdw r8, [r10 - 0x180]
    fda8: 79 a9 a0 fe 00 00 00 00      	ldxdw r9, [r10 - 0x160]
    fdb0: 79 a1 98 fe 00 00 00 00      	ldxdw r1, [r10 - 0x168]
    fdb8: 25 01 d2 01 01 01 00 00      	jgt r1, 0x101, +0x1d2 <entrypoint+0x10428>
    fdc0: 05 00 d3 01 00 00 00 00      	ja +0x1d3 <entrypoint+0x10438>
    fdc8: 15 04 2d 07 00 00 00 00      	jeq r4, 0x0, +0x72d <entrypoint+0x12f10>
    fdd0: 15 02 2b 07 00 00 00 00      	jeq r2, 0x0, +0x72b <entrypoint+0x12f08>
    fdd8: bf 29 00 00 00 00 00 00      	mov64 r9, r2
    fde0: 71 37 00 00 00 00 00 00      	ldxb r7, [r3 + 0x0]
    fde8: 7b 6a a0 fe 00 00 00 00      	stxdw [r10 - 0x160], r6
    fdf0: 79 68 00 00 00 00 00 00      	ldxdw r8, [r6 + 0x0]
    fdf8: 79 86 50 00 00 00 00 00      	ldxdw r6, [r8 + 0x50]
    fe00: bf a1 00 00 00 00 00 00      	mov64 r1, r10
    fe08: 07 01 00 00 a8 fe ff ff      	add64 r1, -0x158
    fe10: 85 10 00 00 72 0d 00 00      	call 0xd72
    fe18: 61 a1 a8 fe 00 00 00 00      	ldxw r1, [r10 - 0x158]
    fe20: 15 01 0e 06 01 00 00 00      	jeq r1, 0x1, +0x60e <entrypoint+0x12670>
    fe28: 07 06 00 00 80 00 00 00      	add64 r6, 0x80
    fe30: 79 a1 b0 fe 00 00 00 00      	ldxdw r1, [r10 - 0x150]
    fe38: 2f 61 00 00 00 00 00 00      	mul64 r1, r6
    fe40: 79 a6 b8 fe 00 00 00 00      	ldxdw r6, [r10 - 0x148]
    fe48: 79 84 48 00 00 00 00 00      	ldxdw r4, [r8 + 0x48]
    fe50: 18 02 00 00 00 00 00 00 00 00 00 00 00 00 f0 3f      	lddw r2, 0x3ff0000000000000
    fe60: 1d 26 6e 02 00 00 00 00      	jeq r6, r2, +0x26e <entrypoint+0x109b0>
    fe68: 18 02 00 00 00 00 00 00 00 00 00 00 00 00 00 40      	lddw r2, 0x4000000000000000
    fe78: 5d 26 51 02 00 00 00 00      	jne r6, r2, +0x251 <entrypoint+0x108e0>
    fe80: 67 01 00 00 01 00 00 00      	lsh64 r1, 0x1
    fe88: 05 00 69 02 00 00 00 00      	ja +0x269 <entrypoint+0x109b0>
    fe90: a5 02 13 07 03 00 00 00      	jlt r2, 0x3, +0x713 <entrypoint+0x12f08>
    fe98: bf 63 00 00 00 00 00 00      	mov64 r3, r6
    fea0: 07 03 00 00 18 00 00 00      	add64 r3, 0x18
    fea8: 79 68 00 00 00 00 00 00      	ldxdw r8, [r6 + 0x0]
    feb0: 79 87 50 00 00 00 00 00      	ldxdw r7, [r8 + 0x50]
    feb8: 15 07 bc 00 52 00 00 00      	jeq r7, 0x52, +0xbc <entrypoint+0xfc78>
    fec0: 15 07 61 00 63 01 00 00      	jeq r7, 0x163, +0x61 <entrypoint+0xf9a8>
    fec8: b7 01 00 00 0d 00 00 00      	mov64 r1, 0xd
    fed0: 55 07 0c 07 a5 00 00 00      	jne r7, 0xa5, +0x70c <entrypoint+0x12f10>
    fed8: b7 01 00 00 00 00 00 00      	mov64 r1, 0x0
    fee0: 71 84 c4 00 00 00 00 00      	ldxb r4, [r8 + 0xc4]
    fee8: 25 04 b5 03 02 00 00 00      	jgt r4, 0x2, +0x3b5 <entrypoint+0x11470>
    fef0: b7 00 00 00 09 00 00 00      	mov64 r0, 0x9
    fef8: 15 04 07 07 00 00 00 00      	jeq r4, 0x0, +0x707 <entrypoint+0x12f10>
    ff00: b7 00 00 00 00 00 00 00      	mov64 r0, 0x0
    ff08: b7 01 00 00 0a 00 00 00      	mov64 r1, 0xa
    ff10: 71 84 c5 00 00 00 00 00      	ldxb r4, [r8 + 0xc5]
    ff18: 15 04 03 07 01 00 00 00      	jeq r4, 0x1, +0x703 <entrypoint+0x12f10>
    ff20: b7 01 00 00 04 00 00 00      	mov64 r1, 0x4
    ff28: 79 85 78 00 00 00 00 00      	ldxdw r5, [r8 + 0x78]
    ff30: 79 64 10 00 00 00 00 00      	ldxdw r4, [r6 + 0x10]
    ff38: 79 49 08 00 00 00 00 00      	ldxdw r9, [r4 + 0x8]
    ff40: 5d 95 fe 06 00 00 00 00      	jne r5, r9, +0x6fe <entrypoint+0x12f10>
    ff48: 79 45 10 00 00 00 00 00      	ldxdw r5, [r4 + 0x10]
    ff50: 79 89 80 00 00 00 00 00      	ldxdw r9, [r8 + 0x80]
    ff58: 5d 59 fb 06 00 00 00 00      	jne r9, r5, +0x6fb <entrypoint+0x12f10>
    ff60: 79 45 18 00 00 00 00 00      	ldxdw r5, [r4 + 0x18]
    ff68: 79 89 88 00 00 00 00 00      	ldxdw r9, [r8 + 0x88]
    ff70: 5d 59 f8 06 00 00 00 00      	jne r9, r5, +0x6f8 <entrypoint+0x12f10>
    ff78: 79 45 20 00 00 00 00 00      	ldxdw r5, [r4 + 0x20]
    ff80: 79 89 90 00 00 00 00 00      	ldxdw r9, [r8 + 0x90]
    ff88: 5d 59 f5 06 00 00 00 00      	jne r9, r5, +0x6f5 <entrypoint+0x12f10>
    ff90: 7b 6a a0 fe 00 00 00 00      	stxdw [r10 - 0x160], r6
    ff98: 79 41 50 00 00 00 00 00      	ldxdw r1, [r4 + 0x50]
    ffa0: 55 01 d7 05 63 01 00 00      	jne r1, 0x163, +0x5d7 <entrypoint+0x12638>
    ffa8: 79 41 28 00 00 00 00 00      	ldxdw r1, [r4 + 0x28]
    ffb0: 18 05 00 00 06 dd f6 e1 00 00 00 00 ee 75 8f de      	lddw r5, -0x21708a111e0922fa
    ffc0: 1d 51 68 05 00 00 00 00      	jeq r1, r5, +0x568 <entrypoint+0x122e0>
    ffc8: 18 05 00 00 06 dd f6 e1 00 00 00 00 d7 65 a1 93      	lddw r5, -0x6c5e9a281e0922fa
    ffd8: 5d 51 d0 05 00 00 00 00      	jne r1, r5, +0x5d0 <entrypoint+0x12638>
    ffe0: 79 41 30 00 00 00 00 00      	ldxdw r1, [r4 + 0x30]
    ffe8: 18 05 00 00 d9 cb e1 46 00 00 00 00 ce eb 79 ac      	lddw r5, -0x53861431b91e3427
    fff8: 5d 51 cc 05 00 00 00 00      	jne r1, r5, +0x5cc <entrypoint+0x12638>
   10000: 79 41 38 00 00 00 00 00      	ldxdw r1, [r4 + 0x38]
   10008: 18 05 00 00 1c b4 85 ed 00 00 00 00 5f 5b 37 91      	lddw r5, -0x6ec8a4a0127a4be4
   10018: 5d 51 c8 05 00 00 00 00      	jne r1, r5, +0x5c8 <entrypoint+0x12638>
   10020: 79 41 40 00 00 00 00 00      	ldxdw r1, [r4 + 0x40]
   10028: 18 05 00 00 3a 8c f5 85 00 00 00 00 7e ff 00 a9      	lddw r5, -0x56ff00817a0a73c6
   10038: 5d 51 c4 05 00 00 00 00      	jne r1, r5, +0x5c4 <entrypoint+0x12638>
   10040: 05 00 64 05 00 00 00 00      	ja +0x564 <entrypoint+0x12340>
   10048: 15 04 dd 06 00 00 00 00      	jeq r4, 0x0, +0x6dd <entrypoint+0x12f10>
   10050: a5 02 db 06 02 00 00 00      	jlt r2, 0x2, +0x6db <entrypoint+0x12f08>
   10058: b7 00 00 00 01 00 00 00      	mov64 r0, 0x1
   10060: b7 01 00 00 00 00 00 00      	mov64 r1, 0x0
   10068: 79 64 08 00 00 00 00 00      	ldxdw r4, [r6 + 0x8]
   10070: 79 45 08 00 00 00 00 00      	ldxdw r5, [r4 + 0x8]
   10078: 18 07 00 00 06 a7 d5 17 00 00 00 00 19 2c 5c 51      	lddw r7, 0x515c2c1917d5a706
   10088: 5d 75 d5 06 00 00 00 00      	jne r5, r7, +0x6d5 <entrypoint+0x12f10>
   10090: 79 45 10 00 00 00 00 00      	ldxdw r5, [r4 + 0x10]
   10098: 18 07 00 00 21 8c c9 4c 00 00 00 00 3d 4a f1 7f      	lddw r7, 0x7ff14a3d4cc98c21
   100a8: 5d 75 d1 06 00 00 00 00      	jne r5, r7, +0x6d1 <entrypoint+0x12f10>
   100b0: 79 45 18 00 00 00 00 00      	ldxdw r5, [r4 + 0x18]
   100b8: 18 07 00 00 58 da ee 08 00 00 00 00 9b a1 fd 44      	lddw r7, 0x44fda19b08eeda58
   100c8: 5d 75 cd 06 00 00 00 00      	jne r5, r7, +0x6cd <entrypoint+0x12f10>
   100d0: 79 45 20 00 00 00 00 00      	ldxdw r5, [r4 + 0x20]
   100d8: 18 07 00 00 e3 db d9 8a 00 00 00 00 00 00 00 00      	lddw r7, 0x8ad9dbe3
   100e8: 5d 75 c9 06 00 00 00 00      	jne r5, r7, +0x6c9 <entrypoint+0x12f10>
   100f0: 71 30 00 00 00 00 00 00      	ldxb r0, [r3 + 0x0]
   100f8: 79 68 00 00 00 00 00 00      	ldxdw r8, [r6 + 0x0]
   10100: 79 89 50 00 00 00 00 00      	ldxdw r9, [r8 + 0x50]
   10108: bf 95 00 00 00 00 00 00      	mov64 r5, r9
   10110: 07 05 00 00 80 00 00 00      	add64 r5, 0x80
   10118: 79 43 58 00 00 00 00 00      	ldxdw r3, [r4 + 0x58]
   10120: 2f 53 00 00 00 00 00 00      	mul64 r3, r5
   10128: 79 85 48 00 00 00 00 00      	ldxdw r5, [r8 + 0x48]
   10130: 79 47 60 00 00 00 00 00      	ldxdw r7, [r4 + 0x60]
   10138: 18 04 00 00 00 00 00 00 00 00 00 00 00 00 f0 3f      	lddw r4, 0x3ff0000000000000
   10148: 7b 0a 98 fe 00 00 00 00      	stxdw [r10 - 0x168], r0
   10150: 1d 47 ad 00 00 00 00 00      	jeq r7, r4, +0xad <entrypoint+0xfe98>
   10158: 18 04 00 00 00 00 00 00 00 00 00 00 00 00 00 40      	lddw r4, 0x4000000000000000
   10168: 5d 47 8c 00 00 00 00 00      	jne r7, r4, +0x8c <entrypoint+0xfda8>
   10170: 67 03 00 00 01 00 00 00      	lsh64 r3, 0x1
   10178: 05 00 a8 00 00 00 00 00      	ja +0xa8 <entrypoint+0xfe98>
   10180: b7 00 00 00 0a 00 00 00      	mov64 r0, 0xa
   10188: 05 00 b5 06 00 00 00 00      	ja +0x6b5 <entrypoint+0x12f10>
   10190: b7 00 00 00 0a 00 00 00      	mov64 r0, 0xa
   10198: b7 01 00 00 00 00 00 00      	mov64 r1, 0x0
   101a0: 05 00 b2 06 00 00 00 00      	ja +0x6b2 <entrypoint+0x12f10>
   101a8: b7 00 00 00 0a 00 00 00      	mov64 r0, 0xa
   101b0: 05 00 b0 06 00 00 00 00      	ja +0x6b0 <entrypoint+0x12f10>
   101b8: b7 00 00 00 00 00 00 00      	mov64 r0, 0x0
   101c0: b7 01 00 00 11 00 00 00      	mov64 r1, 0x11
   101c8: 05 00 ad 06 00 00 00 00      	ja +0x6ad <entrypoint+0x12f10>
   101d0: b7 01 00 00 04 00 00 00      	mov64 r1, 0x4
   101d8: 79 85 08 00 00 00 00 00      	ldxdw r5, [r8 + 0x8]
   101e0: 79 64 10 00 00 00 00 00      	ldxdw r4, [r6 + 0x10]
   101e8: 79 49 08 00 00 00 00 00      	ldxdw r9, [r4 + 0x8]
   101f0: 5d 95 a8 06 00 00 00 00      	jne r5, r9, +0x6a8 <entrypoint+0x12f10>
   101f8: 79 45 10 00 00 00 00 00      	ldxdw r5, [r4 + 0x10]
   10200: 79 89 10 00 00 00 00 00      	ldxdw r9, [r8 + 0x10]
   10208: 5d 59 a5 06 00 00 00 00      	jne r9, r5, +0x6a5 <entrypoint+0x12f10>
   10210: 79 45 18 00 00 00 00 00      	ldxdw r5, [r4 + 0x18]
   10218: 79 89 18 00 00 00 00 00      	ldxdw r9, [r8 + 0x18]
   10220: 5d 59 a2 06 00 00 00 00      	jne r9, r5, +0x6a2 <entrypoint+0x12f10>
   10228: 79 45 20 00 00 00 00 00      	ldxdw r5, [r4 + 0x20]
   10230: 79 89 20 00 00 00 00 00      	ldxdw r9, [r8 + 0x20]
   10238: 5d 59 9f 06 00 00 00 00      	jne r9, r5, +0x69f <entrypoint+0x12f10>
   10240: 7b 6a a0 fe 00 00 00 00      	stxdw [r10 - 0x160], r6
   10248: 79 41 50 00 00 00 00 00      	ldxdw r1, [r4 + 0x50]
   10250: 55 01 81 05 63 01 00 00      	jne r1, 0x163, +0x581 <entrypoint+0x12638>
   10258: 79 41 28 00 00 00 00 00      	ldxdw r1, [r4 + 0x28]
   10260: 18 05 00 00 06 dd f6 e1 00 00 00 00 ee 75 8f de      	lddw r5, -0x21708a111e0922fa
   10270: 1d 51 e6 03 00 00 00 00      	jeq r1, r5, +0x3e6 <entrypoint+0x11980>
   10278: 18 05 00 00 06 dd f6 e1 00 00 00 00 d7 65 a1 93      	lddw r5, -0x6c5e9a281e0922fa
   10288: 5d 51 7a 05 00 00 00 00      	jne r1, r5, +0x57a <entrypoint+0x12638>
   10290: 79 41 30 00 00 00 00 00      	ldxdw r1, [r4 + 0x30]
   10298: 18 05 00 00 d9 cb e1 46 00 00 00 00 ce eb 79 ac      	lddw r5, -0x53861431b91e3427
   102a8: 5d 51 76 05 00 00 00 00      	jne r1, r5, +0x576 <entrypoint+0x12638>
   102b0: 79 41 38 00 00 00 00 00      	ldxdw r1, [r4 + 0x38]
   102b8: 18 05 00 00 1c b4 85 ed 00 00 00 00 5f 5b 37 91      	lddw r5, -0x6ec8a4a0127a4be4
   102c8: 5d 51 72 05 00 00 00 00      	jne r1, r5, +0x572 <entrypoint+0x12638>
   102d0: 79 41 40 00 00 00 00 00      	ldxdw r1, [r4 + 0x40]
   102d8: 18 05 00 00 3a 8c f5 85 00 00 00 00 7e ff 00 a9      	lddw r5, -0x56ff00817a0a73c6
   102e8: 5d 51 6e 05 00 00 00 00      	jne r1, r5, +0x56e <entrypoint+0x12638>
   102f0: 05 00 e2 03 00 00 00 00      	ja +0x3e2 <entrypoint+0x119e0>
   102f8: 55 05 87 06 01 00 00 00      	jne r5, 0x1, +0x687 <entrypoint+0x12f10>
   10300: a5 04 86 06 22 00 00 00      	jlt r4, 0x22, +0x686 <entrypoint+0x12f10>
   10308: 07 03 00 00 02 00 00 00      	add64 r3, 0x2
   10310: b5 02 83 06 01 00 00 00      	jle r2, 0x1, +0x683 <entrypoint+0x12f08>
   10318: bf 65 00 00 00 00 00 00      	mov64 r5, r6
   10320: 07 05 00 00 10 00 00 00      	add64 r5, 0x10
   10328: 79 64 00 00 00 00 00 00      	ldxdw r4, [r6 + 0x0]
   10330: 79 40 50 00 00 00 00 00      	ldxdw r0, [r4 + 0x50]
   10338: 15 00 27 03 52 00 00 00      	jeq r0, 0x52, +0x327 <entrypoint+0x11450>
   10340: 55 00 2c 03 a5 00 00 00      	jne r0, 0xa5, +0x32c <entrypoint+0x11480>
   10348: 71 48 c4 00 00 00 00 00      	ldxb r8, [r4 + 0xc4]
   10350: 25 08 0b 04 02 00 00 00      	jgt r8, 0x2, +0x40b <entrypoint+0x11b88>
   10358: 15 08 9b 04 02 00 00 00      	jeq r8, 0x2, +0x49b <entrypoint+0x12010>
   10360: b7 00 00 00 09 00 00 00      	mov64 r0, 0x9
   10368: 15 08 c1 03 00 00 00 00      	jeq r8, 0x0, +0x3c1 <entrypoint+0x11950>
   10370: b7 00 00 00 00 00 00 00      	mov64 r0, 0x0
   10378: 15 07 95 05 03 00 00 00      	jeq r7, 0x3, +0x595 <entrypoint+0x12800>
   10380: 55 07 c2 03 02 00 00 00      	jne r7, 0x2, +0x3c2 <entrypoint+0x11970>
   10388: 79 48 78 00 00 00 00 00      	ldxdw r8, [r4 + 0x78]
   10390: 79 67 08 00 00 00 00 00      	ldxdw r7, [r6 + 0x8]
   10398: 79 79 08 00 00 00 00 00      	ldxdw r9, [r7 + 0x8]
   103a0: 5d 98 e2 06 00 00 00 00      	jne r8, r9, +0x6e2 <entrypoint+0x13290>
   103a8: 79 78 10 00 00 00 00 00      	ldxdw r8, [r7 + 0x10]
   103b0: 79 49 80 00 00 00 00 00      	ldxdw r9, [r4 + 0x80]
   103b8: 5d 89 df 06 00 00 00 00      	jne r9, r8, +0x6df <entrypoint+0x13290>
   103c0: 79 78 18 00 00 00 00 00      	ldxdw r8, [r7 + 0x18]
   103c8: 79 49 88 00 00 00 00 00      	ldxdw r9, [r4 + 0x88]
   103d0: 5d 89 dc 06 00 00 00 00      	jne r9, r8, +0x6dc <entrypoint+0x13290>
   103d8: 79 78 20 00 00 00 00 00      	ldxdw r8, [r7 + 0x20]
   103e0: 79 49 90 00 00 00 00 00      	ldxdw r9, [r4 + 0x90]
   103e8: 5d 89 d9 06 00 00 00 00      	jne r9, r8, +0x6d9 <entrypoint+0x13290>
   103f0: 79 78 50 00 00 00 00 00      	ldxdw r8, [r7 + 0x50]
   103f8: 55 08 33 06 63 01 00 00      	jne r8, 0x163, +0x633 <entrypoint+0x12d70>
   10400: 79 78 28 00 00 00 00 00      	ldxdw r8, [r7 + 0x28]
   10408: 18 09 00 00 06 dd f6 e1 00 00 00 00 ee 75 8f de      	lddw r9, -0x21708a111e0922fa
   10418: 1d 98 23 06 00 00 00 00      	jeq r8, r9, +0x623 <entrypoint+0x12d10>
   10420: 18 09 00 00 06 dd f6 e1 00 00 00 00 d7 65 a1 93      	lddw r9, -0x6c5e9a281e0922fa
   10430: 5d 98 2c 06 00 00 00 00      	jne r8, r9, +0x62c <entrypoint+0x12d70>
   10438: 79 78 30 00 00 00 00 00      	ldxdw r8, [r7 + 0x30]
   10440: 18 09 00 00 d9 cb e1 46 00 00 00 00 ce eb 79 ac      	lddw r9, -0x53861431b91e3427
   10450: 5d 98 28 06 00 00 00 00      	jne r8, r9, +0x628 <entrypoint+0x12d70>
   10458: 79 78 38 00 00 00 00 00      	ldxdw r8, [r7 + 0x38]
   10460: 18 09 00 00 1c b4 85 ed 00 00 00 00 5f 5b 37 91      	lddw r9, -0x6ec8a4a0127a4be4
   10470: 5d 98 24 06 00 00 00 00      	jne r8, r9, +0x624 <entrypoint+0x12d70>
   10478: 79 78 40 00 00 00 00 00      	ldxdw r8, [r7 + 0x40]
   10480: 18 09 00 00 3a 8c f5 85 00 00 00 00 7e ff 00 a9      	lddw r9, -0x56ff00817a0a73c6
   10490: 5d 98 20 06 00 00 00 00      	jne r8, r9, +0x620 <entrypoint+0x12d70>
   10498: 05 00 6b 09 00 00 00 00      	ja +0x96b <entrypoint+0x147d0>
   104a0: 71 84 85 00 00 00 00 00      	ldxb r4, [r8 + 0x85]
   104a8: 15 04 45 02 01 00 00 00      	jeq r4, 0x1, +0x245 <entrypoint+0x10eb0>
   104b0: b7 01 00 00 00 00 00 00      	mov64 r1, 0x0
   104b8: 55 04 fb 02 00 00 00 00      	jne r4, 0x0, +0x2fb <entrypoint+0x11470>
   104c0: b7 00 00 00 09 00 00 00      	mov64 r0, 0x9
   104c8: 05 00 4d 06 00 00 00 00      	ja +0x64d <entrypoint+0x12f10>
   104d0: b7 01 00 00 11 00 00 00      	mov64 r1, 0x11
   104d8: 05 00 4b 06 00 00 00 00      	ja +0x64b <entrypoint+0x12f10>
   104e0: b7 00 00 00 00 00 00 00      	mov64 r0, 0x0
   104e8: b7 01 00 00 0a 00 00 00      	mov64 r1, 0xa
   104f0: 71 34 c5 00 00 00 00 00      	ldxb r4, [r3 + 0xc5]
   104f8: 15 04 47 06 01 00 00 00      	jeq r4, 0x1, +0x647 <entrypoint+0x12f10>
   10500: b7 01 00 00 03 00 00 00      	mov64 r1, 0x3
   10508: 79 34 58 00 00 00 00 00      	ldxdw r4, [r3 + 0x58]
   10510: 79 65 08 00 00 00 00 00      	ldxdw r5, [r6 + 0x8]
   10518: 79 57 08 00 00 00 00 00      	ldxdw r7, [r5 + 0x8]
   10520: 5d 47 42 06 00 00 00 00      	jne r7, r4, +0x642 <entrypoint+0x12f10>
   10528: 79 34 60 00 00 00 00 00      	ldxdw r4, [r3 + 0x60]
   10530: 79 57 10 00 00 00 00 00      	ldxdw r7, [r5 + 0x10]
   10538: 5d 47 3f 06 00 00 00 00      	jne r7, r4, +0x63f <entrypoint+0x12f10>
   10540: 79 34 68 00 00 00 00 00      	ldxdw r4, [r3 + 0x68]
   10548: 79 57 18 00 00 00 00 00      	ldxdw r7, [r5 + 0x18]
   10550: 5d 47 3c 06 00 00 00 00      	jne r7, r4, +0x63c <entrypoint+0x12f10>
   10558: 79 34 70 00 00 00 00 00      	ldxdw r4, [r3 + 0x70]
   10560: 79 57 20 00 00 00 00 00      	ldxdw r7, [r5 + 0x20]
   10568: 5d 47 39 06 00 00 00 00      	jne r7, r4, +0x639 <entrypoint+0x12f10>
   10570: b7 01 00 00 00 00 00 00      	mov64 r1, 0x0
   10578: 79 54 50 00 00 00 00 00      	ldxdw r4, [r5 + 0x50]
   10580: 55 04 e2 02 52 00 00 00      	jne r4, 0x52, +0x2e2 <entrypoint+0x11470>
   10588: 71 54 85 00 00 00 00 00      	ldxb r4, [r5 + 0x85]
   10590: 15 04 c9 05 01 00 00 00      	jeq r4, 0x1, +0x5c9 <entrypoint+0x12bb8>
   10598: 15 04 e4 ff 00 00 00 00      	jeq r4, 0x0, -0x1c <entrypoint+0xfc98>
   105a0: 05 00 de 02 00 00 00 00      	ja +0x2de <entrypoint+0x11470>
   105a8: b7 07 00 00 01 00 00 00      	mov64 r7, 0x1
   105b0: 7a 0a a8 fe 01 00 00 00      	stdw [r10 - 0x158], 0x1
   105b8: 72 0a b0 fe 30 00 00 00      	stb [r10 - 0x150], 0x30
   105c0: 55 00 e0 00 00 00 00 00      	jne r0, 0x0, +0xe0 <entrypoint+0x104a0>
   105c8: 05 00 62 01 00 00 00 00      	ja +0x162 <entrypoint+0x108b8>
   105d0: 7b 5a 88 fe 00 00 00 00      	stxdw [r10 - 0x178], r5
   105d8: 7b 2a 90 fe 00 00 00 00      	stxdw [r10 - 0x170], r2
   105e0: 7b 6a a0 fe 00 00 00 00      	stxdw [r10 - 0x160], r6
   105e8: bf 31 00 00 00 00 00 00      	mov64 r1, r3
   105f0: 85 10 00 00 c0 0f 00 00      	call 0xfc0
   105f8: bf 71 00 00 00 00 00 00      	mov64 r1, r7
   10600: bf 02 00 00 00 00 00 00      	mov64 r2, r0
   10608: 85 10 00 00 1d 10 00 00      	call 0x101d
   10610: bf 06 00 00 00 00 00 00      	mov64 r6, r0
   10618: b7 01 00 00 00 00 00 00      	mov64 r1, 0x0
   10620: 7b 1a 80 fe 00 00 00 00      	stxdw [r10 - 0x180], r1
   10628: bf 61 00 00 00 00 00 00      	mov64 r1, r6
   10630: b7 02 00 00 00 00 00 00      	mov64 r2, 0x0
   10638: 85 10 00 00 f7 0f 00 00      	call 0xff7
   10640: bf 07 00 00 00 00 00 00      	mov64 r7, r0
   10648: bf 61 00 00 00 00 00 00      	mov64 r1, r6
   10650: 85 10 00 00 11 11 00 00      	call 0x1111
   10658: c5 07 01 00 00 00 00 00      	jslt r7, 0x0, +0x1 <entrypoint+0xfe40>
   10660: 7b 0a 80 fe 00 00 00 00      	stxdw [r10 - 0x180], r0
   10668: bf 61 00 00 00 00 00 00      	mov64 r1, r6
   10670: 18 02 00 00 ff ff ff ff 00 00 00 00 ff ff ef 43      	lddw r2, 0x43efffffffffffff
   10680: 85 10 00 00 4d 11 00 00      	call 0x114d
   10688: b7 03 00 00 ff ff ff ff      	mov64 r3, -0x1
   10690: 65 00 01 00 00 00 00 00      	jsgt r0, 0x0, +0x1 <entrypoint+0xfe78>
   10698: 79 a3 80 fe 00 00 00 00      	ldxdw r3, [r10 - 0x180]
   106a0: 79 a6 a0 fe 00 00 00 00      	ldxdw r6, [r10 - 0x160]
   106a8: 79 a2 90 fe 00 00 00 00      	ldxdw r2, [r10 - 0x170]
   106b0: b7 01 00 00 00 00 00 00      	mov64 r1, 0x0
   106b8: 79 a5 88 fe 00 00 00 00      	ldxdw r5, [r10 - 0x178]
   106c0: b7 00 00 00 03 00 00 00      	mov64 r0, 0x3
   106c8: 55 09 0d 06 63 01 00 00      	jne r9, 0x163, +0x60d <entrypoint+0x12f10>
   106d0: 71 81 5a 00 00 00 00 00      	ldxb r1, [r8 + 0x5a]
   106d8: 15 01 02 00 00 00 00 00      	jeq r1, 0x0, +0x2 <entrypoint+0xfec8>
   106e0: 15 01 59 02 01 00 00 00      	jeq r1, 0x1, +0x259 <entrypoint+0x11188>
   106e8: 05 00 09 06 00 00 00 00      	ja +0x609 <entrypoint+0x12f10>
   106f0: b7 00 00 00 00 00 00 00      	mov64 r0, 0x0
   106f8: ad 35 4f 03 00 00 00 00      	jlt r5, r3, +0x34f <entrypoint+0x11950>
   10700: 07 02 00 00 fe ff ff ff      	add64 r2, -0x2
   10708: 79 a1 98 fe 00 00 00 00      	ldxdw r1, [r10 - 0x168]
   10710: 73 18 58 00 00 00 00 00      	stxb [r8 + 0x58], r1
   10718: 73 28 59 00 00 00 00 00      	stxb [r8 + 0x59], r2
   10720: bf 27 00 00 00 00 00 00      	mov64 r7, r2
   10728: bf 21 00 00 00 00 00 00      	mov64 r1, r2
   10730: 85 10 00 00 48 0c 00 00      	call 0xc48
   10738: b7 01 00 00 07 00 00 00      	mov64 r1, 0x7
   10740: 15 00 f0 01 00 00 00 00      	jeq r0, 0x0, +0x1f0 <entrypoint+0x10ea0>
   10748: 71 81 58 00 00 00 00 00      	ldxb r1, [r8 + 0x58]
   10750: 85 10 00 00 44 0c 00 00      	call 0xc44
   10758: bf 02 00 00 00 00 00 00      	mov64 r2, r0
   10760: b7 01 00 00 08 00 00 00      	mov64 r1, 0x8
   10768: bf 73 00 00 00 00 00 00      	mov64 r3, r7
   10770: b7 00 00 00 00 00 00 00      	mov64 r0, 0x0
   10778: 15 02 f7 05 00 00 00 00      	jeq r2, 0x0, +0x5f7 <entrypoint+0x12f10>
   10780: 15 03 d2 01 00 00 00 00      	jeq r3, 0x0, +0x1d2 <entrypoint+0x10df0>
   10788: 79 61 10 00 00 00 00 00      	ldxdw r1, [r6 + 0x10]
   10790: 79 12 08 00 00 00 00 00      	ldxdw r2, [r1 + 0x8]
   10798: 79 15 10 00 00 00 00 00      	ldxdw r5, [r1 + 0x10]
   107a0: 79 10 18 00 00 00 00 00      	ldxdw r0, [r1 + 0x18]
   107a8: 79 11 20 00 00 00 00 00      	ldxdw r1, [r1 + 0x20]
   107b0: 7b 18 73 00 00 00 00 00      	stxdw [r8 + 0x73], r1
   107b8: 7b 08 6b 00 00 00 00 00      	stxdw [r8 + 0x6b], r0
   107c0: 7b 58 63 00 00 00 00 00      	stxdw [r8 + 0x63], r5
   107c8: 7b 28 5b 00 00 00 00 00      	stxdw [r8 + 0x5b], r2
   107d0: 15 03 c8 01 01 00 00 00      	jeq r3, 0x1, +0x1c8 <entrypoint+0x10df0>
   107d8: 79 61 18 00 00 00 00 00      	ldxdw r1, [r6 + 0x18]
   107e0: 79 12 08 00 00 00 00 00      	ldxdw r2, [r1 + 0x8]
   107e8: 79 15 10 00 00 00 00 00      	ldxdw r5, [r1 + 0x10]
   107f0: 79 10 18 00 00 00 00 00      	ldxdw r0, [r1 + 0x18]
   107f8: 79 11 20 00 00 00 00 00      	ldxdw r1, [r1 + 0x20]
   10800: 7b 18 93 00 00 00 00 00      	stxdw [r8 + 0x93], r1
   10808: 7b 08 8b 00 00 00 00 00      	stxdw [r8 + 0x8b], r0
   10810: 7b 58 83 00 00 00 00 00      	stxdw [r8 + 0x83], r5
   10818: 7b 28 7b 00 00 00 00 00      	stxdw [r8 + 0x7b], r2
   10820: a5 03 be 01 03 00 00 00      	jlt r3, 0x3, +0x1be <entrypoint+0x10df0>
   10828: 79 61 20 00 00 00 00 00      	ldxdw r1, [r6 + 0x20]
   10830: 79 12 08 00 00 00 00 00      	ldxdw r2, [r1 + 0x8]
   10838: 79 15 10 00 00 00 00 00      	ldxdw r5, [r1 + 0x10]
   10840: 79 10 18 00 00 00 00 00      	ldxdw r0, [r1 + 0x18]
   10848: 79 11 20 00 00 00 00 00      	ldxdw r1, [r1 + 0x20]
   10850: 7b 18 b3 00 00 00 00 00      	stxdw [r8 + 0xb3], r1
   10858: 7b 08 ab 00 00 00 00 00      	stxdw [r8 + 0xab], r0
   10860: 7b 58 a3 00 00 00 00 00      	stxdw [r8 + 0xa3], r5
   10868: 7b 28 9b 00 00 00 00 00      	stxdw [r8 + 0x9b], r2
   10870: 15 03 b4 01 03 00 00 00      	jeq r3, 0x3, +0x1b4 <entrypoint+0x10df0>
   10878: 79 61 28 00 00 00 00 00      	ldxdw r1, [r6 + 0x28]
   10880: 79 12 08 00 00 00 00 00      	ldxdw r2, [r1 + 0x8]
   10888: 79 15 10 00 00 00 00 00      	ldxdw r5, [r1 + 0x10]
   10890: 79 10 18 00 00 00 00 00      	ldxdw r0, [r1 + 0x18]
   10898: 79 11 20 00 00 00 00 00      	ldxdw r1, [r1 + 0x20]
   108a0: 7b 18 d3 00 00 00 00 00      	stxdw [r8 + 0xd3], r1
   108a8: 7b 08 cb 00 00 00 00 00      	stxdw [r8 + 0xcb], r0
   108b0: 7b 58 c3 00 00 00 00 00      	stxdw [r8 + 0xc3], r5
   108b8: 7b 28 bb 00 00 00 00 00      	stxdw [r8 + 0xbb], r2
   108c0: a5 03 aa 01 05 00 00 00      	jlt r3, 0x5, +0x1aa <entrypoint+0x10df0>
   108c8: 79 61 30 00 00 00 00 00      	ldxdw r1, [r6 + 0x30]
   108d0: 79 12 08 00 00 00 00 00      	ldxdw r2, [r1 + 0x8]
   108d8: 79 15 10 00 00 00 00 00      	ldxdw r5, [r1 + 0x10]
   108e0: 79 10 18 00 00 00 00 00      	ldxdw r0, [r1 + 0x18]
   108e8: 79 11 20 00 00 00 00 00      	ldxdw r1, [r1 + 0x20]
   108f0: 7b 18 f3 00 00 00 00 00      	stxdw [r8 + 0xf3], r1
   108f8: 7b 08 eb 00 00 00 00 00      	stxdw [r8 + 0xeb], r0
   10900: 7b 58 e3 00 00 00 00 00      	stxdw [r8 + 0xe3], r5
   10908: 7b 28 db 00 00 00 00 00      	stxdw [r8 + 0xdb], r2
   10910: 15 03 a0 01 05 00 00 00      	jeq r3, 0x5, +0x1a0 <entrypoint+0x10df0>
   10918: 79 61 38 00 00 00 00 00      	ldxdw r1, [r6 + 0x38]
   10920: 79 12 08 00 00 00 00 00      	ldxdw r2, [r1 + 0x8]
   10928: 79 15 10 00 00 00 00 00      	ldxdw r5, [r1 + 0x10]
   10930: 79 10 18 00 00 00 00 00      	ldxdw r0, [r1 + 0x18]
   10938: 79 11 20 00 00 00 00 00      	ldxdw r1, [r1 + 0x20]
   10940: 7b 18 13 01 00 00 00 00      	stxdw [r8 + 0x113], r1
   10948: 7b 08 0b 01 00 00 00 00      	stxdw [r8 + 0x10b], r0
   10950: 7b 58 03 01 00 00 00 00      	stxdw [r8 + 0x103], r5
   10958: 7b 28 fb 00 00 00 00 00      	stxdw [r8 + 0xfb], r2
   10960: a5 03 96 01 07 00 00 00      	jlt r3, 0x7, +0x196 <entrypoint+0x10df0>
   10968: 79 61 40 00 00 00 00 00      	ldxdw r1, [r6 + 0x40]
   10970: 79 12 08 00 00 00 00 00      	ldxdw r2, [r1 + 0x8]
   10978: 79 15 10 00 00 00 00 00      	ldxdw r5, [r1 + 0x10]
   10980: 79 10 18 00 00 00 00 00      	ldxdw r0, [r1 + 0x18]
   10988: 79 11 20 00 00 00 00 00      	ldxdw r1, [r1 + 0x20]
   10990: 7b 18 33 01 00 00 00 00      	stxdw [r8 + 0x133], r1
   10998: 7b 08 2b 01 00 00 00 00      	stxdw [r8 + 0x12b], r0
   109a0: 7b 58 23 01 00 00 00 00      	stxdw [r8 + 0x123], r5
   109a8: 7b 28 1b 01 00 00 00 00      	stxdw [r8 + 0x11b], r2
   109b0: 15 03 8c 01 07 00 00 00      	jeq r3, 0x7, +0x18c <entrypoint+0x10df0>
   109b8: 79 61 48 00 00 00 00 00      	ldxdw r1, [r6 + 0x48]
   109c0: 79 12 08 00 00 00 00 00      	ldxdw r2, [r1 + 0x8]
   109c8: 79 15 10 00 00 00 00 00      	ldxdw r5, [r1 + 0x10]
   109d0: 79 10 18 00 00 00 00 00      	ldxdw r0, [r1 + 0x18]
   109d8: 79 11 20 00 00 00 00 00      	ldxdw r1, [r1 + 0x20]
   109e0: 7b 18 53 01 00 00 00 00      	stxdw [r8 + 0x153], r1
   109e8: 7b 08 4b 01 00 00 00 00      	stxdw [r8 + 0x14b], r0
   109f0: 7b 58 43 01 00 00 00 00      	stxdw [r8 + 0x143], r5
   109f8: 7b 28 3b 01 00 00 00 00      	stxdw [r8 + 0x13b], r2
   10a00: a5 03 82 01 09 00 00 00      	jlt r3, 0x9, +0x182 <entrypoint+0x10df0>
   10a08: 79 61 50 00 00 00 00 00      	ldxdw r1, [r6 + 0x50]
   10a10: 79 12 08 00 00 00 00 00      	ldxdw r2, [r1 + 0x8]
   10a18: 79 15 10 00 00 00 00 00      	ldxdw r5, [r1 + 0x10]
   10a20: 79 10 18 00 00 00 00 00      	ldxdw r0, [r1 + 0x18]
   10a28: 79 11 20 00 00 00 00 00      	ldxdw r1, [r1 + 0x20]
   10a30: 7b 18 73 01 00 00 00 00      	stxdw [r8 + 0x173], r1
   10a38: 7b 08 6b 01 00 00 00 00      	stxdw [r8 + 0x16b], r0
   10a40: 7b 58 63 01 00 00 00 00      	stxdw [r8 + 0x163], r5
   10a48: 7b 28 5b 01 00 00 00 00      	stxdw [r8 + 0x15b], r2
   10a50: 15 03 78 01 09 00 00 00      	jeq r3, 0x9, +0x178 <entrypoint+0x10df0>
   10a58: 79 61 58 00 00 00 00 00      	ldxdw r1, [r6 + 0x58]
   10a60: 79 12 08 00 00 00 00 00      	ldxdw r2, [r1 + 0x8]
   10a68: 79 15 10 00 00 00 00 00      	ldxdw r5, [r1 + 0x10]
   10a70: 79 10 18 00 00 00 00 00      	ldxdw r0, [r1 + 0x18]
   10a78: 79 11 20 00 00 00 00 00      	ldxdw r1, [r1 + 0x20]
   10a80: 7b 18 93 01 00 00 00 00      	stxdw [r8 + 0x193], r1
   10a88: 7b 08 8b 01 00 00 00 00      	stxdw [r8 + 0x18b], r0
   10a90: 7b 58 83 01 00 00 00 00      	stxdw [r8 + 0x183], r5
   10a98: 7b 28 7b 01 00 00 00 00      	stxdw [r8 + 0x17b], r2
   10aa0: a5 03 6e 01 0b 00 00 00      	jlt r3, 0xb, +0x16e <entrypoint+0x10df0>
   10aa8: 79 61 60 00 00 00 00 00      	ldxdw r1, [r6 + 0x60]
   10ab0: 05 00 63 01 00 00 00 00      	ja +0x163 <entrypoint+0x10da8>
   10ab8: b7 00 00 00 03 00 00 00      	mov64 r0, 0x3
   10ac0: 05 00 8e 05 00 00 00 00      	ja +0x58e <entrypoint+0x12f10>
   10ac8: 15 06 21 00 00 00 00 00      	jeq r6, 0x0, +0x21 <entrypoint+0x103b0>
   10ad0: bf a1 00 00 00 00 00 00      	mov64 r1, r10
   10ad8: 07 01 00 00 b8 ff ff ff      	add64 r1, -0x48
   10ae0: 85 10 00 00 c7 de ff ff      	call -0x2139
   10ae8: 2d 79 1d 00 00 00 00 00      	jgt r9, r7, +0x1d <entrypoint+0x103b0>
   10af0: 55 00 1c 00 00 00 00 00      	jne r0, 0x0, +0x1c <entrypoint+0x103b0>
   10af8: bf 62 00 00 00 00 00 00      	mov64 r2, r6
   10b00: 0f 72 00 00 00 00 00 00      	add64 r2, r7
   10b08: 25 02 19 00 01 01 00 00      	jgt r2, 0x101, +0x19 <entrypoint+0x103b0>
   10b10: bf a7 00 00 00 00 00 00      	mov64 r7, r10
   10b18: 07 07 00 00 a8 fe ff ff      	add64 r7, -0x158
   10b20: bf 71 00 00 00 00 00 00      	mov64 r1, r7
   10b28: 7b 2a 98 fe 00 00 00 00      	stxdw [r10 - 0x168], r2
   10b30: b7 02 00 00 30 00 00 00      	mov64 r2, 0x30
   10b38: b7 03 00 00 01 01 00 00      	mov64 r3, 0x101
   10b40: 85 10 00 00 09 0f 00 00      	call 0xf09
   10b48: bf 71 00 00 00 00 00 00      	mov64 r1, r7
   10b50: 79 a2 a0 fe 00 00 00 00      	ldxdw r2, [r10 - 0x160]
   10b58: bf 63 00 00 00 00 00 00      	mov64 r3, r6
   10b60: 85 10 00 00 ff ff ff ff      	call -0x1
   10b68: 0f 67 00 00 00 00 00 00      	add64 r7, r6
   10b70: bf 71 00 00 00 00 00 00      	mov64 r1, r7
   10b78: bf 82 00 00 00 00 00 00      	mov64 r2, r8
   10b80: bf 93 00 00 00 00 00 00      	mov64 r3, r9
   10b88: 85 10 00 00 ff ff ff ff      	call -0x1
   10b90: 79 a2 98 fe 00 00 00 00      	ldxdw r2, [r10 - 0x168]
   10b98: 15 02 07 00 00 00 00 00      	jeq r2, 0x0, +0x7 <entrypoint+0x103b0>
   10ba0: 55 02 20 03 01 00 00 00      	jne r2, 0x1, +0x320 <entrypoint+0x11c80>
   10ba8: bf a6 00 00 00 00 00 00      	mov64 r6, r10
   10bb0: 07 06 00 00 a8 fe ff ff      	add64 r6, -0x158
   10bb8: 71 a1 a8 fe 00 00 00 00      	ldxb r1, [r10 - 0x158]
   10bc0: 15 01 02 00 2b 00 00 00      	jeq r1, 0x2b, +0x2 <entrypoint+0x103b0>
   10bc8: b7 07 00 00 01 00 00 00      	mov64 r7, 0x1
   10bd0: 55 01 d6 03 2d 00 00 00      	jne r1, 0x2d, +0x3d6 <entrypoint+0x12260>
   10bd8: b7 00 00 00 01 00 00 00      	mov64 r0, 0x1
   10be0: b7 01 00 00 00 00 00 00      	mov64 r1, 0x0
   10be8: 05 00 69 05 00 00 00 00      	ja +0x569 <entrypoint+0x12f10>
   10bf0: b7 00 00 00 00 00 00 00      	mov64 r0, 0x0
   10bf8: b7 01 00 00 13 00 00 00      	mov64 r1, 0x13
   10c00: 05 00 66 05 00 00 00 00      	ja +0x566 <entrypoint+0x12f10>
   10c08: 79 51 00 00 00 00 00 00      	ldxdw r1, [r5 + 0x0]
   10c10: 05 00 26 02 00 00 00 00      	ja +0x226 <entrypoint+0x11520>
   10c18: bf 83 00 00 00 00 00 00      	mov64 r3, r8
   10c20: a5 08 01 00 01 01 00 00      	jlt r8, 0x101, +0x1 <entrypoint+0x10408>
   10c28: b7 03 00 00 01 01 00 00      	mov64 r3, 0x101
   10c30: 79 a9 a0 fe 00 00 00 00      	ldxdw r9, [r10 - 0x160]
   10c38: bf 91 00 00 00 00 00 00      	mov64 r1, r9
   10c40: 85 10 00 00 ff ff ff ff      	call -0x1
   10c48: b5 08 02 00 01 01 00 00      	jle r8, 0x101, +0x2 <entrypoint+0x10438>
   10c50: b7 08 00 00 01 01 00 00      	mov64 r8, 0x101
   10c58: 72 0a b0 ff 40 00 00 00      	stb [r10 - 0x50], 0x40
   10c60: 79 a7 a8 fe 00 00 00 00      	ldxdw r7, [r10 - 0x158]
   10c68: 0f 87 00 00 00 00 00 00      	add64 r7, r8
   10c70: 7b 7a a8 fe 00 00 00 00      	stxdw [r10 - 0x158], r7
   10c78: b5 07 06 00 01 01 00 00      	jle r7, 0x101, +0x6 <entrypoint+0x10488>
   10c80: b7 07 00 00 01 01 00 00      	mov64 r7, 0x101
   10c88: 72 0a b0 ff 40 00 00 00      	stb [r10 - 0x50], 0x40
   10c90: 7a 0a a8 fe 01 01 00 00      	stdw [r10 - 0x158], 0x101
   10c98: 71 61 84 00 00 00 00 00      	ldxb r1, [r6 + 0x84]
   10ca0: 55 01 11 00 00 00 00 00      	jne r1, 0x0, +0x11 <entrypoint+0x10508>
   10ca8: 05 00 86 00 00 00 00 00      	ja +0x86 <entrypoint+0x108b8>
   10cb0: 71 61 84 00 00 00 00 00      	ldxb r1, [r6 + 0x84]
   10cb8: 15 01 84 00 00 00 00 00      	jeq r1, 0x0, +0x84 <entrypoint+0x108b8>
   10cc0: 25 07 0d 00 0f 00 00 00      	jgt r7, 0xf, +0xd <entrypoint+0x10508>
   10cc8: 15 07 81 00 00 00 00 00      	jeq r7, 0x0, +0x81 <entrypoint+0x108b0>
   10cd0: b7 01 00 00 08 00 00 00      	mov64 r1, 0x8
   10cd8: bf a2 00 00 00 00 00 00      	mov64 r2, r10
   10ce0: 07 02 00 00 a8 fe ff ff      	add64 r2, -0x158
   10ce8: 0f 12 00 00 00 00 00 00      	add64 r2, r1
   10cf0: 71 22 00 00 00 00 00 00      	ldxb r2, [r2 + 0x0]
   10cf8: 15 02 04 00 2e 00 00 00      	jeq r2, 0x2e, +0x4 <entrypoint+0x104f8>
   10d00: bf 13 00 00 00 00 00 00      	mov64 r3, r1
   10d08: 07 03 00 00 f9 ff ff ff      	add64 r3, -0x7
   10d10: 07 01 00 00 01 00 00 00      	add64 r1, 0x1
   10d18: ad 73 f7 ff 00 00 00 00      	jlt r3, r7, -0x9 <entrypoint+0x104b0>
   10d20: 15 02 0b 00 2e 00 00 00      	jeq r2, 0x2e, +0xb <entrypoint+0x10558>
   10d28: 05 00 76 00 00 00 00 00      	ja +0x76 <entrypoint+0x108b8>
   10d30: b7 01 00 00 2e 00 00 00      	mov64 r1, 0x2e
   10d38: bf 92 00 00 00 00 00 00      	mov64 r2, r9
   10d40: bf 73 00 00 00 00 00 00      	mov64 r3, r7
   10d48: 85 10 00 00 ab 0c 00 00      	call 0xcab
   10d50: 15 00 05 00 01 00 00 00      	jeq r0, 0x1, +0x5 <entrypoint+0x10558>
   10d58: 05 00 70 00 00 00 00 00      	ja +0x70 <entrypoint+0x108b8>
   10d60: 07 07 00 00 07 00 00 00      	add64 r7, 0x7
   10d68: bf 23 00 00 00 00 00 00      	mov64 r3, r2
   10d70: 1f 97 00 00 00 00 00 00      	sub64 r7, r9
   10d78: 55 03 38 00 30 00 00 00      	jne r3, 0x30, +0x38 <entrypoint+0x10718>
   10d80: bf 71 00 00 00 00 00 00      	mov64 r1, r7
   10d88: bf a5 00 00 00 00 00 00      	mov64 r5, r10
   10d90: 07 05 00 00 a8 fe ff ff      	add64 r5, -0x158
   10d98: 15 01 34 00 00 00 00 00      	jeq r1, 0x0, +0x34 <entrypoint+0x10718>
   10da0: bf a2 00 00 00 00 00 00      	mov64 r2, r10
   10da8: 07 02 00 00 a8 fe ff ff      	add64 r2, -0x158
   10db0: bf 17 00 00 00 00 00 00      	mov64 r7, r1
   10db8: 0f 27 00 00 00 00 00 00      	add64 r7, r2
   10dc0: 71 72 07 00 00 00 00 00      	ldxb r2, [r7 + 0x7]
   10dc8: 67 02 00 00 38 00 00 00      	lsh64 r2, 0x38
   10dd0: c7 02 00 00 38 00 00 00      	arsh64 r2, 0x38
   10dd8: 65 02 f0 ff ff ff ff ff      	jsgt r2, -0x1, -0x10 <entrypoint+0x10538>
   10de0: bf a3 00 00 00 00 00 00      	mov64 r3, r10
   10de8: 07 03 00 00 a8 fe ff ff      	add64 r3, -0x158
   10df0: bf 17 00 00 00 00 00 00      	mov64 r7, r1
   10df8: 0f 37 00 00 00 00 00 00      	add64 r7, r3
   10e00: 71 74 06 00 00 00 00 00      	ldxb r4, [r7 + 0x6]
   10e08: 67 04 00 00 38 00 00 00      	lsh64 r4, 0x38
   10e10: c7 04 00 00 38 00 00 00      	arsh64 r4, 0x38
   10e18: 75 04 0e 00 c0 ff ff ff      	jsge r4, -0x40, +0xe <entrypoint+0x10668>
   10e20: 0f 15 00 00 00 00 00 00      	add64 r5, r1
   10e28: 71 53 05 00 00 00 00 00      	ldxb r3, [r5 + 0x5]
   10e30: 67 03 00 00 38 00 00 00      	lsh64 r3, 0x38
   10e38: c7 03 00 00 38 00 00 00      	arsh64 r3, 0x38
   10e40: 75 03 0d 00 c0 ff ff ff      	jsge r3, -0x40, +0xd <entrypoint+0x10688>
   10e48: 57 03 00 00 3f 00 00 00      	and64 r3, 0x3f
   10e50: 71 50 04 00 00 00 00 00      	ldxb r0, [r5 + 0x4]
   10e58: 57 00 00 00 07 00 00 00      	and64 r0, 0x7
   10e60: 67 00 00 00 06 00 00 00      	lsh64 r0, 0x6
   10e68: 4f 30 00 00 00 00 00 00      	or64 r0, r3
   10e70: 07 05 00 00 04 00 00 00      	add64 r5, 0x4
   10e78: bf 57 00 00 00 00 00 00      	mov64 r7, r5
   10e80: bf 03 00 00 00 00 00 00      	mov64 r3, r0
   10e88: 05 00 07 00 00 00 00 00      	ja +0x7 <entrypoint+0x106a0>
   10e90: 07 07 00 00 06 00 00 00      	add64 r7, 0x6
   10e98: 57 04 00 00 1f 00 00 00      	and64 r4, 0x1f
   10ea0: bf 43 00 00 00 00 00 00      	mov64 r3, r4
   10ea8: 05 00 06 00 00 00 00 00      	ja +0x6 <entrypoint+0x106b8>
   10eb0: 07 05 00 00 05 00 00 00      	add64 r5, 0x5
   10eb8: 57 03 00 00 0f 00 00 00      	and64 r3, 0xf
   10ec0: bf 57 00 00 00 00 00 00      	mov64 r7, r5
   10ec8: 57 04 00 00 3f 00 00 00      	and64 r4, 0x3f
   10ed0: 67 03 00 00 06 00 00 00      	lsh64 r3, 0x6
   10ed8: 4f 43 00 00 00 00 00 00      	or64 r3, r4
   10ee0: 57 02 00 00 3f 00 00 00      	and64 r2, 0x3f
   10ee8: 67 03 00 00 06 00 00 00      	lsh64 r3, 0x6
   10ef0: 4f 23 00 00 00 00 00 00      	or64 r3, r2
   10ef8: 1f 97 00 00 00 00 00 00      	sub64 r7, r9
   10f00: 15 03 cf ff 30 00 00 00      	jeq r3, 0x30, -0x31 <entrypoint+0x10558>
   10f08: 05 00 06 00 00 00 00 00      	ja +0x6 <entrypoint+0x10718>
   10f10: 07 03 00 00 07 00 00 00      	add64 r3, 0x7
   10f18: bf 24 00 00 00 00 00 00      	mov64 r4, r2
   10f20: 1f 93 00 00 00 00 00 00      	sub64 r3, r9
   10f28: bf 17 00 00 00 00 00 00      	mov64 r7, r1
   10f30: bf 31 00 00 00 00 00 00      	mov64 r1, r3
   10f38: 55 04 34 00 2e 00 00 00      	jne r4, 0x2e, +0x34 <entrypoint+0x108b8>
   10f40: bf a0 00 00 00 00 00 00      	mov64 r0, r10
   10f48: 07 00 00 00 a8 fe ff ff      	add64 r0, -0x158
   10f50: 15 01 30 00 00 00 00 00      	jeq r1, 0x0, +0x30 <entrypoint+0x108b0>
   10f58: bf a2 00 00 00 00 00 00      	mov64 r2, r10
   10f60: 07 02 00 00 a8 fe ff ff      	add64 r2, -0x158
   10f68: bf 13 00 00 00 00 00 00      	mov64 r3, r1
   10f70: 0f 23 00 00 00 00 00 00      	add64 r3, r2
   10f78: 71 32 07 00 00 00 00 00      	ldxb r2, [r3 + 0x7]
   10f80: 67 02 00 00 38 00 00 00      	lsh64 r2, 0x38
   10f88: c7 02 00 00 38 00 00 00      	arsh64 r2, 0x38
   10f90: 65 02 ef ff ff ff ff ff      	jsgt r2, -0x1, -0x11 <entrypoint+0x106e8>
   10f98: bf a4 00 00 00 00 00 00      	mov64 r4, r10
   10fa0: 07 04 00 00 a8 fe ff ff      	add64 r4, -0x158
   10fa8: bf 13 00 00 00 00 00 00      	mov64 r3, r1
   10fb0: 0f 43 00 00 00 00 00 00      	add64 r3, r4
   10fb8: 71 35 06 00 00 00 00 00      	ldxb r5, [r3 + 0x6]
   10fc0: 67 05 00 00 38 00 00 00      	lsh64 r5, 0x38
   10fc8: c7 05 00 00 38 00 00 00      	arsh64 r5, 0x38
   10fd0: 75 05 0e 00 c0 ff ff ff      	jsge r5, -0x40, +0xe <entrypoint+0x10820>
   10fd8: 0f 10 00 00 00 00 00 00      	add64 r0, r1
   10fe0: 71 04 05 00 00 00 00 00      	ldxb r4, [r0 + 0x5]
   10fe8: 67 04 00 00 38 00 00 00      	lsh64 r4, 0x38
   10ff0: c7 04 00 00 38 00 00 00      	arsh64 r4, 0x38
   10ff8: 75 04 0d 00 c0 ff ff ff      	jsge r4, -0x40, +0xd <entrypoint+0x10840>
   11000: 57 04 00 00 3f 00 00 00      	and64 r4, 0x3f
   11008: 71 06 04 00 00 00 00 00      	ldxb r6, [r0 + 0x4]
   11010: 57 06 00 00 07 00 00 00      	and64 r6, 0x7
   11018: 67 06 00 00 06 00 00 00      	lsh64 r6, 0x6
   11020: 4f 46 00 00 00 00 00 00      	or64 r6, r4
   11028: 07 00 00 00 04 00 00 00      	add64 r0, 0x4
   11030: bf 03 00 00 00 00 00 00      	mov64 r3, r0
   11038: bf 64 00 00 00 00 00 00      	mov64 r4, r6
   11040: 05 00 07 00 00 00 00 00      	ja +0x7 <entrypoint+0x10858>
   11048: 07 03 00 00 06 00 00 00      	add64 r3, 0x6
   11050: 57 05 00 00 1f 00 00 00      	and64 r5, 0x1f
   11058: bf 54 00 00 00 00 00 00      	mov64 r4, r5
   11060: 05 00 06 00 00 00 00 00      	ja +0x6 <entrypoint+0x10870>
   11068: 07 00 00 00 05 00 00 00      	add64 r0, 0x5
   11070: 57 04 00 00 0f 00 00 00      	and64 r4, 0xf
   11078: bf 03 00 00 00 00 00 00      	mov64 r3, r0
   11080: 57 05 00 00 3f 00 00 00      	and64 r5, 0x3f
   11088: 67 04 00 00 06 00 00 00      	lsh64 r4, 0x6
   11090: 4f 54 00 00 00 00 00 00      	or64 r4, r5
   11098: 57 02 00 00 3f 00 00 00      	and64 r2, 0x3f
   110a0: 67 04 00 00 06 00 00 00      	lsh64 r4, 0x6
   110a8: 4f 24 00 00 00 00 00 00      	or64 r4, r2
   110b0: 1f 93 00 00 00 00 00 00      	sub64 r3, r9
   110b8: bf 17 00 00 00 00 00 00      	mov64 r7, r1
   110c0: bf 31 00 00 00 00 00 00      	mov64 r1, r3
   110c8: 15 04 ce ff 2e 00 00 00      	jeq r4, 0x2e, -0x32 <entrypoint+0x10718>
   110d0: 05 00 01 00 00 00 00 00      	ja +0x1 <entrypoint+0x108b8>
   110d8: b7 07 00 00 00 00 00 00      	mov64 r7, 0x0
   110e0: bf 91 00 00 00 00 00 00      	mov64 r1, r9
   110e8: bf 72 00 00 00 00 00 00      	mov64 r2, r7
   110f0: 85 10 00 00 ff ff ff ff      	call -0x1
   110f8: b7 00 00 00 1a 00 00 00      	mov64 r0, 0x1a
   11100: 05 00 c6 04 00 00 00 00      	ja +0x4c6 <entrypoint+0x12f10>
   11108: 7b 4a 90 fe 00 00 00 00      	stxdw [r10 - 0x170], r4
   11110: 7b 7a 98 fe 00 00 00 00      	stxdw [r10 - 0x168], r7
   11118: 85 10 00 00 5b 0e 00 00      	call 0xe5b
   11120: bf 61 00 00 00 00 00 00      	mov64 r1, r6
   11128: bf 02 00 00 00 00 00 00      	mov64 r2, r0
   11130: 85 10 00 00 b8 0e 00 00      	call 0xeb8
   11138: bf 06 00 00 00 00 00 00      	mov64 r6, r0
   11140: b7 01 00 00 00 00 00 00      	mov64 r1, 0x0
   11148: 7b 1a 88 fe 00 00 00 00      	stxdw [r10 - 0x178], r1
   11150: bf 61 00 00 00 00 00 00      	mov64 r1, r6
   11158: b7 02 00 00 00 00 00 00      	mov64 r2, 0x0
   11160: 85 10 00 00 92 0e 00 00      	call 0xe92
   11168: bf 07 00 00 00 00 00 00      	mov64 r7, r0
   11170: bf 61 00 00 00 00 00 00      	mov64 r1, r6
   11178: 85 10 00 00 ac 0f 00 00      	call 0xfac
   11180: c5 07 01 00 00 00 00 00      	jslt r7, 0x0, +0x1 <entrypoint+0x10968>
   11188: 7b 0a 88 fe 00 00 00 00      	stxdw [r10 - 0x178], r0
   11190: bf 61 00 00 00 00 00 00      	mov64 r1, r6
   11198: 18 02 00 00 ff ff ff ff 00 00 00 00 ff ff ef 43      	lddw r2, 0x43efffffffffffff
   111a8: 85 10 00 00 e8 0f 00 00      	call 0xfe8
   111b0: b7 01 00 00 ff ff ff ff      	mov64 r1, -0x1
   111b8: 65 00 01 00 00 00 00 00      	jsgt r0, 0x0, +0x1 <entrypoint+0x109a0>
   111c0: 79 a1 88 fe 00 00 00 00      	ldxdw r1, [r10 - 0x178]
   111c8: 79 a7 98 fe 00 00 00 00      	ldxdw r7, [r10 - 0x168]
   111d0: 79 a4 90 fe 00 00 00 00      	ldxdw r4, [r10 - 0x170]
   111d8: b7 00 00 00 03 00 00 00      	mov64 r0, 0x3
   111e0: 79 83 50 00 00 00 00 00      	ldxdw r3, [r8 + 0x50]
   111e8: 55 03 f1 01 63 01 00 00      	jne r3, 0x163, +0x1f1 <entrypoint+0x11950>
   111f0: 71 83 5a 00 00 00 00 00      	ldxb r3, [r8 + 0x5a]
   111f8: 15 03 02 00 00 00 00 00      	jeq r3, 0x0, +0x2 <entrypoint+0x109e8>
   11200: 15 03 f5 00 01 00 00 00      	jeq r3, 0x1, +0xf5 <entrypoint+0x11188>
   11208: 05 00 a5 04 00 00 00 00      	ja +0x4a5 <entrypoint+0x12f10>
   11210: b7 00 00 00 00 00 00 00      	mov64 r0, 0x0
   11218: ad 14 eb 01 00 00 00 00      	jlt r4, r1, +0x1eb <entrypoint+0x11950>
   11220: 07 09 00 00 ff ff ff ff      	add64 r9, -0x1
   11228: 73 78 58 00 00 00 00 00      	stxb [r8 + 0x58], r7
   11230: 73 98 59 00 00 00 00 00      	stxb [r8 + 0x59], r9
   11238: bf 96 00 00 00 00 00 00      	mov64 r6, r9
   11240: bf 91 00 00 00 00 00 00      	mov64 r1, r9
   11248: 85 10 00 00 e5 0a 00 00      	call 0xae5
   11250: b7 01 00 00 07 00 00 00      	mov64 r1, 0x7
   11258: 15 00 8d 00 00 00 00 00      	jeq r0, 0x0, +0x8d <entrypoint+0x10ea0>
   11260: 71 81 58 00 00 00 00 00      	ldxb r1, [r8 + 0x58]
   11268: 85 10 00 00 e1 0a 00 00      	call 0xae1
   11270: bf 02 00 00 00 00 00 00      	mov64 r2, r0
   11278: b7 01 00 00 08 00 00 00      	mov64 r1, 0x8
   11280: 79 a4 a0 fe 00 00 00 00      	ldxdw r4, [r10 - 0x160]
   11288: bf 63 00 00 00 00 00 00      	mov64 r3, r6
   11290: b7 00 00 00 00 00 00 00      	mov64 r0, 0x0
   11298: 15 02 93 04 00 00 00 00      	jeq r2, 0x0, +0x493 <entrypoint+0x12f10>
   112a0: 15 03 6e 00 00 00 00 00      	jeq r3, 0x0, +0x6e <entrypoint+0x10df0>
   112a8: 79 41 08 00 00 00 00 00      	ldxdw r1, [r4 + 0x8]
   112b0: 79 12 08 00 00 00 00 00      	ldxdw r2, [r1 + 0x8]
   112b8: 79 15 10 00 00 00 00 00      	ldxdw r5, [r1 + 0x10]
   112c0: 79 10 18 00 00 00 00 00      	ldxdw r0, [r1 + 0x18]
   112c8: 79 11 20 00 00 00 00 00      	ldxdw r1, [r1 + 0x20]
   112d0: 7b 18 73 00 00 00 00 00      	stxdw [r8 + 0x73], r1
   112d8: 7b 08 6b 00 00 00 00 00      	stxdw [r8 + 0x6b], r0
   112e0: 7b 58 63 00 00 00 00 00      	stxdw [r8 + 0x63], r5
   112e8: 7b 28 5b 00 00 00 00 00      	stxdw [r8 + 0x5b], r2
   112f0: 15 03 64 00 01 00 00 00      	jeq r3, 0x1, +0x64 <entrypoint+0x10df0>
   112f8: 79 41 10 00 00 00 00 00      	ldxdw r1, [r4 + 0x10]
   11300: 79 12 08 00 00 00 00 00      	ldxdw r2, [r1 + 0x8]
   11308: 79 15 10 00 00 00 00 00      	ldxdw r5, [r1 + 0x10]
   11310: 79 10 18 00 00 00 00 00      	ldxdw r0, [r1 + 0x18]
   11318: 79 11 20 00 00 00 00 00      	ldxdw r1, [r1 + 0x20]
   11320: 7b 18 93 00 00 00 00 00      	stxdw [r8 + 0x93], r1
   11328: 7b 08 8b 00 00 00 00 00      	stxdw [r8 + 0x8b], r0
   11330: 7b 58 83 00 00 00 00 00      	stxdw [r8 + 0x83], r5
   11338: 7b 28 7b 00 00 00 00 00      	stxdw [r8 + 0x7b], r2
   11340: a5 03 5a 00 03 00 00 00      	jlt r3, 0x3, +0x5a <entrypoint+0x10df0>
   11348: 79 41 18 00 00 00 00 00      	ldxdw r1, [r4 + 0x18]
   11350: 79 12 08 00 00 00 00 00      	ldxdw r2, [r1 + 0x8]
   11358: 79 15 10 00 00 00 00 00      	ldxdw r5, [r1 + 0x10]
   11360: 79 10 18 00 00 00 00 00      	ldxdw r0, [r1 + 0x18]
   11368: 79 11 20 00 00 00 00 00      	ldxdw r1, [r1 + 0x20]
   11370: 7b 18 b3 00 00 00 00 00      	stxdw [r8 + 0xb3], r1
   11378: 7b 08 ab 00 00 00 00 00      	stxdw [r8 + 0xab], r0
   11380: 7b 58 a3 00 00 00 00 00      	stxdw [r8 + 0xa3], r5
   11388: 7b 28 9b 00 00 00 00 00      	stxdw [r8 + 0x9b], r2
   11390: 15 03 50 00 03 00 00 00      	jeq r3, 0x3, +0x50 <entrypoint+0x10df0>
   11398: 79 41 20 00 00 00 00 00      	ldxdw r1, [r4 + 0x20]
   113a0: 79 12 08 00 00 00 00 00      	ldxdw r2, [r1 + 0x8]
   113a8: 79 15 10 00 00 00 00 00      	ldxdw r5, [r1 + 0x10]
   113b0: 79 10 18 00 00 00 00 00      	ldxdw r0, [r1 + 0x18]
   113b8: 79 11 20 00 00 00 00 00      	ldxdw r1, [r1 + 0x20]
   113c0: 7b 18 d3 00 00 00 00 00      	stxdw [r8 + 0xd3], r1
   113c8: 7b 08 cb 00 00 00 00 00      	stxdw [r8 + 0xcb], r0
   113d0: 7b 58 c3 00 00 00 00 00      	stxdw [r8 + 0xc3], r5
   113d8: 7b 28 bb 00 00 00 00 00      	stxdw [r8 + 0xbb], r2
   113e0: a5 03 46 00 05 00 00 00      	jlt r3, 0x5, +0x46 <entrypoint+0x10df0>
   113e8: 79 41 28 00 00 00 00 00      	ldxdw r1, [r4 + 0x28]
   113f0: 79 12 08 00 00 00 00 00      	ldxdw r2, [r1 + 0x8]
   113f8: 79 15 10 00 00 00 00 00      	ldxdw r5, [r1 + 0x10]
   11400: 79 10 18 00 00 00 00 00      	ldxdw r0, [r1 + 0x18]
   11408: 79 11 20 00 00 00 00 00      	ldxdw r1, [r1 + 0x20]
   11410: 7b 18 f3 00 00 00 00 00      	stxdw [r8 + 0xf3], r1
   11418: 7b 08 eb 00 00 00 00 00      	stxdw [r8 + 0xeb], r0
   11420: 7b 58 e3 00 00 00 00 00      	stxdw [r8 + 0xe3], r5
   11428: 7b 28 db 00 00 00 00 00      	stxdw [r8 + 0xdb], r2
   11430: 15 03 3c 00 05 00 00 00      	jeq r3, 0x5, +0x3c <entrypoint+0x10df0>
   11438: 79 41 30 00 00 00 00 00      	ldxdw r1, [r4 + 0x30]
   11440: 79 12 08 00 00 00 00 00      	ldxdw r2, [r1 + 0x8]
   11448: 79 15 10 00 00 00 00 00      	ldxdw r5, [r1 + 0x10]
   11450: 79 10 18 00 00 00 00 00      	ldxdw r0, [r1 + 0x18]
   11458: 79 11 20 00 00 00 00 00      	ldxdw r1, [r1 + 0x20]
   11460: 7b 18 13 01 00 00 00 00      	stxdw [r8 + 0x113], r1
   11468: 7b 08 0b 01 00 00 00 00      	stxdw [r8 + 0x10b], r0
   11470: 7b 58 03 01 00 00 00 00      	stxdw [r8 + 0x103], r5
   11478: 7b 28 fb 00 00 00 00 00      	stxdw [r8 + 0xfb], r2
   11480: a5 03 32 00 07 00 00 00      	jlt r3, 0x7, +0x32 <entrypoint+0x10df0>
   11488: 79 41 38 00 00 00 00 00      	ldxdw r1, [r4 + 0x38]
   11490: 79 12 08 00 00 00 00 00      	ldxdw r2, [r1 + 0x8]
   11498: 79 15 10 00 00 00 00 00      	ldxdw r5, [r1 + 0x10]
   114a0: 79 10 18 00 00 00 00 00      	ldxdw r0, [r1 + 0x18]
   114a8: 79 11 20 00 00 00 00 00      	ldxdw r1, [r1 + 0x20]
   114b0: 7b 18 33 01 00 00 00 00      	stxdw [r8 + 0x133], r1
   114b8: 7b 08 2b 01 00 00 00 00      	stxdw [r8 + 0x12b], r0
   114c0: 7b 58 23 01 00 00 00 00      	stxdw [r8 + 0x123], r5
   114c8: 7b 28 1b 01 00 00 00 00      	stxdw [r8 + 0x11b], r2
   114d0: 15 03 28 00 07 00 00 00      	jeq r3, 0x7, +0x28 <entrypoint+0x10df0>
   114d8: 79 41 40 00 00 00 00 00      	ldxdw r1, [r4 + 0x40]
   114e0: 79 12 08 00 00 00 00 00      	ldxdw r2, [r1 + 0x8]
   114e8: 79 15 10 00 00 00 00 00      	ldxdw r5, [r1 + 0x10]
   114f0: 79 10 18 00 00 00 00 00      	ldxdw r0, [r1 + 0x18]
   114f8: 79 11 20 00 00 00 00 00      	ldxdw r1, [r1 + 0x20]
   11500: 7b 18 53 01 00 00 00 00      	stxdw [r8 + 0x153], r1
   11508: 7b 08 4b 01 00 00 00 00      	stxdw [r8 + 0x14b], r0
   11510: 7b 58 43 01 00 00 00 00      	stxdw [r8 + 0x143], r5
   11518: 7b 28 3b 01 00 00 00 00      	stxdw [r8 + 0x13b], r2
   11520: a5 03 1e 00 09 00 00 00      	jlt r3, 0x9, +0x1e <entrypoint+0x10df0>
   11528: 79 41 48 00 00 00 00 00      	ldxdw r1, [r4 + 0x48]
   11530: 79 12 08 00 00 00 00 00      	ldxdw r2, [r1 + 0x8]
   11538: 79 15 10 00 00 00 00 00      	ldxdw r5, [r1 + 0x10]
   11540: 79 10 18 00 00 00 00 00      	ldxdw r0, [r1 + 0x18]
   11548: 79 11 20 00 00 00 00 00      	ldxdw r1, [r1 + 0x20]
   11550: 7b 18 73 01 00 00 00 00      	stxdw [r8 + 0x173], r1
   11558: 7b 08 6b 01 00 00 00 00      	stxdw [r8 + 0x16b], r0
   11560: 7b 58 63 01 00 00 00 00      	stxdw [r8 + 0x163], r5
   11568: 7b 28 5b 01 00 00 00 00      	stxdw [r8 + 0x15b], r2
   11570: 15 03 14 00 09 00 00 00      	jeq r3, 0x9, +0x14 <entrypoint+0x10df0>
   11578: 79 41 50 00 00 00 00 00      	ldxdw r1, [r4 + 0x50]
   11580: 79 12 08 00 00 00 00 00      	ldxdw r2, [r1 + 0x8]
   11588: 79 15 10 00 00 00 00 00      	ldxdw r5, [r1 + 0x10]
   11590: 79 10 18 00 00 00 00 00      	ldxdw r0, [r1 + 0x18]
   11598: 79 11 20 00 00 00 00 00      	ldxdw r1, [r1 + 0x20]
   115a0: 7b 18 93 01 00 00 00 00      	stxdw [r8 + 0x193], r1
   115a8: 7b 08 8b 01 00 00 00 00      	stxdw [r8 + 0x18b], r0
   115b0: 7b 58 83 01 00 00 00 00      	stxdw [r8 + 0x183], r5
   115b8: 7b 28 7b 01 00 00 00 00      	stxdw [r8 + 0x17b], r2
   115c0: a5 03 0a 00 0b 00 00 00      	jlt r3, 0xb, +0xa <entrypoint+0x10df0>
   115c8: 79 41 58 00 00 00 00 00      	ldxdw r1, [r4 + 0x58]
   115d0: 79 12 08 00 00 00 00 00      	ldxdw r2, [r1 + 0x8]
   115d8: 79 14 10 00 00 00 00 00      	ldxdw r4, [r1 + 0x10]
   115e0: 79 15 18 00 00 00 00 00      	ldxdw r5, [r1 + 0x18]
   115e8: 79 11 20 00 00 00 00 00      	ldxdw r1, [r1 + 0x20]
   115f0: 7b 18 b3 01 00 00 00 00      	stxdw [r8 + 0x1b3], r1
   115f8: 7b 58 ab 01 00 00 00 00      	stxdw [r8 + 0x1ab], r5
   11600: 7b 48 a3 01 00 00 00 00      	stxdw [r8 + 0x1a3], r4
   11608: 7b 28 9b 01 00 00 00 00      	stxdw [r8 + 0x19b], r2
   11610: 55 03 60 0a 0b 00 00 00      	jne r3, 0xb, +0xa60 <entrypoint+0x160f0>
   11618: 72 08 5a 00 01 00 00 00      	stb [r8 + 0x5a], 0x1
   11620: b7 00 00 00 1a 00 00 00      	mov64 r0, 0x1a
   11628: 05 00 21 04 00 00 00 00      	ja +0x421 <entrypoint+0x12f10>
   11630: 7b 5a 90 fe 00 00 00 00      	stxdw [r10 - 0x170], r5
   11638: bf 27 00 00 00 00 00 00      	mov64 r7, r2
   11640: 1f 40 00 00 00 00 00 00      	sub64 r0, r4
   11648: 6a 0a b0 fe 30 2e 00 00      	sth [r10 - 0x150], 0x2e30
   11650: bf a1 00 00 00 00 00 00      	mov64 r1, r10
   11658: 07 01 00 00 b2 fe ff ff      	add64 r1, -0x14e
   11660: b7 02 00 00 30 00 00 00      	mov64 r2, 0x30
   11668: bf 03 00 00 00 00 00 00      	mov64 r3, r0
   11670: bf 08 00 00 00 00 00 00      	mov64 r8, r0
   11678: bf 49 00 00 00 00 00 00      	mov64 r9, r4
   11680: 85 10 00 00 ff ff ff ff      	call -0x1
   11688: bf 91 00 00 00 00 00 00      	mov64 r1, r9
   11690: bf 82 00 00 00 00 00 00      	mov64 r2, r8
   11698: 55 02 c3 00 ff 00 00 00      	jne r2, 0xff, +0xc3 <entrypoint+0x11490>
   116a0: 79 a1 98 fe 00 00 00 00      	ldxdw r1, [r10 - 0x168]
   116a8: bf 18 00 00 00 00 00 00      	mov64 r8, r1
   116b0: 79 a9 a0 fe 00 00 00 00      	ldxdw r9, [r10 - 0x160]
   116b8: 25 01 b2 fe 01 01 00 00      	jgt r1, 0x101, -0x14e <entrypoint+0x10428>
   116c0: 05 00 b3 fe 00 00 00 00      	ja -0x14d <entrypoint+0x10438>
   116c8: b7 00 00 00 00 00 00 00      	mov64 r0, 0x0
   116d0: 05 00 0c 04 00 00 00 00      	ja +0x40c <entrypoint+0x12f10>
   116d8: 71 81 58 00 00 00 00 00      	ldxb r1, [r8 + 0x58]
   116e0: 55 01 54 01 01 00 00 00      	jne r1, 0x1, +0x154 <entrypoint+0x11960>
   116e8: b7 01 00 00 04 00 00 00      	mov64 r1, 0x4
   116f0: 79 85 5c 00 00 00 00 00      	ldxdw r5, [r8 + 0x5c]
   116f8: 79 64 10 00 00 00 00 00      	ldxdw r4, [r6 + 0x10]
   11700: 79 49 08 00 00 00 00 00      	ldxdw r9, [r4 + 0x8]
   11708: 5d 95 05 04 00 00 00 00      	jne r5, r9, +0x405 <entrypoint+0x12f10>
   11710: 79 45 10 00 00 00 00 00      	ldxdw r5, [r4 + 0x10]
   11718: 79 89 64 00 00 00 00 00      	ldxdw r9, [r8 + 0x64]
   11720: 5d 59 02 04 00 00 00 00      	jne r9, r5, +0x402 <entrypoint+0x12f10>
   11728: 79 45 18 00 00 00 00 00      	ldxdw r5, [r4 + 0x18]
   11730: 79 89 6c 00 00 00 00 00      	ldxdw r9, [r8 + 0x6c]
   11738: 5d 59 ff 03 00 00 00 00      	jne r9, r5, +0x3ff <entrypoint+0x12f10>
   11740: 79 45 20 00 00 00 00 00      	ldxdw r5, [r4 + 0x20]
   11748: 79 89 74 00 00 00 00 00      	ldxdw r9, [r8 + 0x74]
   11750: 5d 59 fc 03 00 00 00 00      	jne r9, r5, +0x3fc <entrypoint+0x12f10>
   11758: 7b 6a a0 fe 00 00 00 00      	stxdw [r10 - 0x160], r6
   11760: 79 41 50 00 00 00 00 00      	ldxdw r1, [r4 + 0x50]
   11768: 55 01 de 02 63 01 00 00      	jne r1, 0x163, +0x2de <entrypoint+0x12638>
   11770: 79 41 28 00 00 00 00 00      	ldxdw r1, [r4 + 0x28]
   11778: 18 05 00 00 06 dd f6 e1 00 00 00 00 ee 75 8f de      	lddw r5, -0x21708a111e0922fa
   11788: 1d 51 ce 02 00 00 00 00      	jeq r1, r5, +0x2ce <entrypoint+0x125d8>
   11790: 18 05 00 00 06 dd f6 e1 00 00 00 00 d7 65 a1 93      	lddw r5, -0x6c5e9a281e0922fa
   117a0: 5d 51 d7 02 00 00 00 00      	jne r1, r5, +0x2d7 <entrypoint+0x12638>
   117a8: 79 41 30 00 00 00 00 00      	ldxdw r1, [r4 + 0x30]
   117b0: 18 05 00 00 d9 cb e1 46 00 00 00 00 ce eb 79 ac      	lddw r5, -0x53861431b91e3427
   117c0: 5d 51 d3 02 00 00 00 00      	jne r1, r5, +0x2d3 <entrypoint+0x12638>
   117c8: 79 41 38 00 00 00 00 00      	ldxdw r1, [r4 + 0x38]
   117d0: 18 05 00 00 1c b4 85 ed 00 00 00 00 5f 5b 37 91      	lddw r5, -0x6ec8a4a0127a4be4
   117e0: 5d 51 cf 02 00 00 00 00      	jne r1, r5, +0x2cf <entrypoint+0x12638>
   117e8: 79 41 40 00 00 00 00 00      	ldxdw r1, [r4 + 0x40]
   117f0: 18 05 00 00 3a 8c f5 85 00 00 00 00 7e ff 00 a9      	lddw r5, -0x56ff00817a0a73c6
   11800: 5d 51 cb 02 00 00 00 00      	jne r1, r5, +0x2cb <entrypoint+0x12638>
   11808: 05 00 bc 05 00 00 00 00      	ja +0x5bc <entrypoint+0x13dc8>
   11810: 7b 3a 98 fe 00 00 00 00      	stxdw [r10 - 0x168], r3
   11818: 7b 6a a0 fe 00 00 00 00      	stxdw [r10 - 0x160], r6
   11820: bf 21 00 00 00 00 00 00      	mov64 r1, r2
   11828: 85 10 00 00 79 0d 00 00      	call 0xd79
   11830: bf 71 00 00 00 00 00 00      	mov64 r1, r7
   11838: bf 02 00 00 00 00 00 00      	mov64 r2, r0
   11840: 85 10 00 00 d6 0d 00 00      	call 0xdd6
   11848: bf 06 00 00 00 00 00 00      	mov64 r6, r0
   11850: b7 01 00 00 00 00 00 00      	mov64 r1, 0x0
   11858: 7b 1a 90 fe 00 00 00 00      	stxdw [r10 - 0x170], r1
   11860: bf 61 00 00 00 00 00 00      	mov64 r1, r6
   11868: b7 02 00 00 00 00 00 00      	mov64 r2, 0x0
   11870: 85 10 00 00 b0 0d 00 00      	call 0xdb0
   11878: bf 07 00 00 00 00 00 00      	mov64 r7, r0
   11880: bf 61 00 00 00 00 00 00      	mov64 r1, r6
   11888: 85 10 00 00 ca 0e 00 00      	call 0xeca
   11890: c5 07 01 00 00 00 00 00      	jslt r7, 0x0, +0x1 <entrypoint+0x11078>
   11898: 7b 0a 90 fe 00 00 00 00      	stxdw [r10 - 0x170], r0
   118a0: bf 61 00 00 00 00 00 00      	mov64 r1, r6
   118a8: 18 02 00 00 ff ff ff ff 00 00 00 00 ff ff ef 43      	lddw r2, 0x43efffffffffffff
   118b8: 85 10 00 00 06 0f 00 00      	call 0xf06
   118c0: b7 02 00 00 ff ff ff ff      	mov64 r2, -0x1
   118c8: 65 00 01 00 00 00 00 00      	jsgt r0, 0x0, +0x1 <entrypoint+0x110b0>
   118d0: 79 a2 90 fe 00 00 00 00      	ldxdw r2, [r10 - 0x170]
   118d8: 79 a6 a0 fe 00 00 00 00      	ldxdw r6, [r10 - 0x160]
   118e0: b7 01 00 00 00 00 00 00      	mov64 r1, 0x0
   118e8: 79 a3 98 fe 00 00 00 00      	ldxdw r3, [r10 - 0x168]
   118f0: 79 64 08 00 00 00 00 00      	ldxdw r4, [r6 + 0x8]
   118f8: 79 45 08 00 00 00 00 00      	ldxdw r5, [r4 + 0x8]
   11900: 18 00 00 00 06 9b 88 57 00 00 00 00 fe ab 81 84      	lddw r0, -0x7b7e5401a87764fa
   11910: 5d 05 0d 00 00 00 00 00      	jne r5, r0, +0xd <entrypoint+0x11158>
   11918: 79 45 10 00 00 00 00 00      	ldxdw r5, [r4 + 0x10]
   11920: 18 00 00 00 fb 68 7f 63 00 00 00 00 46 18 c0 35      	lddw r0, 0x35c01846637f68fb
   11930: 5d 05 09 00 00 00 00 00      	jne r5, r0, +0x9 <entrypoint+0x11158>
   11938: 79 45 18 00 00 00 00 00      	ldxdw r5, [r4 + 0x18]
   11940: 18 00 00 00 da c4 39 dc 00 00 00 00 1a eb 3b 55      	lddw r0, 0x553beb1adc39c4da
   11950: 5d 05 05 00 00 00 00 00      	jne r5, r0, +0x5 <entrypoint+0x11158>
   11958: b7 07 00 00 01 00 00 00      	mov64 r7, 0x1
   11960: 79 45 20 00 00 00 00 00      	ldxdw r5, [r4 + 0x20]
   11968: 18 00 00 00 98 a0 f0 00 00 00 00 00 00 00 00 01      	lddw r0, 0x100000000f0a098
   11978: 1d 05 01 00 00 00 00 00      	jeq r5, r0, +0x1 <entrypoint+0x11160>
   11980: b7 07 00 00 00 00 00 00      	mov64 r7, 0x0
   11988: b7 00 00 00 03 00 00 00      	mov64 r0, 0x3
   11990: 55 09 b4 03 a5 00 00 00      	jne r9, 0xa5, +0x3b4 <entrypoint+0x12f10>
   11998: 71 85 c4 00 00 00 00 00      	ldxb r5, [r8 + 0xc4]
   119a0: 25 05 b2 03 02 00 00 00      	jgt r5, 0x2, +0x3b2 <entrypoint+0x12f10>
   119a8: 15 05 f6 00 00 00 00 00      	jeq r5, 0x0, +0xf6 <entrypoint+0x11938>
   119b0: b7 00 00 00 00 00 00 00      	mov64 r0, 0x0
   119b8: b7 01 00 00 06 00 00 00      	mov64 r1, 0x6
   119c0: 05 00 ae 03 00 00 00 00      	ja +0x3ae <entrypoint+0x12f10>
   119c8: 71 31 08 00 00 00 00 00      	ldxb r1, [r3 + 0x8]
   119d0: b7 00 00 00 00 00 00 00      	mov64 r0, 0x0
   119d8: 71 55 84 00 00 00 00 00      	ldxb r5, [r5 + 0x84]
   119e0: 5d 51 8a 04 00 00 00 00      	jne r1, r5, +0x48a <entrypoint+0x13610>
   119e8: b7 01 00 00 04 00 00 00      	mov64 r1, 0x4
   119f0: 79 47 78 00 00 00 00 00      	ldxdw r7, [r4 + 0x78]
   119f8: 79 65 18 00 00 00 00 00      	ldxdw r5, [r6 + 0x18]
   11a00: 79 58 08 00 00 00 00 00      	ldxdw r8, [r5 + 0x8]
   11a08: 5d 87 a5 03 00 00 00 00      	jne r7, r8, +0x3a5 <entrypoint+0x12f10>
   11a10: 79 57 10 00 00 00 00 00      	ldxdw r7, [r5 + 0x10]
   11a18: 79 48 80 00 00 00 00 00      	ldxdw r8, [r4 + 0x80]
   11a20: 5d 78 a2 03 00 00 00 00      	jne r8, r7, +0x3a2 <entrypoint+0x12f10>
   11a28: 79 57 18 00 00 00 00 00      	ldxdw r7, [r5 + 0x18]
   11a30: 79 48 88 00 00 00 00 00      	ldxdw r8, [r4 + 0x88]
   11a38: 5d 78 9f 03 00 00 00 00      	jne r8, r7, +0x39f <entrypoint+0x12f10>
   11a40: 79 57 20 00 00 00 00 00      	ldxdw r7, [r5 + 0x20]
   11a48: 79 48 90 00 00 00 00 00      	ldxdw r8, [r4 + 0x90]
   11a50: 5d 78 9c 03 00 00 00 00      	jne r8, r7, +0x39c <entrypoint+0x12f10>
   11a58: 79 33 00 00 00 00 00 00      	ldxdw r3, [r3 + 0x0]
   11a60: 79 51 50 00 00 00 00 00      	ldxdw r1, [r5 + 0x50]
   11a68: 55 01 c8 01 63 01 00 00      	jne r1, 0x163, +0x1c8 <entrypoint+0x12088>
   11a70: 79 51 28 00 00 00 00 00      	ldxdw r1, [r5 + 0x28]
   11a78: 18 00 00 00 06 dd f6 e1 00 00 00 00 ee 75 8f de      	lddw r0, -0x21708a111e0922fa
   11a88: 1d 01 b8 01 00 00 00 00      	jeq r1, r0, +0x1b8 <entrypoint+0x12028>
   11a90: 18 00 00 00 06 dd f6 e1 00 00 00 00 d7 65 a1 93      	lddw r0, -0x6c5e9a281e0922fa
   11aa0: 5d 01 c1 01 00 00 00 00      	jne r1, r0, +0x1c1 <entrypoint+0x12088>
   11aa8: 79 51 30 00 00 00 00 00      	ldxdw r1, [r5 + 0x30]
   11ab0: 18 00 00 00 d9 cb e1 46 00 00 00 00 ce eb 79 ac      	lddw r0, -0x53861431b91e3427
   11ac0: 5d 01 bd 01 00 00 00 00      	jne r1, r0, +0x1bd <entrypoint+0x12088>
   11ac8: 79 51 38 00 00 00 00 00      	ldxdw r1, [r5 + 0x38]
   11ad0: 18 00 00 00 1c b4 85 ed 00 00 00 00 5f 5b 37 91      	lddw r0, -0x6ec8a4a0127a4be4
   11ae0: 5d 01 b9 01 00 00 00 00      	jne r1, r0, +0x1b9 <entrypoint+0x12088>
   11ae8: 79 51 40 00 00 00 00 00      	ldxdw r1, [r5 + 0x40]
   11af0: 18 00 00 00 3a 8c f5 85 00 00 00 00 7e ff 00 a9      	lddw r0, -0x56ff00817a0a73c6
   11b00: 5d 01 b5 01 00 00 00 00      	jne r1, r0, +0x1b5 <entrypoint+0x12088>
   11b08: 05 00 ff 04 00 00 00 00      	ja +0x4ff <entrypoint+0x13ae0>
   11b10: 71 37 08 00 00 00 00 00      	ldxb r7, [r3 + 0x8]
   11b18: b7 00 00 00 00 00 00 00      	mov64 r0, 0x0
   11b20: b7 01 00 00 12 00 00 00      	mov64 r1, 0x12
   11b28: 71 58 84 00 00 00 00 00      	ldxb r8, [r5 + 0x84]
   11b30: 5d 87 80 03 00 00 00 00      	jne r7, r8, +0x380 <entrypoint+0x12f10>
   11b38: b7 01 00 00 05 00 00 00      	mov64 r1, 0x5
   11b40: 71 57 58 00 00 00 00 00      	ldxb r7, [r5 + 0x58]
   11b48: 55 07 7d 03 01 00 00 00      	jne r7, 0x1, +0x37d <entrypoint+0x12f10>
   11b50: b7 01 00 00 04 00 00 00      	mov64 r1, 0x4
   11b58: 79 58 5c 00 00 00 00 00      	ldxdw r8, [r5 + 0x5c]
   11b60: 79 67 10 00 00 00 00 00      	ldxdw r7, [r6 + 0x10]
   11b68: 79 79 08 00 00 00 00 00      	ldxdw r9, [r7 + 0x8]
   11b70: 5d 98 78 03 00 00 00 00      	jne r8, r9, +0x378 <entrypoint+0x12f10>
   11b78: 79 78 10 00 00 00 00 00      	ldxdw r8, [r7 + 0x10]
   11b80: 79 59 64 00 00 00 00 00      	ldxdw r9, [r5 + 0x64]
   11b88: 5d 89 75 03 00 00 00 00      	jne r9, r8, +0x375 <entrypoint+0x12f10>
   11b90: 79 78 18 00 00 00 00 00      	ldxdw r8, [r7 + 0x18]
   11b98: 79 59 6c 00 00 00 00 00      	ldxdw r9, [r5 + 0x6c]
   11ba0: 5d 89 72 03 00 00 00 00      	jne r9, r8, +0x372 <entrypoint+0x12f10>
   11ba8: 79 78 20 00 00 00 00 00      	ldxdw r8, [r7 + 0x20]
   11bb0: 79 59 74 00 00 00 00 00      	ldxdw r9, [r5 + 0x74]
   11bb8: 5d 89 6f 03 00 00 00 00      	jne r9, r8, +0x36f <entrypoint+0x12f10>
   11bc0: 79 33 00 00 00 00 00 00      	ldxdw r3, [r3 + 0x0]
   11bc8: 79 71 50 00 00 00 00 00      	ldxdw r1, [r7 + 0x50]
   11bd0: 55 01 cc 02 63 01 00 00      	jne r1, 0x163, +0x2cc <entrypoint+0x12a10>
   11bd8: 79 71 28 00 00 00 00 00      	ldxdw r1, [r7 + 0x28]
   11be0: 18 00 00 00 06 dd f6 e1 00 00 00 00 ee 75 8f de      	lddw r0, -0x21708a111e0922fa
   11bf0: 1d 01 bc 02 00 00 00 00      	jeq r1, r0, +0x2bc <entrypoint+0x129b0>
   11bf8: 18 00 00 00 06 dd f6 e1 00 00 00 00 d7 65 a1 93      	lddw r0, -0x6c5e9a281e0922fa
   11c08: 5d 01 c5 02 00 00 00 00      	jne r1, r0, +0x2c5 <entrypoint+0x12a10>
   11c10: 79 71 30 00 00 00 00 00      	ldxdw r1, [r7 + 0x30]
   11c18: 18 00 00 00 d9 cb e1 46 00 00 00 00 ce eb 79 ac      	lddw r0, -0x53861431b91e3427
   11c28: 5d 01 c1 02 00 00 00 00      	jne r1, r0, +0x2c1 <entrypoint+0x12a10>
   11c30: 79 71 38 00 00 00 00 00      	ldxdw r1, [r7 + 0x38]
   11c38: 18 00 00 00 1c b4 85 ed 00 00 00 00 5f 5b 37 91      	lddw r0, -0x6ec8a4a0127a4be4
   11c48: 5d 01 bd 02 00 00 00 00      	jne r1, r0, +0x2bd <entrypoint+0x12a10>
   11c50: 79 71 40 00 00 00 00 00      	ldxdw r1, [r7 + 0x40]
   11c58: 18 00 00 00 3a 8c f5 85 00 00 00 00 7e ff 00 a9      	lddw r0, -0x56ff00817a0a73c6
   11c68: 5d 01 b9 02 00 00 00 00      	jne r1, r0, +0x2b9 <entrypoint+0x12a10>
   11c70: 05 00 9d 05 00 00 00 00      	ja +0x59d <entrypoint+0x14138>
   11c78: 71 40 85 00 00 00 00 00      	ldxb r0, [r4 + 0x85]
   11c80: 15 00 24 01 01 00 00 00      	jeq r0, 0x1, +0x124 <entrypoint+0x11d80>
   11c88: b7 01 00 00 00 00 00 00      	mov64 r1, 0x0
   11c90: 15 00 05 fd 00 00 00 00      	jeq r0, 0x0, -0x2fb <entrypoint+0xfc98>
   11c98: b7 00 00 00 03 00 00 00      	mov64 r0, 0x3
   11ca0: 05 00 52 03 00 00 00 00      	ja +0x352 <entrypoint+0x12f10>
   11ca8: b7 00 00 00 01 00 00 00      	mov64 r0, 0x1
   11cb0: 05 00 50 03 00 00 00 00      	ja +0x350 <entrypoint+0x12f10>
   11cb8: bf 23 00 00 00 00 00 00      	mov64 r3, r2
   11cc0: a7 03 00 00 ff 00 00 00      	xor64 r3, 0xff
   11cc8: ad 13 01 00 00 00 00 00      	jlt r3, r1, +0x1 <entrypoint+0x114b0>
   11cd0: bf 13 00 00 00 00 00 00      	mov64 r3, r1
   11cd8: 79 a9 a0 fe 00 00 00 00      	ldxdw r9, [r10 - 0x160]
   11ce0: bf 91 00 00 00 00 00 00      	mov64 r1, r9
   11ce8: 0f 21 00 00 00 00 00 00      	add64 r1, r2
   11cf0: 07 01 00 00 02 00 00 00      	add64 r1, 0x2
   11cf8: bf 72 00 00 00 00 00 00      	mov64 r2, r7
   11d00: 85 10 00 00 ff ff ff ff      	call -0x1
   11d08: 79 a8 90 fe 00 00 00 00      	ldxdw r8, [r10 - 0x170]
   11d10: 79 a1 98 fe 00 00 00 00      	ldxdw r1, [r10 - 0x168]
   11d18: 35 01 e6 fd 02 01 00 00      	jge r1, 0x102, -0x21a <entrypoint+0x10428>
   11d20: 05 00 e7 fd 00 00 00 00      	ja -0x219 <entrypoint+0x10438>
   11d28: b7 01 00 00 00 00 00 00      	mov64 r1, 0x0
   11d30: 7b 1a 98 fe 00 00 00 00      	stxdw [r10 - 0x168], r1
   11d38: 05 00 3a 00 00 00 00 00      	ja +0x3a <entrypoint+0x116e8>
   11d40: bf 71 00 00 00 00 00 00      	mov64 r1, r7
   11d48: 79 35 78 00 00 00 00 00      	ldxdw r5, [r3 + 0x78]
   11d50: 5d 15 ac 03 00 00 00 00      	jne r5, r1, +0x3ac <entrypoint+0x13290>
   11d58: bf 35 00 00 00 00 00 00      	mov64 r5, r3
   11d60: 07 05 00 00 78 00 00 00      	add64 r5, 0x78
   11d68: b7 01 00 00 04 00 00 00      	mov64 r1, 0x4
   11d70: 79 47 10 00 00 00 00 00      	ldxdw r7, [r4 + 0x10]
   11d78: 79 58 08 00 00 00 00 00      	ldxdw r8, [r5 + 0x8]
   11d80: 5d 78 36 03 00 00 00 00      	jne r8, r7, +0x336 <entrypoint+0x12f10>
   11d88: 79 47 18 00 00 00 00 00      	ldxdw r7, [r4 + 0x18]
   11d90: 79 58 10 00 00 00 00 00      	ldxdw r8, [r5 + 0x10]
   11d98: 5d 78 33 03 00 00 00 00      	jne r8, r7, +0x333 <entrypoint+0x12f10>
   11da0: 79 47 20 00 00 00 00 00      	ldxdw r7, [r4 + 0x20]
   11da8: 79 55 18 00 00 00 00 00      	ldxdw r5, [r5 + 0x18]
   11db0: 5d 75 30 03 00 00 00 00      	jne r5, r7, +0x330 <entrypoint+0x12f10>
   11db8: 79 41 50 00 00 00 00 00      	ldxdw r1, [r4 + 0x50]
   11dc0: 55 01 20 00 63 01 00 00      	jne r1, 0x163, +0x20 <entrypoint+0x116a0>
   11dc8: 79 41 28 00 00 00 00 00      	ldxdw r1, [r4 + 0x28]
   11dd0: 18 05 00 00 06 dd f6 e1 00 00 00 00 ee 75 8f de      	lddw r5, -0x21708a111e0922fa
   11de0: 1d 51 10 00 00 00 00 00      	jeq r1, r5, +0x10 <entrypoint+0x11640>
   11de8: 18 05 00 00 06 dd f6 e1 00 00 00 00 d7 65 a1 93      	lddw r5, -0x6c5e9a281e0922fa
   11df8: 5d 51 19 00 00 00 00 00      	jne r1, r5, +0x19 <entrypoint+0x116a0>
   11e00: 79 41 30 00 00 00 00 00      	ldxdw r1, [r4 + 0x30]
   11e08: 18 05 00 00 d9 cb e1 46 00 00 00 00 ce eb 79 ac      	lddw r5, -0x53861431b91e3427
   11e18: 5d 51 15 00 00 00 00 00      	jne r1, r5, +0x15 <entrypoint+0x116a0>
   11e20: 79 41 38 00 00 00 00 00      	ldxdw r1, [r4 + 0x38]
   11e28: 18 05 00 00 1c b4 85 ed 00 00 00 00 5f 5b 37 91      	lddw r5, -0x6ec8a4a0127a4be4
   11e38: 5d 51 11 00 00 00 00 00      	jne r1, r5, +0x11 <entrypoint+0x116a0>
   11e40: 79 41 40 00 00 00 00 00      	ldxdw r1, [r4 + 0x40]
   11e48: 18 05 00 00 3a 8c f5 85 00 00 00 00 7e ff 00 a9      	lddw r5, -0x56ff00817a0a73c6
   11e58: 5d 51 0d 00 00 00 00 00      	jne r1, r5, +0xd <entrypoint+0x116a0>
   11e60: 05 00 ca 03 00 00 00 00      	ja +0x3ca <entrypoint+0x13490>
   11e68: 79 41 30 00 00 00 00 00      	ldxdw r1, [r4 + 0x30]
   11e70: 18 05 00 00 18 42 5d bc 00 00 00 00 e4 6c cd da      	lddw r5, -0x2532931b43a2bde8
   11e80: 5d 51 08 00 00 00 00 00      	jne r1, r5, +0x8 <entrypoint+0x116a0>
   11e88: 79 41 38 00 00 00 00 00      	ldxdw r1, [r4 + 0x38]
   11e90: 18 05 00 00 b6 1a fc 4d 00 00 00 00 83 b9 0d 27      	lddw r5, 0x270db9834dfc1ab6
   11ea0: 5d 51 04 00 00 00 00 00      	jne r1, r5, +0x4 <entrypoint+0x116a0>
   11ea8: 79 41 40 00 00 00 00 00      	ldxdw r1, [r4 + 0x40]
   11eb0: 18 05 00 00 fe bd f9 28 00 00 00 00 d8 a1 8b fc      	lddw r5, -0x3745e27d7064202
   11ec0: 1d 51 be 03 00 00 00 00      	jeq r1, r5, +0x3be <entrypoint+0x13490>
   11ec8: 71 41 01 00 00 00 00 00      	ldxb r1, [r4 + 0x1]
   11ed0: 15 01 2a 01 00 00 00 00      	jeq r1, 0x0, +0x12a <entrypoint+0x12000>
   11ed8: 7a 03 d1 00 00 00 00 00      	stdw [r3 + 0xd1], 0x0
   11ee0: 72 03 a0 00 00 00 00 00      	stb [r3 + 0xa0], 0x0
   11ee8: b7 00 00 00 1a 00 00 00      	mov64 r0, 0x1a
   11ef0: 05 00 08 03 00 00 00 00      	ja +0x308 <entrypoint+0x12f10>
   11ef8: 1f 74 00 00 00 00 00 00      	sub64 r4, r7
   11f00: 7b 4a 98 fe 00 00 00 00      	stxdw [r10 - 0x168], r4
   11f08: bf 74 00 00 00 00 00 00      	mov64 r4, r7
   11f10: bf 68 00 00 00 00 00 00      	mov64 r8, r6
   11f18: 07 08 00 00 18 00 00 00      	add64 r8, 0x18
   11f20: 79 67 10 00 00 00 00 00      	ldxdw r7, [r6 + 0x10]
   11f28: 79 79 08 00 00 00 00 00      	ldxdw r9, [r7 + 0x8]
   11f30: 71 31 a0 00 00 00 00 00      	ldxb r1, [r3 + 0xa0]
   11f38: 55 01 21 00 01 00 00 00      	jne r1, 0x1, +0x21 <entrypoint+0x11820>
   11f40: 79 31 a4 00 00 00 00 00      	ldxdw r1, [r3 + 0xa4]
   11f48: 5d 91 1f 00 00 00 00 00      	jne r1, r9, +0x1f <entrypoint+0x11820>
   11f50: 79 71 10 00 00 00 00 00      	ldxdw r1, [r7 + 0x10]
   11f58: 79 30 ac 00 00 00 00 00      	ldxdw r0, [r3 + 0xac]
   11f60: 5d 10 1c 00 00 00 00 00      	jne r0, r1, +0x1c <entrypoint+0x11820>
   11f68: 79 71 18 00 00 00 00 00      	ldxdw r1, [r7 + 0x18]
   11f70: 79 30 b4 00 00 00 00 00      	ldxdw r0, [r3 + 0xb4]
   11f78: 5d 10 19 00 00 00 00 00      	jne r0, r1, +0x19 <entrypoint+0x11820>
   11f80: 79 71 20 00 00 00 00 00      	ldxdw r1, [r7 + 0x20]
   11f88: 79 30 bc 00 00 00 00 00      	ldxdw r0, [r3 + 0xbc]
   11f90: 5d 10 16 00 00 00 00 00      	jne r0, r1, +0x16 <entrypoint+0x11820>
   11f98: 79 71 50 00 00 00 00 00      	ldxdw r1, [r7 + 0x50]
   11fa0: 55 01 36 03 63 01 00 00      	jne r1, 0x163, +0x336 <entrypoint+0x13130>
   11fa8: 79 71 28 00 00 00 00 00      	ldxdw r1, [r7 + 0x28]
   11fb0: 18 05 00 00 06 dd f6 e1 00 00 00 00 ee 75 8f de      	lddw r5, -0x21708a111e0922fa
   11fc0: 1d 51 26 03 00 00 00 00      	jeq r1, r5, +0x326 <entrypoint+0x130d0>
   11fc8: 18 05 00 00 06 dd f6 e1 00 00 00 00 d7 65 a1 93      	lddw r5, -0x6c5e9a281e0922fa
   11fd8: 5d 51 2f 03 00 00 00 00      	jne r1, r5, +0x32f <entrypoint+0x13130>
   11fe0: 79 71 30 00 00 00 00 00      	ldxdw r1, [r7 + 0x30]
   11fe8: 18 05 00 00 d9 cb e1 46 00 00 00 00 ce eb 79 ac      	lddw r5, -0x53861431b91e3427
   11ff8: 5d 51 2b 03 00 00 00 00      	jne r1, r5, +0x32b <entrypoint+0x13130>
   12000: 79 71 38 00 00 00 00 00      	ldxdw r1, [r7 + 0x38]
   12008: 18 05 00 00 1c b4 85 ed 00 00 00 00 5f 5b 37 91      	lddw r5, -0x6ec8a4a0127a4be4
   12018: 5d 51 27 03 00 00 00 00      	jne r1, r5, +0x327 <entrypoint+0x13130>
   12020: 79 71 40 00 00 00 00 00      	ldxdw r1, [r7 + 0x40]
   12028: 18 05 00 00 3a 8c f5 85 00 00 00 00 7e ff 00 a9      	lddw r5, -0x56ff00817a0a73c6
   12038: 5d 51 23 03 00 00 00 00      	jne r1, r5, +0x323 <entrypoint+0x13130>
   12040: 05 00 92 06 00 00 00 00      	ja +0x692 <entrypoint+0x14cb0>
   12048: b7 00 00 00 00 00 00 00      	mov64 r0, 0x0
   12050: b7 01 00 00 04 00 00 00      	mov64 r1, 0x4
   12058: 79 35 78 00 00 00 00 00      	ldxdw r5, [r3 + 0x78]
   12060: 5d 95 da 02 00 00 00 00      	jne r5, r9, +0x2da <entrypoint+0x12f10>
   12068: 79 75 10 00 00 00 00 00      	ldxdw r5, [r7 + 0x10]
   12070: 79 39 80 00 00 00 00 00      	ldxdw r9, [r3 + 0x80]
   12078: 5d 59 d7 02 00 00 00 00      	jne r9, r5, +0x2d7 <entrypoint+0x12f10>
   12080: 79 75 18 00 00 00 00 00      	ldxdw r5, [r7 + 0x18]
   12088: 79 39 88 00 00 00 00 00      	ldxdw r9, [r3 + 0x88]
   12090: 5d 59 d4 02 00 00 00 00      	jne r9, r5, +0x2d4 <entrypoint+0x12f10>
   12098: 79 75 20 00 00 00 00 00      	ldxdw r5, [r7 + 0x20]
   120a0: 79 39 90 00 00 00 00 00      	ldxdw r9, [r3 + 0x90]
   120a8: 5d 59 d1 02 00 00 00 00      	jne r9, r5, +0x2d1 <entrypoint+0x12f10>
   120b0: 79 71 50 00 00 00 00 00      	ldxdw r1, [r7 + 0x50]
   120b8: 55 01 db 00 63 01 00 00      	jne r1, 0x163, +0xdb <entrypoint+0x11f70>
   120c0: 79 71 28 00 00 00 00 00      	ldxdw r1, [r7 + 0x28]
   120c8: 18 05 00 00 06 dd f6 e1 00 00 00 00 ee 75 8f de      	lddw r5, -0x21708a111e0922fa
   120d8: 1d 51 cb 00 00 00 00 00      	jeq r1, r5, +0xcb <entrypoint+0x11f10>
   120e0: 18 05 00 00 06 dd f6 e1 00 00 00 00 d7 65 a1 93      	lddw r5, -0x6c5e9a281e0922fa
   120f0: 5d 51 d4 00 00 00 00 00      	jne r1, r5, +0xd4 <entrypoint+0x11f70>
   120f8: 79 71 30 00 00 00 00 00      	ldxdw r1, [r7 + 0x30]
   12100: 18 05 00 00 d9 cb e1 46 00 00 00 00 ce eb 79 ac      	lddw r5, -0x53861431b91e3427
   12110: 5d 51 d0 00 00 00 00 00      	jne r1, r5, +0xd0 <entrypoint+0x11f70>
   12118: 79 71 38 00 00 00 00 00      	ldxdw r1, [r7 + 0x38]
   12120: 18 05 00 00 1c b4 85 ed 00 00 00 00 5f 5b 37 91      	lddw r5, -0x6ec8a4a0127a4be4
   12130: 5d 51 cc 00 00 00 00 00      	jne r1, r5, +0xcc <entrypoint+0x11f70>
   12138: 79 71 40 00 00 00 00 00      	ldxdw r1, [r7 + 0x40]
   12140: 18 05 00 00 3a 8c f5 85 00 00 00 00 7e ff 00 a9      	lddw r5, -0x56ff00817a0a73c6
   12150: 5d 51 c8 00 00 00 00 00      	jne r1, r5, +0xc8 <entrypoint+0x11f70>
   12158: 05 00 d6 03 00 00 00 00      	ja +0x3d6 <entrypoint+0x137e8>
   12160: b7 00 00 00 00 00 00 00      	mov64 r0, 0x0
   12168: 79 81 48 00 00 00 00 00      	ldxdw r1, [r8 + 0x48]
   12170: 3d 21 4a 00 00 00 00 00      	jge r1, r2, +0x4a <entrypoint+0x11ba0>
   12178: b7 01 00 00 00 00 00 00      	mov64 r1, 0x0
   12180: 05 00 b6 02 00 00 00 00      	ja +0x2b6 <entrypoint+0x12f10>
   12188: 79 61 10 00 00 00 00 00      	ldxdw r1, [r6 + 0x10]
   12190: 1d 18 cf 00 00 00 00 00      	jeq r8, r1, +0xcf <entrypoint+0x11fe8>
   12198: b7 01 00 00 0f 00 00 00      	mov64 r1, 0xf
   121a0: 05 00 b2 02 00 00 00 00      	ja +0x2b2 <entrypoint+0x12f10>
   121a8: 79 41 30 00 00 00 00 00      	ldxdw r1, [r4 + 0x30]
   121b0: 18 05 00 00 18 42 5d bc 00 00 00 00 e4 6c cd da      	lddw r5, -0x2532931b43a2bde8
   121c0: 5d 51 93 01 00 00 00 00      	jne r1, r5, +0x193 <entrypoint+0x12638>
   121c8: 79 41 38 00 00 00 00 00      	ldxdw r1, [r4 + 0x38]
   121d0: 18 05 00 00 b6 1a fc 4d 00 00 00 00 83 b9 0d 27      	lddw r5, 0x270db9834dfc1ab6
   121e0: 5d 51 8f 01 00 00 00 00      	jne r1, r5, +0x18f <entrypoint+0x12638>
   121e8: 79 41 40 00 00 00 00 00      	ldxdw r1, [r4 + 0x40]
   121f0: 18 05 00 00 fe bd f9 28 00 00 00 00 d8 a1 8b fc      	lddw r5, -0x3745e27d7064202
   12200: 5d 51 8b 01 00 00 00 00      	jne r1, r5, +0x18b <entrypoint+0x12638>
   12208: 71 41 5a 00 00 00 00 00      	ldxb r1, [r4 + 0x5a]
   12210: 55 01 7d 04 01 00 00 00      	jne r1, 0x1, +0x47d <entrypoint+0x13dd8>
   12218: bf 21 00 00 00 00 00 00      	mov64 r1, r2
   12220: 67 01 00 00 03 00 00 00      	lsh64 r1, 0x3
   12228: b7 02 00 00 00 00 00 00      	mov64 r2, 0x0
   12230: 7b 2a 88 fe 00 00 00 00      	stxdw [r10 - 0x178], r2
   12238: b7 00 00 00 01 00 00 00      	mov64 r0, 0x1
   12240: bf 12 00 00 00 00 00 00      	mov64 r2, r1
   12248: 55 01 01 00 18 00 00 00      	jne r1, 0x18, +0x1 <entrypoint+0x11a30>
   12250: b7 00 00 00 00 00 00 00      	mov64 r0, 0x0
   12258: 62 0a af fe 00 00 00 00      	stw [r10 - 0x151], 0x0
   12260: 7a 0a a8 fe 00 00 00 00      	stdw [r10 - 0x158], 0x0
   12268: 15 02 4a 05 18 00 00 00      	jeq r2, 0x18, +0x54a <entrypoint+0x14498>
   12270: 71 41 59 00 00 00 00 00      	ldxb r1, [r4 + 0x59]
   12278: b7 06 00 00 01 00 00 00      	mov64 r6, 0x1
   12280: 55 01 01 00 00 00 00 00      	jne r1, 0x0, +0x1 <entrypoint+0x11a68>
   12288: b7 06 00 00 00 00 00 00      	mov64 r6, 0x0
   12290: 25 01 bd 08 0b 00 00 00      	jgt r1, 0xb, +0x8bd <entrypoint+0x16058>
   12298: 15 01 42 05 00 00 00 00      	jeq r1, 0x0, +0x542 <entrypoint+0x14488>
   122a0: 67 00 00 00 03 00 00 00      	lsh64 r0, 0x3
   122a8: bf 35 00 00 00 00 00 00      	mov64 r5, r3
   122b0: 0f 05 00 00 00 00 00 00      	add64 r5, r0
   122b8: 79 a0 a0 fe 00 00 00 00      	ldxdw r0, [r10 - 0x160]
   122c0: 0f 20 00 00 00 00 00 00      	add64 r0, r2
   122c8: 7b 0a 80 fe 00 00 00 00      	stxdw [r10 - 0x180], r0
   122d0: 67 01 00 00 05 00 00 00      	lsh64 r1, 0x5
   122d8: 67 06 00 00 05 00 00 00      	lsh64 r6, 0x5
   122e0: bf 42 00 00 00 00 00 00      	mov64 r2, r4
   122e8: 07 02 00 00 5b 00 00 00      	add64 r2, 0x5b
   122f0: 7b 2a 70 fe 00 00 00 00      	stxdw [r10 - 0x190], r2
   122f8: 0f 62 00 00 00 00 00 00      	add64 r2, r6
   12300: 7b 2a 68 fe 00 00 00 00      	stxdw [r10 - 0x198], r2
   12308: 1f 16 00 00 00 00 00 00      	sub64 r6, r1
   12310: 7b 6a 78 fe 00 00 00 00      	stxdw [r10 - 0x188], r6
   12318: b7 01 00 00 00 00 00 00      	mov64 r1, 0x0
   12320: 7b 1a 88 fe 00 00 00 00      	stxdw [r10 - 0x178], r1
   12328: 05 00 fb 02 00 00 00 00      	ja +0x2fb <entrypoint+0x132e0>
   12330: 79 51 30 00 00 00 00 00      	ldxdw r1, [r5 + 0x30]
   12338: 18 00 00 00 18 42 5d bc 00 00 00 00 e4 6c cd da      	lddw r0, -0x2532931b43a2bde8
   12348: 5d 01 08 00 00 00 00 00      	jne r1, r0, +0x8 <entrypoint+0x11b68>
   12350: 79 51 38 00 00 00 00 00      	ldxdw r1, [r5 + 0x38]
   12358: 18 00 00 00 b6 1a fc 4d 00 00 00 00 83 b9 0d 27      	lddw r0, 0x270db9834dfc1ab6
   12368: 5d 01 04 00 00 00 00 00      	jne r1, r0, +0x4 <entrypoint+0x11b68>
   12370: 79 51 40 00 00 00 00 00      	ldxdw r1, [r5 + 0x40]
   12378: 18 00 00 00 fe bd f9 28 00 00 00 00 d8 a1 8b fc      	lddw r0, -0x3745e27d7064202
   12388: 1d 01 33 03 00 00 00 00      	jeq r1, r0, +0x333 <entrypoint+0x13500>
   12390: 71 51 01 00 00 00 00 00      	ldxb r1, [r5 + 0x1]
   12398: 15 01 91 00 00 00 00 00      	jeq r1, 0x0, +0x91 <entrypoint+0x12000>
   123a0: 79 61 08 00 00 00 00 00      	ldxdw r1, [r6 + 0x8]
   123a8: 05 00 a3 00 00 00 00 00      	ja +0xa3 <entrypoint+0x120a0>
   123b0: b7 01 00 00 00 00 00 00      	mov64 r1, 0x0
   123b8: b7 00 00 00 03 00 00 00      	mov64 r0, 0x3
   123c0: 05 00 6e 02 00 00 00 00      	ja +0x26e <entrypoint+0x12f10>
   123c8: bf 46 00 00 00 00 00 00      	mov64 r6, r4
   123d0: 07 06 00 00 08 00 00 00      	add64 r6, 0x8
   123d8: bf 85 00 00 00 00 00 00      	mov64 r5, r8
   123e0: 07 05 00 00 58 00 00 00      	add64 r5, 0x58
   123e8: 15 07 a7 00 00 00 00 00      	jeq r7, 0x0, +0xa7 <entrypoint+0x12100>
   123f0: 72 08 c4 00 01 00 00 00      	stb [r8 + 0xc4], 0x1
   123f8: 79 64 00 00 00 00 00 00      	ldxdw r4, [r6 + 0x0]
   12400: 79 60 08 00 00 00 00 00      	ldxdw r0, [r6 + 0x8]
   12408: 79 67 10 00 00 00 00 00      	ldxdw r7, [r6 + 0x10]
   12410: 79 66 18 00 00 00 00 00      	ldxdw r6, [r6 + 0x18]
   12418: 7b 65 18 00 00 00 00 00      	stxdw [r5 + 0x18], r6
   12420: 7b 75 10 00 00 00 00 00      	stxdw [r5 + 0x10], r7
   12428: 7b 05 08 00 00 00 00 00      	stxdw [r5 + 0x8], r0
   12430: 7b 45 00 00 00 00 00 00      	stxdw [r5 + 0x0], r4
   12438: 79 34 18 00 00 00 00 00      	ldxdw r4, [r3 + 0x18]
   12440: 7b 48 90 00 00 00 00 00      	stxdw [r8 + 0x90], r4
   12448: 79 34 10 00 00 00 00 00      	ldxdw r4, [r3 + 0x10]
   12450: 7b 48 88 00 00 00 00 00      	stxdw [r8 + 0x88], r4
   12458: 79 34 08 00 00 00 00 00      	ldxdw r4, [r3 + 0x8]
   12460: 7b 48 80 00 00 00 00 00      	stxdw [r8 + 0x80], r4
   12468: 79 33 00 00 00 00 00 00      	ldxdw r3, [r3 + 0x0]
   12470: 7b 38 78 00 00 00 00 00      	stxdw [r8 + 0x78], r3
   12478: 7b 28 c9 00 00 00 00 00      	stxdw [r8 + 0xc9], r2
   12480: 1f 21 00 00 00 00 00 00      	sub64 r1, r2
   12488: 7b 18 98 00 00 00 00 00      	stxdw [r8 + 0x98], r1
   12490: 72 08 c5 00 01 00 00 00      	stb [r8 + 0xc5], 0x1
   12498: b7 00 00 00 1a 00 00 00      	mov64 r0, 0x1a
   124a0: 05 00 52 02 00 00 00 00      	ja +0x252 <entrypoint+0x12f10>
   124a8: 71 a1 a8 fe 00 00 00 00      	ldxb r1, [r10 - 0x158]
   124b0: 55 01 b6 00 2b 00 00 00      	jne r1, 0x2b, +0xb6 <entrypoint+0x12240>
   124b8: bf a6 00 00 00 00 00 00      	mov64 r6, r10
   124c0: 07 06 00 00 a9 fe ff ff      	add64 r6, -0x157
   124c8: bf 27 00 00 00 00 00 00      	mov64 r7, r2
   124d0: 07 07 00 00 ff ff ff ff      	add64 r7, -0x1
   124d8: a5 02 b5 00 12 00 00 00      	jlt r2, 0x12, +0xb5 <entrypoint+0x12260>
   124e0: b7 01 00 00 00 00 00 00      	mov64 r1, 0x0
   124e8: 05 00 04 00 00 00 00 00      	ja +0x4 <entrypoint+0x11ce8>
   124f0: 07 06 00 00 01 00 00 00      	add64 r6, 0x1
   124f8: 07 07 00 00 ff ff ff ff      	add64 r7, -0x1
   12500: 57 02 00 00 01 00 00 00      	and64 r2, 0x1
   12508: 55 02 d9 fc 00 00 00 00      	jne r2, 0x0, -0x327 <entrypoint+0x103b0>
   12510: 15 07 b7 00 00 00 00 00      	jeq r7, 0x0, +0xb7 <entrypoint+0x122a8>
   12518: b7 02 00 00 00 00 00 00      	mov64 r2, 0x0
   12520: b7 03 00 00 0a 00 00 00      	mov64 r3, 0xa
   12528: b7 04 00 00 00 00 00 00      	mov64 r4, 0x0
   12530: 85 10 00 00 4c 0d 00 00      	call 0xd4c
   12538: b7 02 00 00 01 00 00 00      	mov64 r2, 0x1
   12540: 55 01 01 00 00 00 00 00      	jne r1, 0x0, +0x1 <entrypoint+0x11d28>
   12548: b7 02 00 00 00 00 00 00      	mov64 r2, 0x0
   12550: 71 63 00 00 00 00 00 00      	ldxb r3, [r6 + 0x0]
   12558: 07 03 00 00 d0 ff ff ff      	add64 r3, -0x30
   12560: 25 03 ce fc 09 00 00 00      	jgt r3, 0x9, -0x332 <entrypoint+0x103b0>
   12568: 57 02 00 00 01 00 00 00      	and64 r2, 0x1
   12570: 55 02 cc fc 00 00 00 00      	jne r2, 0x0, -0x334 <entrypoint+0x103b0>
   12578: bf 01 00 00 00 00 00 00      	mov64 r1, r0
   12580: 0f 31 00 00 00 00 00 00      	add64 r1, r3
   12588: b7 02 00 00 01 00 00 00      	mov64 r2, 0x1
   12590: ad 01 eb ff 00 00 00 00      	jlt r1, r0, -0x15 <entrypoint+0x11cc8>
   12598: b7 02 00 00 00 00 00 00      	mov64 r2, 0x0
   125a0: 05 00 e9 ff 00 00 00 00      	ja -0x17 <entrypoint+0x11cc8>
   125a8: b7 00 00 00 00 00 00 00      	mov64 r0, 0x0
   125b0: 15 07 db 00 01 00 00 00      	jeq r7, 0x1, +0xdb <entrypoint+0x12468>
   125b8: b7 01 00 00 0f 00 00 00      	mov64 r1, 0xf
   125c0: 55 07 2e 02 00 00 00 00      	jne r7, 0x0, +0x22e <entrypoint+0x12f10>
   125c8: b7 01 00 00 05 00 00 00      	mov64 r1, 0x5
   125d0: 71 47 58 00 00 00 00 00      	ldxb r7, [r4 + 0x58]
   125d8: 55 07 2b 02 01 00 00 00      	jne r7, 0x1, +0x22b <entrypoint+0x12f10>
   125e0: 7b 3a 98 fe 00 00 00 00      	stxdw [r10 - 0x168], r3
   125e8: bf 28 00 00 00 00 00 00      	mov64 r8, r2
   125f0: bf 43 00 00 00 00 00 00      	mov64 r3, r4
   125f8: 07 03 00 00 5c 00 00 00      	add64 r3, 0x5c
   12600: 79 31 00 00 00 00 00 00      	ldxdw r1, [r3 + 0x0]
   12608: bf 62 00 00 00 00 00 00      	mov64 r2, r6
   12610: 79 66 08 00 00 00 00 00      	ldxdw r6, [r6 + 0x8]
   12618: 79 60 08 00 00 00 00 00      	ldxdw r0, [r6 + 0x8]
   12620: 5d 01 f6 03 00 00 00 00      	jne r1, r0, +0x3f6 <entrypoint+0x13db0>
   12628: 79 61 10 00 00 00 00 00      	ldxdw r1, [r6 + 0x10]
   12630: 79 40 64 00 00 00 00 00      	ldxdw r0, [r4 + 0x64]
   12638: 5d 10 f3 03 00 00 00 00      	jne r0, r1, +0x3f3 <entrypoint+0x13db0>
   12640: 79 61 18 00 00 00 00 00      	ldxdw r1, [r6 + 0x18]
   12648: 79 40 6c 00 00 00 00 00      	ldxdw r0, [r4 + 0x6c]
   12650: 5d 10 f0 03 00 00 00 00      	jne r0, r1, +0x3f0 <entrypoint+0x13db0>
   12658: 79 69 20 00 00 00 00 00      	ldxdw r9, [r6 + 0x20]
   12660: 7b 4a a0 fe 00 00 00 00      	stxdw [r10 - 0x160], r4
   12668: 79 47 74 00 00 00 00 00      	ldxdw r7, [r4 + 0x74]
   12670: b7 00 00 00 00 00 00 00      	mov64 r0, 0x0
   12678: b7 01 00 00 04 00 00 00      	mov64 r1, 0x4
   12680: 5d 97 16 02 00 00 00 00      	jne r7, r9, +0x216 <entrypoint+0x12f10>
   12688: 79 61 50 00 00 00 00 00      	ldxdw r1, [r6 + 0x50]
   12690: 55 01 21 02 63 01 00 00      	jne r1, 0x163, +0x221 <entrypoint+0x12f78>
   12698: 79 61 28 00 00 00 00 00      	ldxdw r1, [r6 + 0x28]
   126a0: 18 00 00 00 06 dd f6 e1 00 00 00 00 ee 75 8f de      	lddw r0, -0x21708a111e0922fa
   126b0: 1d 01 11 02 00 00 00 00      	jeq r1, r0, +0x211 <entrypoint+0x12f18>
   126b8: 18 00 00 00 06 dd f6 e1 00 00 00 00 d7 65 a1 93      	lddw r0, -0x6c5e9a281e0922fa
   126c8: 5d 01 1a 02 00 00 00 00      	jne r1, r0, +0x21a <entrypoint+0x12f78>
   126d0: 79 61 30 00 00 00 00 00      	ldxdw r1, [r6 + 0x30]
   126d8: 18 00 00 00 d9 cb e1 46 00 00 00 00 ce eb 79 ac      	lddw r0, -0x53861431b91e3427
   126e8: 5d 01 16 02 00 00 00 00      	jne r1, r0, +0x216 <entrypoint+0x12f78>
   126f0: 79 61 38 00 00 00 00 00      	ldxdw r1, [r6 + 0x38]
   126f8: 18 00 00 00 1c b4 85 ed 00 00 00 00 5f 5b 37 91      	lddw r0, -0x6ec8a4a0127a4be4
   12708: 5d 01 12 02 00 00 00 00      	jne r1, r0, +0x212 <entrypoint+0x12f78>
   12710: 79 61 40 00 00 00 00 00      	ldxdw r1, [r6 + 0x40]
   12718: 18 00 00 00 3a 8c f5 85 00 00 00 00 7e ff 00 a9      	lddw r0, -0x56ff00817a0a73c6
   12728: 5d 01 0e 02 00 00 00 00      	jne r1, r0, +0x20e <entrypoint+0x12f78>
   12730: 05 00 40 05 00 00 00 00      	ja +0x540 <entrypoint+0x14910>
   12738: 79 71 30 00 00 00 00 00      	ldxdw r1, [r7 + 0x30]
   12740: 18 05 00 00 18 42 5d bc 00 00 00 00 e4 6c cd da      	lddw r5, -0x2532931b43a2bde8
   12750: 5d 51 08 00 00 00 00 00      	jne r1, r5, +0x8 <entrypoint+0x11f70>
   12758: 79 71 38 00 00 00 00 00      	ldxdw r1, [r7 + 0x38]
   12760: 18 05 00 00 b6 1a fc 4d 00 00 00 00 83 b9 0d 27      	lddw r5, 0x270db9834dfc1ab6
   12770: 5d 51 04 00 00 00 00 00      	jne r1, r5, +0x4 <entrypoint+0x11f70>
   12778: 79 71 40 00 00 00 00 00      	ldxdw r1, [r7 + 0x40]
   12780: 18 05 00 00 fe bd f9 28 00 00 00 00 d8 a1 8b fc      	lddw r5, -0x3745e27d7064202
   12790: 1d 51 0f 03 00 00 00 00      	jeq r1, r5, +0x30f <entrypoint+0x137e8>
   12798: 71 71 01 00 00 00 00 00      	ldxb r1, [r7 + 0x1]
   127a0: 15 01 10 00 00 00 00 00      	jeq r1, 0x0, +0x10 <entrypoint+0x12000>
   127a8: 15 04 bf 02 00 00 00 00      	jeq r4, 0x0, +0x2bf <entrypoint+0x13580>
   127b0: 79 a1 98 fe 00 00 00 00      	ldxdw r1, [r10 - 0x168]
   127b8: 7b 13 98 00 00 00 00 00      	stxdw [r3 + 0x98], r1
   127c0: b7 00 00 00 1a 00 00 00      	mov64 r0, 0x1a
   127c8: 79 61 08 00 00 00 00 00      	ldxdw r1, [r6 + 0x8]
   127d0: 1d 13 ec 01 00 00 00 00      	jeq r3, r1, +0x1ec <entrypoint+0x12f10>
   127d8: 79 32 48 00 00 00 00 00      	ldxdw r2, [r3 + 0x48]
   127e0: 1f 42 00 00 00 00 00 00      	sub64 r2, r4
   127e8: 7b 23 48 00 00 00 00 00      	stxdw [r3 + 0x48], r2
   127f0: 79 12 48 00 00 00 00 00      	ldxdw r2, [r1 + 0x48]
   127f8: 0f 42 00 00 00 00 00 00      	add64 r2, r4
   12800: 7b 21 48 00 00 00 00 00      	stxdw [r1 + 0x48], r2
   12808: 05 00 e5 01 00 00 00 00      	ja +0x1e5 <entrypoint+0x12f10>
   12810: 7b 6a a0 fe 00 00 00 00      	stxdw [r10 - 0x160], r6
   12818: 71 11 01 00 00 00 00 00      	ldxb r1, [r1 + 0x1]
   12820: 55 01 c9 00 00 00 00 00      	jne r1, 0x0, +0xc9 <entrypoint+0x12648>
   12828: b7 00 00 00 07 00 00 00      	mov64 r0, 0x7
   12830: 05 00 e0 01 00 00 00 00      	ja +0x1e0 <entrypoint+0x12f10>
   12838: b7 00 00 00 00 00 00 00      	mov64 r0, 0x0
   12840: b7 01 00 00 11 00 00 00      	mov64 r1, 0x11
   12848: 05 00 dd 01 00 00 00 00      	ja +0x1dd <entrypoint+0x12f10>
   12850: 79 51 30 00 00 00 00 00      	ldxdw r1, [r5 + 0x30]
   12858: 18 00 00 00 18 42 5d bc 00 00 00 00 e4 6c cd da      	lddw r0, -0x2532931b43a2bde8
   12868: 5d 01 08 00 00 00 00 00      	jne r1, r0, +0x8 <entrypoint+0x12088>
   12870: 79 51 38 00 00 00 00 00      	ldxdw r1, [r5 + 0x38]
   12878: 18 00 00 00 b6 1a fc 4d 00 00 00 00 83 b9 0d 27      	lddw r0, 0x270db9834dfc1ab6
   12888: 5d 01 04 00 00 00 00 00      	jne r1, r0, +0x4 <entrypoint+0x12088>
   12890: 79 51 40 00 00 00 00 00      	ldxdw r1, [r5 + 0x40]
   12898: 18 00 00 00 fe bd f9 28 00 00 00 00 d8 a1 8b fc      	lddw r0, -0x3745e27d7064202
   128a8: 1d 01 4b 03 00 00 00 00      	jeq r1, r0, +0x34b <entrypoint+0x13ae0>
   128b0: 71 51 01 00 00 00 00 00      	ldxb r1, [r5 + 0x1]
   128b8: 15 01 12 04 00 00 00 00      	jeq r1, 0x0, +0x412 <entrypoint+0x14128>
   128c0: 79 61 10 00 00 00 00 00      	ldxdw r1, [r6 + 0x10]
   128c8: 72 04 a0 00 01 00 00 00      	stb [r4 + 0xa0], 0x1
   128d0: 79 12 08 00 00 00 00 00      	ldxdw r2, [r1 + 0x8]
   128d8: 79 15 10 00 00 00 00 00      	ldxdw r5, [r1 + 0x10]
   128e0: 79 10 18 00 00 00 00 00      	ldxdw r0, [r1 + 0x18]
   128e8: 79 11 20 00 00 00 00 00      	ldxdw r1, [r1 + 0x20]
   128f0: 7b 14 bc 00 00 00 00 00      	stxdw [r4 + 0xbc], r1
   128f8: 7b 04 b4 00 00 00 00 00      	stxdw [r4 + 0xb4], r0
   12900: 7b 54 ac 00 00 00 00 00      	stxdw [r4 + 0xac], r5
   12908: 7b 24 a4 00 00 00 00 00      	stxdw [r4 + 0xa4], r2
   12910: 7b 34 d1 00 00 00 00 00      	stxdw [r4 + 0xd1], r3
   12918: b7 00 00 00 1a 00 00 00      	mov64 r0, 0x1a
   12920: 05 00 c2 01 00 00 00 00      	ja +0x1c2 <entrypoint+0x12f10>
   12928: 79 41 28 00 00 00 00 00      	ldxdw r1, [r4 + 0x28]
   12930: 18 02 00 00 06 dd f6 e1 00 00 00 00 d7 65 a1 93      	lddw r2, -0x6c5e9a281e0922fa
   12940: 5d 21 3f 03 00 00 00 00      	jne r1, r2, +0x33f <entrypoint+0x13b18>
   12948: 79 41 30 00 00 00 00 00      	ldxdw r1, [r4 + 0x30]
   12950: 18 02 00 00 d9 cb e1 46 00 00 00 00 ce eb 79 ac      	lddw r2, -0x53861431b91e3427
   12960: 5d 21 3b 03 00 00 00 00      	jne r1, r2, +0x33b <entrypoint+0x13b18>
   12968: 79 41 38 00 00 00 00 00      	ldxdw r1, [r4 + 0x38]
   12970: 18 02 00 00 1c b4 85 ed 00 00 00 00 5f 5b 37 91      	lddw r2, -0x6ec8a4a0127a4be4
   12980: 5d 21 37 03 00 00 00 00      	jne r1, r2, +0x337 <entrypoint+0x13b18>
   12988: 79 41 40 00 00 00 00 00      	ldxdw r1, [r4 + 0x40]
   12990: 18 02 00 00 3a 8c f5 85 00 00 00 00 7e ff 00 a9      	lddw r2, -0x56ff00817a0a73c6
   129a0: 5d 21 33 03 00 00 00 00      	jne r1, r2, +0x333 <entrypoint+0x13b18>
   129a8: b7 01 00 00 02 00 00 00      	mov64 r1, 0x2
   129b0: 79 42 50 00 00 00 00 00      	ldxdw r2, [r4 + 0x50]
   129b8: 55 02 af 01 52 00 00 00      	jne r2, 0x52, +0x1af <entrypoint+0x12f10>
   129c0: 71 42 85 00 00 00 00 00      	ldxb r2, [r4 + 0x85]
   129c8: 55 02 ad 01 01 00 00 00      	jne r2, 0x1, +0x1ad <entrypoint+0x12f10>
   129d0: 72 08 c4 00 01 00 00 00      	stb [r8 + 0xc4], 0x1
   129d8: 79 61 00 00 00 00 00 00      	ldxdw r1, [r6 + 0x0]
   129e0: 79 62 08 00 00 00 00 00      	ldxdw r2, [r6 + 0x8]
   129e8: 79 64 10 00 00 00 00 00      	ldxdw r4, [r6 + 0x10]
   129f0: 79 60 18 00 00 00 00 00      	ldxdw r0, [r6 + 0x18]
   129f8: 7b 05 18 00 00 00 00 00      	stxdw [r5 + 0x18], r0
   12a00: 7b 45 10 00 00 00 00 00      	stxdw [r5 + 0x10], r4
   12a08: 7b 25 08 00 00 00 00 00      	stxdw [r5 + 0x8], r2
   12a10: 7b 15 00 00 00 00 00 00      	stxdw [r5 + 0x0], r1
   12a18: 79 31 18 00 00 00 00 00      	ldxdw r1, [r3 + 0x18]
   12a20: 7b 18 90 00 00 00 00 00      	stxdw [r8 + 0x90], r1
   12a28: 79 31 10 00 00 00 00 00      	ldxdw r1, [r3 + 0x10]
   12a30: 7b 18 88 00 00 00 00 00      	stxdw [r8 + 0x88], r1
   12a38: 79 31 08 00 00 00 00 00      	ldxdw r1, [r3 + 0x8]
   12a40: 7b 18 80 00 00 00 00 00      	stxdw [r8 + 0x80], r1
   12a48: 79 31 00 00 00 00 00 00      	ldxdw r1, [r3 + 0x0]
   12a50: 7b 18 78 00 00 00 00 00      	stxdw [r8 + 0x78], r1
   12a58: b7 00 00 00 1a 00 00 00      	mov64 r0, 0x1a
   12a60: 05 00 9a 01 00 00 00 00      	ja +0x19a <entrypoint+0x12f10>
   12a68: bf a6 00 00 00 00 00 00      	mov64 r6, r10
   12a70: 07 06 00 00 a8 fe ff ff      	add64 r6, -0x158
   12a78: bf 27 00 00 00 00 00 00      	mov64 r7, r2
   12a80: 35 02 4b ff 11 00 00 00      	jge r2, 0x11, -0xb5 <entrypoint+0x11cb8>
   12a88: b7 01 00 00 00 00 00 00      	mov64 r1, 0x0
   12a90: 71 62 00 00 00 00 00 00      	ldxb r2, [r6 + 0x0]
   12a98: 07 02 00 00 d0 ff ff ff      	add64 r2, -0x30
   12aa0: 25 02 26 fc 09 00 00 00      	jgt r2, 0x9, -0x3da <entrypoint+0x103b0>
   12aa8: 27 01 00 00 0a 00 00 00      	mul64 r1, 0xa
   12ab0: 0f 21 00 00 00 00 00 00      	add64 r1, r2
   12ab8: 07 06 00 00 01 00 00 00      	add64 r6, 0x1
   12ac0: 07 07 00 00 ff ff ff ff      	add64 r7, -0x1
   12ac8: 55 07 f8 ff 00 00 00 00      	jne r7, 0x0, -0x8 <entrypoint+0x12268>
   12ad0: 7b 1a a8 fe 00 00 00 00      	stxdw [r10 - 0x158], r1
   12ad8: bf a1 00 00 00 00 00 00      	mov64 r1, r10
   12ae0: 07 01 00 00 a8 fe ff ff      	add64 r1, -0x158
   12ae8: b7 02 00 00 08 00 00 00      	mov64 r2, 0x8
   12af0: 85 10 00 00 ff ff ff ff      	call -0x1
   12af8: b7 00 00 00 1a 00 00 00      	mov64 r0, 0x1a
   12b00: 05 00 86 01 00 00 00 00      	ja +0x186 <entrypoint+0x12f10>
   12b08: 79 41 30 00 00 00 00 00      	ldxdw r1, [r4 + 0x30]
   12b10: 18 05 00 00 18 42 5d bc 00 00 00 00 e4 6c cd da      	lddw r5, -0x2532931b43a2bde8
   12b20: 5d 51 67 00 00 00 00 00      	jne r1, r5, +0x67 <entrypoint+0x12638>
   12b28: 79 41 38 00 00 00 00 00      	ldxdw r1, [r4 + 0x38]
   12b30: 18 05 00 00 b6 1a fc 4d 00 00 00 00 83 b9 0d 27      	lddw r5, 0x270db9834dfc1ab6
   12b40: 5d 51 63 00 00 00 00 00      	jne r1, r5, +0x63 <entrypoint+0x12638>
   12b48: 79 41 40 00 00 00 00 00      	ldxdw r1, [r4 + 0x40]
   12b50: 18 05 00 00 fe bd f9 28 00 00 00 00 d8 a1 8b fc      	lddw r5, -0x3745e27d7064202
   12b60: 5d 51 5f 00 00 00 00 00      	jne r1, r5, +0x5f <entrypoint+0x12638>
   12b68: 71 41 5a 00 00 00 00 00      	ldxb r1, [r4 + 0x5a]
   12b70: 55 01 51 03 01 00 00 00      	jne r1, 0x1, +0x351 <entrypoint+0x13dd8>
   12b78: bf 21 00 00 00 00 00 00      	mov64 r1, r2
   12b80: 67 01 00 00 03 00 00 00      	lsh64 r1, 0x3
   12b88: b7 02 00 00 00 00 00 00      	mov64 r2, 0x0
   12b90: 7b 2a 88 fe 00 00 00 00      	stxdw [r10 - 0x178], r2
   12b98: b7 00 00 00 01 00 00 00      	mov64 r0, 0x1
   12ba0: bf 12 00 00 00 00 00 00      	mov64 r2, r1
   12ba8: 55 01 01 00 18 00 00 00      	jne r1, 0x18, +0x1 <entrypoint+0x12390>
   12bb0: b7 00 00 00 00 00 00 00      	mov64 r0, 0x0
   12bb8: 62 0a af fe 00 00 00 00      	stw [r10 - 0x151], 0x0
   12bc0: 7a 0a a8 fe 00 00 00 00      	stdw [r10 - 0x158], 0x0
   12bc8: 15 02 1e 04 18 00 00 00      	jeq r2, 0x18, +0x41e <entrypoint+0x14498>
   12bd0: 71 41 59 00 00 00 00 00      	ldxb r1, [r4 + 0x59]
   12bd8: b7 06 00 00 01 00 00 00      	mov64 r6, 0x1
   12be0: 55 01 01 00 00 00 00 00      	jne r1, 0x0, +0x1 <entrypoint+0x123c8>
   12be8: b7 06 00 00 00 00 00 00      	mov64 r6, 0x0
   12bf0: 25 01 91 07 0b 00 00 00      	jgt r1, 0xb, +0x791 <entrypoint+0x16058>
   12bf8: 15 01 16 04 00 00 00 00      	jeq r1, 0x0, +0x416 <entrypoint+0x14488>
   12c00: 67 00 00 00 03 00 00 00      	lsh64 r0, 0x3
   12c08: bf 35 00 00 00 00 00 00      	mov64 r5, r3
   12c10: 0f 05 00 00 00 00 00 00      	add64 r5, r0
   12c18: 79 a0 a0 fe 00 00 00 00      	ldxdw r0, [r10 - 0x160]
   12c20: 0f 20 00 00 00 00 00 00      	add64 r0, r2
   12c28: 7b 0a 80 fe 00 00 00 00      	stxdw [r10 - 0x180], r0
   12c30: 67 01 00 00 05 00 00 00      	lsh64 r1, 0x5
   12c38: 67 06 00 00 05 00 00 00      	lsh64 r6, 0x5
   12c40: bf 42 00 00 00 00 00 00      	mov64 r2, r4
   12c48: 07 02 00 00 5b 00 00 00      	add64 r2, 0x5b
   12c50: 7b 2a 70 fe 00 00 00 00      	stxdw [r10 - 0x190], r2
   12c58: 0f 62 00 00 00 00 00 00      	add64 r2, r6
   12c60: 7b 2a 68 fe 00 00 00 00      	stxdw [r10 - 0x198], r2
   12c68: 1f 16 00 00 00 00 00 00      	sub64 r6, r1
   12c70: 7b 6a 78 fe 00 00 00 00      	stxdw [r10 - 0x188], r6
   12c78: b7 01 00 00 00 00 00 00      	mov64 r1, 0x0
   12c80: 7b 1a 88 fe 00 00 00 00      	stxdw [r10 - 0x178], r1
   12c88: 05 00 3c 02 00 00 00 00      	ja +0x23c <entrypoint+0x13648>
   12c90: b7 01 00 00 10 00 00 00      	mov64 r1, 0x10
   12c98: 71 47 86 00 00 00 00 00      	ldxb r7, [r4 + 0x86]
   12ca0: 55 07 52 01 01 00 00 00      	jne r7, 0x1, +0x152 <entrypoint+0x12f10>
   12ca8: 7b 3a 98 fe 00 00 00 00      	stxdw [r10 - 0x168], r3
   12cb0: bf 28 00 00 00 00 00 00      	mov64 r8, r2
   12cb8: bf 43 00 00 00 00 00 00      	mov64 r3, r4
   12cc0: 07 03 00 00 8a 00 00 00      	add64 r3, 0x8a
   12cc8: 79 31 00 00 00 00 00 00      	ldxdw r1, [r3 + 0x0]
   12cd0: bf 62 00 00 00 00 00 00      	mov64 r2, r6
   12cd8: 79 66 08 00 00 00 00 00      	ldxdw r6, [r6 + 0x8]
   12ce0: 79 60 08 00 00 00 00 00      	ldxdw r0, [r6 + 0x8]
   12ce8: 5d 01 1d 03 00 00 00 00      	jne r1, r0, +0x31d <entrypoint+0x13db0>
   12cf0: 79 61 10 00 00 00 00 00      	ldxdw r1, [r6 + 0x10]
   12cf8: 79 40 92 00 00 00 00 00      	ldxdw r0, [r4 + 0x92]
   12d00: 5d 10 1a 03 00 00 00 00      	jne r0, r1, +0x31a <entrypoint+0x13db0>
   12d08: 79 61 18 00 00 00 00 00      	ldxdw r1, [r6 + 0x18]
   12d10: 79 40 9a 00 00 00 00 00      	ldxdw r0, [r4 + 0x9a]
   12d18: 5d 10 17 03 00 00 00 00      	jne r0, r1, +0x317 <entrypoint+0x13db0>
   12d20: 79 69 20 00 00 00 00 00      	ldxdw r9, [r6 + 0x20]
   12d28: 7b 4a a0 fe 00 00 00 00      	stxdw [r10 - 0x160], r4
   12d30: 79 47 a2 00 00 00 00 00      	ldxdw r7, [r4 + 0xa2]
   12d38: b7 00 00 00 00 00 00 00      	mov64 r0, 0x0
   12d40: b7 01 00 00 04 00 00 00      	mov64 r1, 0x4
   12d48: 5d 97 3d 01 00 00 00 00      	jne r7, r9, +0x13d <entrypoint+0x12f10>
   12d50: 79 61 50 00 00 00 00 00      	ldxdw r1, [r6 + 0x50]
   12d58: 55 01 5f 01 63 01 00 00      	jne r1, 0x163, +0x15f <entrypoint+0x13030>
   12d60: 79 61 28 00 00 00 00 00      	ldxdw r1, [r6 + 0x28]
   12d68: 18 00 00 00 06 dd f6 e1 00 00 00 00 ee 75 8f de      	lddw r0, -0x21708a111e0922fa
   12d78: 1d 01 4f 01 00 00 00 00      	jeq r1, r0, +0x14f <entrypoint+0x12fd0>
   12d80: 18 00 00 00 06 dd f6 e1 00 00 00 00 d7 65 a1 93      	lddw r0, -0x6c5e9a281e0922fa
   12d90: 5d 01 58 01 00 00 00 00      	jne r1, r0, +0x158 <entrypoint+0x13030>
   12d98: 79 61 30 00 00 00 00 00      	ldxdw r1, [r6 + 0x30]
   12da0: 18 00 00 00 d9 cb e1 46 00 00 00 00 ce eb 79 ac      	lddw r0, -0x53861431b91e3427
   12db0: 5d 01 54 01 00 00 00 00      	jne r1, r0, +0x154 <entrypoint+0x13030>
   12db8: 79 61 38 00 00 00 00 00      	ldxdw r1, [r6 + 0x38]
   12dc0: 18 00 00 00 1c b4 85 ed 00 00 00 00 5f 5b 37 91      	lddw r0, -0x6ec8a4a0127a4be4
   12dd0: 5d 01 50 01 00 00 00 00      	jne r1, r0, +0x150 <entrypoint+0x13030>
   12dd8: 79 61 40 00 00 00 00 00      	ldxdw r1, [r6 + 0x40]
   12de0: 18 00 00 00 3a 8c f5 85 00 00 00 00 7e ff 00 a9      	lddw r0, -0x56ff00817a0a73c6
   12df0: 5d 01 4c 01 00 00 00 00      	jne r1, r0, +0x14c <entrypoint+0x13030>
   12df8: 05 00 75 04 00 00 00 00      	ja +0x475 <entrypoint+0x14980>
   12e00: 79 41 30 00 00 00 00 00      	ldxdw r1, [r4 + 0x30]
   12e08: 18 05 00 00 18 42 5d bc 00 00 00 00 e4 6c cd da      	lddw r5, -0x2532931b43a2bde8
   12e18: 5d 51 08 00 00 00 00 00      	jne r1, r5, +0x8 <entrypoint+0x12638>
   12e20: 79 41 38 00 00 00 00 00      	ldxdw r1, [r4 + 0x38]
   12e28: 18 05 00 00 b6 1a fc 4d 00 00 00 00 83 b9 0d 27      	lddw r5, 0x270db9834dfc1ab6
   12e38: 5d 51 04 00 00 00 00 00      	jne r1, r5, +0x4 <entrypoint+0x12638>
   12e40: 79 41 40 00 00 00 00 00      	ldxdw r1, [r4 + 0x40]
   12e48: 18 05 00 00 fe bd f9 28 00 00 00 00 d8 a1 8b fc      	lddw r5, -0x3745e27d7064202
   12e58: 1d 51 f2 02 00 00 00 00      	jeq r1, r5, +0x2f2 <entrypoint+0x13dc8>
   12e60: 71 41 01 00 00 00 00 00      	ldxb r1, [r4 + 0x1]
   12e68: 15 01 37 ff 00 00 00 00      	jeq r1, 0x0, -0xc9 <entrypoint+0x12000>
   12e70: bf a1 00 00 00 00 00 00      	mov64 r1, r10
   12e78: 07 01 00 00 a8 fe ff ff      	add64 r1, -0x158
   12e80: 85 10 00 00 64 07 00 00      	call 0x764
   12e88: 61 a1 a8 fe 00 00 00 00      	ldxw r1, [r10 - 0x158]
   12e90: 15 01 03 00 00 00 00 00      	jeq r1, 0x0, +0x3 <entrypoint+0x12688>
   12e98: 61 a1 b0 fe 00 00 00 00      	ldxw r1, [r10 - 0x150]
   12ea0: 61 a0 ac fe 00 00 00 00      	ldxw r0, [r10 - 0x154]
   12ea8: 05 00 11 01 00 00 00 00      	ja +0x111 <entrypoint+0x12f10>
   12eb0: 07 07 00 00 80 00 00 00      	add64 r7, 0x80
   12eb8: 79 a2 b0 fe 00 00 00 00      	ldxdw r2, [r10 - 0x150]
   12ec0: 2f 72 00 00 00 00 00 00      	mul64 r2, r7
   12ec8: 79 a6 b8 fe 00 00 00 00      	ldxdw r6, [r10 - 0x148]
   12ed0: 18 01 00 00 00 00 00 00 00 00 00 00 00 00 f0 3f      	lddw r1, 0x3ff0000000000000
   12ee0: 1d 16 1b 00 00 00 00 00      	jeq r6, r1, +0x1b <entrypoint+0x12798>
   12ee8: 18 01 00 00 00 00 00 00 00 00 00 00 00 00 00 40      	lddw r1, 0x4000000000000000
   12ef8: 5d 16 02 00 00 00 00 00      	jne r6, r1, +0x2 <entrypoint+0x126e8>
   12f00: 67 02 00 00 01 00 00 00      	lsh64 r2, 0x1
   12f08: 05 00 16 00 00 00 00 00      	ja +0x16 <entrypoint+0x12798>
   12f10: bf 21 00 00 00 00 00 00      	mov64 r1, r2
   12f18: 85 10 00 00 9b 0a 00 00      	call 0xa9b
   12f20: bf 61 00 00 00 00 00 00      	mov64 r1, r6
   12f28: bf 02 00 00 00 00 00 00      	mov64 r2, r0
   12f30: 85 10 00 00 f8 0a 00 00      	call 0xaf8
   12f38: bf 06 00 00 00 00 00 00      	mov64 r6, r0
   12f40: b7 09 00 00 00 00 00 00      	mov64 r9, 0x0
   12f48: bf 61 00 00 00 00 00 00      	mov64 r1, r6
   12f50: b7 02 00 00 00 00 00 00      	mov64 r2, 0x0
   12f58: 85 10 00 00 d3 0a 00 00      	call 0xad3
   12f60: bf 07 00 00 00 00 00 00      	mov64 r7, r0
   12f68: bf 61 00 00 00 00 00 00      	mov64 r1, r6
   12f70: 85 10 00 00 ed 0b 00 00      	call 0xbed
   12f78: c5 07 01 00 00 00 00 00      	jslt r7, 0x0, +0x1 <entrypoint+0x12760>
   12f80: bf 09 00 00 00 00 00 00      	mov64 r9, r0
   12f88: bf 61 00 00 00 00 00 00      	mov64 r1, r6
   12f90: 18 02 00 00 ff ff ff ff 00 00 00 00 ff ff ef 43      	lddw r2, 0x43efffffffffffff
   12fa0: 85 10 00 00 29 0c 00 00      	call 0xc29
   12fa8: b7 02 00 00 ff ff ff ff      	mov64 r2, -0x1
   12fb0: 65 00 01 00 00 00 00 00      	jsgt r0, 0x0, +0x1 <entrypoint+0x12798>
   12fb8: bf 92 00 00 00 00 00 00      	mov64 r2, r9
   12fc0: 79 a3 a0 fe 00 00 00 00      	ldxdw r3, [r10 - 0x160]
   12fc8: b7 01 00 00 00 00 00 00      	mov64 r1, 0x0
   12fd0: 79 84 48 00 00 00 00 00      	ldxdw r4, [r8 + 0x48]
   12fd8: b7 00 00 00 00 00 00 00      	mov64 r0, 0x0
   12fe0: ad 24 ea 00 00 00 00 00      	jlt r4, r2, +0xea <entrypoint+0x12f10>
   12fe8: 7b 28 48 00 00 00 00 00      	stxdw [r8 + 0x48], r2
   12ff0: 1f 24 00 00 00 00 00 00      	sub64 r4, r2
   12ff8: 79 31 08 00 00 00 00 00      	ldxdw r1, [r3 + 0x8]
   13000: 79 12 48 00 00 00 00 00      	ldxdw r2, [r1 + 0x48]
   13008: 0f 24 00 00 00 00 00 00      	add64 r4, r2
   13010: 7b 41 48 00 00 00 00 00      	stxdw [r1 + 0x48], r4
   13018: b7 00 00 00 1a 00 00 00      	mov64 r0, 0x1a
   13020: 05 00 e2 00 00 00 00 00      	ja +0xe2 <entrypoint+0x12f10>
   13028: 71 48 d9 00 00 00 00 00      	ldxb r8, [r4 + 0xd9]
   13030: b7 01 00 00 dd 00 00 00      	mov64 r1, 0xdd
   13038: 15 08 01 00 01 00 00 00      	jeq r8, 0x1, +0x1 <entrypoint+0x12820>
   13040: b7 01 00 00 78 00 00 00      	mov64 r1, 0x78
   13048: bf 49 00 00 00 00 00 00      	mov64 r9, r4
   13050: 07 09 00 00 dd 00 00 00      	add64 r9, 0xdd
   13058: 7b 9a 88 fe 00 00 00 00      	stxdw [r10 - 0x178], r9
   13060: 15 08 02 00 01 00 00 00      	jeq r8, 0x1, +0x2 <entrypoint+0x12850>
   13068: bf 49 00 00 00 00 00 00      	mov64 r9, r4
   13070: 07 09 00 00 78 00 00 00      	add64 r9, 0x78
   13078: 7b 4a a0 fe 00 00 00 00      	stxdw [r10 - 0x160], r4
   13080: bf 48 00 00 00 00 00 00      	mov64 r8, r4
   13088: 0f 18 00 00 00 00 00 00      	add64 r8, r1
   13090: b7 01 00 00 04 00 00 00      	mov64 r1, 0x4
   13098: 79 87 00 00 00 00 00 00      	ldxdw r7, [r8 + 0x0]
   130a0: 7b 7a 98 fe 00 00 00 00      	stxdw [r10 - 0x168], r7
   130a8: 79 67 08 00 00 00 00 00      	ldxdw r7, [r6 + 0x8]
   130b0: 79 78 08 00 00 00 00 00      	ldxdw r8, [r7 + 0x8]
   130b8: 79 a4 98 fe 00 00 00 00      	ldxdw r4, [r10 - 0x168]
   130c0: 5d 84 ce 00 00 00 00 00      	jne r4, r8, +0xce <entrypoint+0x12f10>
   130c8: 79 74 10 00 00 00 00 00      	ldxdw r4, [r7 + 0x10]
   130d0: 79 98 08 00 00 00 00 00      	ldxdw r8, [r9 + 0x8]
   130d8: 5d 48 cb 00 00 00 00 00      	jne r8, r4, +0xcb <entrypoint+0x12f10>
   130e0: 79 74 18 00 00 00 00 00      	ldxdw r4, [r7 + 0x18]
   130e8: 79 98 10 00 00 00 00 00      	ldxdw r8, [r9 + 0x10]
   130f0: 5d 48 c8 00 00 00 00 00      	jne r8, r4, +0xc8 <entrypoint+0x12f10>
   130f8: 7b 7a 90 fe 00 00 00 00      	stxdw [r10 - 0x170], r7
   13100: 79 77 20 00 00 00 00 00      	ldxdw r7, [r7 + 0x20]
   13108: 79 98 18 00 00 00 00 00      	ldxdw r8, [r9 + 0x18]
   13110: 5d 78 c4 00 00 00 00 00      	jne r8, r7, +0xc4 <entrypoint+0x12f10>
   13118: 79 a7 90 fe 00 00 00 00      	ldxdw r7, [r10 - 0x170]
   13120: 79 71 50 00 00 00 00 00      	ldxdw r1, [r7 + 0x50]
   13128: 79 a4 a0 fe 00 00 00 00      	ldxdw r4, [r10 - 0x160]
   13130: 55 01 ac 00 63 01 00 00      	jne r1, 0x163, +0xac <entrypoint+0x12e70>
   13138: 79 71 28 00 00 00 00 00      	ldxdw r1, [r7 + 0x28]
   13140: 18 00 00 00 06 dd f6 e1 00 00 00 00 ee 75 8f de      	lddw r0, -0x21708a111e0922fa
   13150: 1d 01 9c 00 00 00 00 00      	jeq r1, r0, +0x9c <entrypoint+0x12e10>
   13158: 18 00 00 00 06 dd f6 e1 00 00 00 00 d7 65 a1 93      	lddw r0, -0x6c5e9a281e0922fa
   13168: 5d 01 a5 00 00 00 00 00      	jne r1, r0, +0xa5 <entrypoint+0x12e70>
   13170: 79 71 30 00 00 00 00 00      	ldxdw r1, [r7 + 0x30]
   13178: 18 00 00 00 d9 cb e1 46 00 00 00 00 ce eb 79 ac      	lddw r0, -0x53861431b91e3427
   13188: 5d 01 a1 00 00 00 00 00      	jne r1, r0, +0xa1 <entrypoint+0x12e70>
   13190: 79 71 38 00 00 00 00 00      	ldxdw r1, [r7 + 0x38]
   13198: 18 00 00 00 1c b4 85 ed 00 00 00 00 5f 5b 37 91      	lddw r0, -0x6ec8a4a0127a4be4
   131a8: 5d 01 9d 00 00 00 00 00      	jne r1, r0, +0x9d <entrypoint+0x12e70>
   131b0: 79 71 40 00 00 00 00 00      	ldxdw r1, [r7 + 0x40]
   131b8: 18 00 00 00 3a 8c f5 85 00 00 00 00 7e ff 00 a9      	lddw r0, -0x56ff00817a0a73c6
   131c8: 5d 01 99 00 00 00 00 00      	jne r1, r0, +0x99 <entrypoint+0x12e70>
   131d0: 05 00 d7 03 00 00 00 00      	ja +0x3d7 <entrypoint+0x14868>
   131d8: 79 71 30 00 00 00 00 00      	ldxdw r1, [r7 + 0x30]
   131e0: 18 00 00 00 18 42 5d bc 00 00 00 00 e4 6c cd da      	lddw r0, -0x2532931b43a2bde8
   131f0: 5d 01 08 00 00 00 00 00      	jne r1, r0, +0x8 <entrypoint+0x12a10>
   131f8: 79 71 38 00 00 00 00 00      	ldxdw r1, [r7 + 0x38]
   13200: 18 00 00 00 b6 1a fc 4d 00 00 00 00 83 b9 0d 27      	lddw r0, 0x270db9834dfc1ab6
   13210: 5d 01 04 00 00 00 00 00      	jne r1, r0, +0x4 <entrypoint+0x12a10>
   13218: 79 71 40 00 00 00 00 00      	ldxdw r1, [r7 + 0x40]
   13220: 18 00 00 00 fe bd f9 28 00 00 00 00 d8 a1 8b fc      	lddw r0, -0x3745e27d7064202
   13230: 1d 01 e5 02 00 00 00 00      	jeq r1, r0, +0x2e5 <entrypoint+0x14138>
   13238: 71 71 01 00 00 00 00 00      	ldxb r1, [r7 + 0x1]
   13240: 15 01 e1 02 00 00 00 00      	jeq r1, 0x0, +0x2e1 <entrypoint+0x14128>
   13248: 15 03 0f 00 00 00 00 00      	jeq r3, 0x0, +0xf <entrypoint+0x12aa0>
   13250: 79 51 7c 00 00 00 00 00      	ldxdw r1, [r5 + 0x7c]
   13258: bf 12 00 00 00 00 00 00      	mov64 r2, r1
   13260: 0f 32 00 00 00 00 00 00      	add64 r2, r3
   13268: b7 00 00 00 00 00 00 00      	mov64 r0, 0x0
   13270: b7 06 00 00 01 00 00 00      	mov64 r6, 0x1
   13278: ad 12 01 00 00 00 00 00      	jlt r2, r1, +0x1 <entrypoint+0x12a60>
   13280: b7 06 00 00 00 00 00 00      	mov64 r6, 0x0
   13288: b7 01 00 00 0e 00 00 00      	mov64 r1, 0xe
   13290: 57 06 00 00 01 00 00 00      	and64 r6, 0x1
   13298: 55 06 93 00 00 00 00 00      	jne r6, 0x0, +0x93 <entrypoint+0x12f10>
   132a0: 7b 25 7c 00 00 00 00 00      	stxdw [r5 + 0x7c], r2
   132a8: 79 41 98 00 00 00 00 00      	ldxdw r1, [r4 + 0x98]
   132b0: 0f 31 00 00 00 00 00 00      	add64 r1, r3
   132b8: 7b 14 98 00 00 00 00 00      	stxdw [r4 + 0x98], r1
   132c0: 05 00 21 00 00 00 00 00      	ja +0x21 <entrypoint+0x12ba8>
   132c8: b7 00 00 00 06 00 00 00      	mov64 r0, 0x6
   132d0: 79 51 28 00 00 00 00 00      	ldxdw r1, [r5 + 0x28]
   132d8: 18 02 00 00 06 dd f6 e1 00 00 00 00 d7 65 a1 93      	lddw r2, -0x6c5e9a281e0922fa
   132e8: 5d 21 89 00 00 00 00 00      	jne r1, r2, +0x89 <entrypoint+0x12f10>
   132f0: 79 51 30 00 00 00 00 00      	ldxdw r1, [r5 + 0x30]
   132f8: 18 02 00 00 d9 cb e1 46 00 00 00 00 ce eb 79 ac      	lddw r2, -0x53861431b91e3427
   13308: 5d 21 85 00 00 00 00 00      	jne r1, r2, +0x85 <entrypoint+0x12f10>
   13310: 79 51 38 00 00 00 00 00      	ldxdw r1, [r5 + 0x38]
   13318: 18 02 00 00 1c b4 85 ed 00 00 00 00 5f 5b 37 91      	lddw r2, -0x6ec8a4a0127a4be4
   13328: 5d 21 81 00 00 00 00 00      	jne r1, r2, +0x81 <entrypoint+0x12f10>
   13330: 79 51 40 00 00 00 00 00      	ldxdw r1, [r5 + 0x40]
   13338: 18 02 00 00 3a 8c f5 85 00 00 00 00 7e ff 00 a9      	lddw r2, -0x56ff00817a0a73c6
   13348: 5d 21 7d 00 00 00 00 00      	jne r1, r2, +0x7d <entrypoint+0x12f10>
   13350: 79 41 28 00 00 00 00 00      	ldxdw r1, [r4 + 0x28]
   13358: 18 02 00 00 06 dd f6 e1 00 00 00 00 d7 65 a1 93      	lddw r2, -0x6c5e9a281e0922fa
   13368: 5d 21 79 00 00 00 00 00      	jne r1, r2, +0x79 <entrypoint+0x12f10>
   13370: 79 41 30 00 00 00 00 00      	ldxdw r1, [r4 + 0x30]
   13378: 18 02 00 00 d9 cb e1 46 00 00 00 00 ce eb 79 ac      	lddw r2, -0x53861431b91e3427
   13388: 5d 21 75 00 00 00 00 00      	jne r1, r2, +0x75 <entrypoint+0x12f10>
   13390: 79 41 38 00 00 00 00 00      	ldxdw r1, [r4 + 0x38]
   13398: 18 02 00 00 1c b4 85 ed 00 00 00 00 5f 5b 37 91      	lddw r2, -0x6ec8a4a0127a4be4
   133a8: 5d 21 71 00 00 00 00 00      	jne r1, r2, +0x71 <entrypoint+0x12f10>
   133b0: 79 41 40 00 00 00 00 00      	ldxdw r1, [r4 + 0x40]
   133b8: 18 02 00 00 3a 8c f5 85 00 00 00 00 7e ff 00 a9      	lddw r2, -0x56ff00817a0a73c6
   133c8: 5d 21 6d 00 00 00 00 00      	jne r1, r2, +0x6d <entrypoint+0x12f10>
   133d0: b7 00 00 00 1a 00 00 00      	mov64 r0, 0x1a
   133d8: 05 00 6b 00 00 00 00 00      	ja +0x6b <entrypoint+0x12f10>
   133e0: 71 51 86 00 00 00 00 00      	ldxb r1, [r5 + 0x86]
   133e8: 55 01 25 00 01 00 00 00      	jne r1, 0x1, +0x25 <entrypoint+0x12cf0>
   133f0: 79 51 8a 00 00 00 00 00      	ldxdw r1, [r5 + 0x8a]
   133f8: 79 64 10 00 00 00 00 00      	ldxdw r4, [r6 + 0x10]
   13400: 79 40 08 00 00 00 00 00      	ldxdw r0, [r4 + 0x8]
   13408: 5d 01 39 02 00 00 00 00      	jne r1, r0, +0x239 <entrypoint+0x13db0>
   13410: 79 41 10 00 00 00 00 00      	ldxdw r1, [r4 + 0x10]
   13418: 79 50 92 00 00 00 00 00      	ldxdw r0, [r5 + 0x92]
   13420: 5d 10 36 02 00 00 00 00      	jne r0, r1, +0x236 <entrypoint+0x13db0>
   13428: 79 41 18 00 00 00 00 00      	ldxdw r1, [r4 + 0x18]
   13430: 79 50 9a 00 00 00 00 00      	ldxdw r0, [r5 + 0x9a]
   13438: 5d 10 33 02 00 00 00 00      	jne r0, r1, +0x233 <entrypoint+0x13db0>
   13440: 79 47 20 00 00 00 00 00      	ldxdw r7, [r4 + 0x20]
   13448: 79 55 a2 00 00 00 00 00      	ldxdw r5, [r5 + 0xa2]
   13450: b7 00 00 00 00 00 00 00      	mov64 r0, 0x0
   13458: b7 01 00 00 04 00 00 00      	mov64 r1, 0x4
   13460: 5d 75 5a 00 00 00 00 00      	jne r5, r7, +0x5a <entrypoint+0x12f10>
   13468: 79 41 50 00 00 00 00 00      	ldxdw r1, [r4 + 0x50]
   13470: 55 01 c3 00 63 01 00 00      	jne r1, 0x163, +0xc3 <entrypoint+0x13268>
   13478: 79 41 28 00 00 00 00 00      	ldxdw r1, [r4 + 0x28]
   13480: 18 05 00 00 06 dd f6 e1 00 00 00 00 ee 75 8f de      	lddw r5, -0x21708a111e0922fa
   13490: 1d 51 b3 00 00 00 00 00      	jeq r1, r5, +0xb3 <entrypoint+0x13208>
   13498: 18 05 00 00 06 dd f6 e1 00 00 00 00 d7 65 a1 93      	lddw r5, -0x6c5e9a281e0922fa
   134a8: 5d 51 bc 00 00 00 00 00      	jne r1, r5, +0xbc <entrypoint+0x13268>
   134b0: 79 41 30 00 00 00 00 00      	ldxdw r1, [r4 + 0x30]
   134b8: 18 05 00 00 d9 cb e1 46 00 00 00 00 ce eb 79 ac      	lddw r5, -0x53861431b91e3427
   134c8: 5d 51 b8 00 00 00 00 00      	jne r1, r5, +0xb8 <entrypoint+0x13268>
   134d0: 79 41 38 00 00 00 00 00      	ldxdw r1, [r4 + 0x38]
   134d8: 18 05 00 00 1c b4 85 ed 00 00 00 00 5f 5b 37 91      	lddw r5, -0x6ec8a4a0127a4be4
   134e8: 5d 51 b4 00 00 00 00 00      	jne r1, r5, +0xb4 <entrypoint+0x13268>
   134f0: 79 41 40 00 00 00 00 00      	ldxdw r1, [r4 + 0x40]
   134f8: 18 05 00 00 3a 8c f5 85 00 00 00 00 7e ff 00 a9      	lddw r5, -0x56ff00817a0a73c6
   13508: 5d 51 b0 00 00 00 00 00      	jne r1, r5, +0xb0 <entrypoint+0x13268>
   13510: 05 00 65 04 00 00 00 00      	ja +0x465 <entrypoint+0x15018>
   13518: b7 01 00 00 10 00 00 00      	mov64 r1, 0x10
   13520: 05 00 42 00 00 00 00 00      	ja +0x42 <entrypoint+0x12f10>
   13528: b7 00 00 00 06 00 00 00      	mov64 r0, 0x6
   13530: 05 00 40 00 00 00 00 00      	ja +0x40 <entrypoint+0x12f10>
   13538: 79 78 30 00 00 00 00 00      	ldxdw r8, [r7 + 0x30]
   13540: 18 09 00 00 18 42 5d bc 00 00 00 00 e4 6c cd da      	lddw r9, -0x2532931b43a2bde8
   13550: 5d 98 08 00 00 00 00 00      	jne r8, r9, +0x8 <entrypoint+0x12d70>
   13558: 79 78 38 00 00 00 00 00      	ldxdw r8, [r7 + 0x38]
   13560: 18 09 00 00 b6 1a fc 4d 00 00 00 00 83 b9 0d 27      	lddw r9, 0x270db9834dfc1ab6
   13570: 5d 98 04 00 00 00 00 00      	jne r8, r9, +0x4 <entrypoint+0x12d70>
   13578: 79 78 40 00 00 00 00 00      	ldxdw r8, [r7 + 0x40]
   13580: 18 09 00 00 fe bd f9 28 00 00 00 00 d8 a1 8b fc      	lddw r9, -0x3745e27d7064202
   13590: 1d 98 4c 03 00 00 00 00      	jeq r8, r9, +0x34c <entrypoint+0x147d0>
   13598: 71 72 01 00 00 00 00 00      	ldxb r2, [r7 + 0x1]
   135a0: 15 02 50 fe 00 00 00 00      	jeq r2, 0x0, -0x1b0 <entrypoint+0x12000>
   135a8: 15 03 31 00 00 00 00 00      	jeq r3, 0x0, +0x31 <entrypoint+0x12f10>
   135b0: bf 41 00 00 00 00 00 00      	mov64 r1, r4
   135b8: 07 01 00 00 78 00 00 00      	add64 r1, 0x78
   135c0: 79 32 00 00 00 00 00 00      	ldxdw r2, [r3 + 0x0]
   135c8: 79 35 08 00 00 00 00 00      	ldxdw r5, [r3 + 0x8]
   135d0: 79 30 10 00 00 00 00 00      	ldxdw r0, [r3 + 0x10]
   135d8: 79 33 18 00 00 00 00 00      	ldxdw r3, [r3 + 0x18]
   135e0: 7b 31 18 00 00 00 00 00      	stxdw [r1 + 0x18], r3
   135e8: 7b 01 10 00 00 00 00 00      	stxdw [r1 + 0x10], r0
   135f0: 7b 51 08 00 00 00 00 00      	stxdw [r1 + 0x8], r5
   135f8: 7b 21 00 00 00 00 00 00      	stxdw [r1 + 0x0], r2
   13600: b7 00 00 00 1a 00 00 00      	mov64 r0, 0x1a
   13608: 7a 04 d1 00 00 00 00 00      	stdw [r4 + 0xd1], 0x0
   13610: 72 04 a0 00 00 00 00 00      	stb [r4 + 0xa0], 0x0
   13618: 71 41 c5 00 00 00 00 00      	ldxb r1, [r4 + 0xc5]
   13620: 55 01 22 00 01 00 00 00      	jne r1, 0x1, +0x22 <entrypoint+0x12f10>
   13628: 72 04 d9 00 00 00 00 00      	stb [r4 + 0xd9], 0x0
   13630: 05 00 20 00 00 00 00 00      	ja +0x20 <entrypoint+0x12f10>
   13638: 79 71 30 00 00 00 00 00      	ldxdw r1, [r7 + 0x30]
   13640: 18 00 00 00 18 42 5d bc 00 00 00 00 e4 6c cd da      	lddw r0, -0x2532931b43a2bde8
   13650: 5d 01 08 00 00 00 00 00      	jne r1, r0, +0x8 <entrypoint+0x12e70>
   13658: 79 71 38 00 00 00 00 00      	ldxdw r1, [r7 + 0x38]
   13660: 18 00 00 00 b6 1a fc 4d 00 00 00 00 83 b9 0d 27      	lddw r0, 0x270db9834dfc1ab6
   13670: 5d 01 04 00 00 00 00 00      	jne r1, r0, +0x4 <entrypoint+0x12e70>
   13678: 79 71 40 00 00 00 00 00      	ldxdw r1, [r7 + 0x40]
   13680: 18 00 00 00 fe bd f9 28 00 00 00 00 d8 a1 8b fc      	lddw r0, -0x3745e27d7064202
   13690: 1d 01 3f 03 00 00 00 00      	jeq r1, r0, +0x33f <entrypoint+0x14868>
   13698: 71 71 01 00 00 00 00 00      	ldxb r1, [r7 + 0x1]
   136a0: 15 01 30 fe 00 00 00 00      	jeq r1, 0x0, -0x1d0 <entrypoint+0x12000>
   136a8: 15 03 4e 03 00 00 00 00      	jeq r3, 0x0, +0x34e <entrypoint+0x148f8>
   136b0: 72 04 d9 00 01 00 00 00      	stb [r4 + 0xd9], 0x1
   136b8: 79 31 00 00 00 00 00 00      	ldxdw r1, [r3 + 0x0]
   136c0: 79 32 08 00 00 00 00 00      	ldxdw r2, [r3 + 0x8]
   136c8: 79 34 10 00 00 00 00 00      	ldxdw r4, [r3 + 0x10]
   136d0: 79 33 18 00 00 00 00 00      	ldxdw r3, [r3 + 0x18]
   136d8: 79 a5 88 fe 00 00 00 00      	ldxdw r5, [r10 - 0x178]
   136e0: 7b 35 18 00 00 00 00 00      	stxdw [r5 + 0x18], r3
   136e8: 7b 45 10 00 00 00 00 00      	stxdw [r5 + 0x10], r4
   136f0: 7b 25 08 00 00 00 00 00      	stxdw [r5 + 0x8], r2
   136f8: 7b 15 00 00 00 00 00 00      	stxdw [r5 + 0x0], r1
   13700: b7 00 00 00 1a 00 00 00      	mov64 r0, 0x1a
   13708: 05 00 05 00 00 00 00 00      	ja +0x5 <entrypoint+0x12f10>
   13710: a5 04 04 00 09 00 00 00      	jlt r4, 0x9, +0x4 <entrypoint+0x12f10>
   13718: 55 05 03 00 01 00 00 00      	jne r5, 0x1, +0x3 <entrypoint+0x12f10>
   13720: 79 37 01 00 00 00 00 00      	ldxdw r7, [r3 + 0x1]
   13728: 25 02 c3 f7 02 00 00 00      	jgt r2, 0x2, -0x83d <entrypoint+0xed20>
   13730: b7 00 00 00 0a 00 00 00      	mov64 r0, 0xa
   13738: 95 00 00 00 00 00 00 00      	exit
   13740: 79 61 30 00 00 00 00 00      	ldxdw r1, [r6 + 0x30]
   13748: 18 00 00 00 18 42 5d bc 00 00 00 00 e4 6c cd da      	lddw r0, -0x2532931b43a2bde8
   13758: 5d 01 08 00 00 00 00 00      	jne r1, r0, +0x8 <entrypoint+0x12f78>
   13760: 79 61 38 00 00 00 00 00      	ldxdw r1, [r6 + 0x38]
   13768: 18 00 00 00 b6 1a fc 4d 00 00 00 00 83 b9 0d 27      	lddw r0, 0x270db9834dfc1ab6
   13778: 5d 01 04 00 00 00 00 00      	jne r1, r0, +0x4 <entrypoint+0x12f78>
   13780: 79 61 40 00 00 00 00 00      	ldxdw r1, [r6 + 0x40]
   13788: 18 00 00 00 fe bd f9 28 00 00 00 00 d8 a1 8b fc      	lddw r0, -0x3745e27d7064202
   13798: 1d 01 33 03 00 00 00 00      	jeq r1, r0, +0x333 <entrypoint+0x14910>
   137a0: 71 61 01 00 00 00 00 00      	ldxb r1, [r6 + 0x1]
   137a8: 15 01 0f fe 00 00 00 00      	jeq r1, 0x0, -0x1f1 <entrypoint+0x12000>
   137b0: 79 a7 98 fe 00 00 00 00      	ldxdw r7, [r10 - 0x168]
   137b8: 15 07 03 00 00 00 00 00      	jeq r7, 0x0, +0x3 <entrypoint+0x12fb0>
   137c0: 79 a1 a0 fe 00 00 00 00      	ldxdw r1, [r10 - 0x160]
   137c8: 72 01 58 00 01 00 00 00      	stb [r1 + 0x58], 0x1
   137d0: 05 00 16 00 00 00 00 00      	ja +0x16 <entrypoint+0x13060>
   137d8: 79 a1 a0 fe 00 00 00 00      	ldxdw r1, [r10 - 0x160]
   137e0: 72 01 58 00 00 00 00 00      	stb [r1 + 0x58], 0x0
   137e8: b7 00 00 00 1a 00 00 00      	mov64 r0, 0x1a
   137f0: 05 00 e8 ff 00 00 00 00      	ja -0x18 <entrypoint+0x12f10>
   137f8: 79 61 30 00 00 00 00 00      	ldxdw r1, [r6 + 0x30]
   13800: 18 00 00 00 18 42 5d bc 00 00 00 00 e4 6c cd da      	lddw r0, -0x2532931b43a2bde8
   13810: 5d 01 08 00 00 00 00 00      	jne r1, r0, +0x8 <entrypoint+0x13030>
   13818: 79 61 38 00 00 00 00 00      	ldxdw r1, [r6 + 0x38]
   13820: 18 00 00 00 b6 1a fc 4d 00 00 00 00 83 b9 0d 27      	lddw r0, 0x270db9834dfc1ab6
   13830: 5d 01 04 00 00 00 00 00      	jne r1, r0, +0x4 <entrypoint+0x13030>
   13838: 79 61 40 00 00 00 00 00      	ldxdw r1, [r6 + 0x40]
   13840: 18 00 00 00 fe bd f9 28 00 00 00 00 d8 a1 8b fc      	lddw r0, -0x3745e27d7064202
   13850: 1d 01 2a 03 00 00 00 00      	jeq r1, r0, +0x32a <entrypoint+0x14980>
   13858: 71 61 01 00 00 00 00 00      	ldxb r1, [r6 + 0x1]
   13860: 15 01 f8 fd 00 00 00 00      	jeq r1, 0x0, -0x208 <entrypoint+0x12000>
   13868: 79 a7 98 fe 00 00 00 00      	ldxdw r7, [r10 - 0x168]
   13870: 15 07 0c 00 00 00 00 00      	jeq r7, 0x0, +0xc <entrypoint+0x130b0>
   13878: 79 a1 a0 fe 00 00 00 00      	ldxdw r1, [r10 - 0x160]
   13880: 72 01 86 00 01 00 00 00      	stb [r1 + 0x86], 0x1
   13888: 79 71 00 00 00 00 00 00      	ldxdw r1, [r7 + 0x0]
   13890: 79 72 08 00 00 00 00 00      	ldxdw r2, [r7 + 0x8]
   13898: 79 74 10 00 00 00 00 00      	ldxdw r4, [r7 + 0x10]
   138a0: 79 75 18 00 00 00 00 00      	ldxdw r5, [r7 + 0x18]
   138a8: 7b 53 18 00 00 00 00 00      	stxdw [r3 + 0x18], r5
   138b0: 7b 43 10 00 00 00 00 00      	stxdw [r3 + 0x10], r4
   138b8: 7b 23 08 00 00 00 00 00      	stxdw [r3 + 0x8], r2
   138c0: 7b 13 00 00 00 00 00 00      	stxdw [r3 + 0x0], r1
   138c8: b7 00 00 00 1a 00 00 00      	mov64 r0, 0x1a
   138d0: 05 00 cc ff 00 00 00 00      	ja -0x34 <entrypoint+0x12f10>
   138d8: 79 a1 a0 fe 00 00 00 00      	ldxdw r1, [r10 - 0x160]
   138e0: 72 01 86 00 00 00 00 00      	stb [r1 + 0x86], 0x0
   138e8: b7 00 00 00 1a 00 00 00      	mov64 r0, 0x1a
   138f0: 05 00 c8 ff 00 00 00 00      	ja -0x38 <entrypoint+0x12f10>
   138f8: 79 71 30 00 00 00 00 00      	ldxdw r1, [r7 + 0x30]
   13900: 18 05 00 00 18 42 5d bc 00 00 00 00 e4 6c cd da      	lddw r5, -0x2532931b43a2bde8
   13910: 5d 51 08 00 00 00 00 00      	jne r1, r5, +0x8 <entrypoint+0x13130>
   13918: 79 71 38 00 00 00 00 00      	ldxdw r1, [r7 + 0x38]
   13920: 18 05 00 00 b6 1a fc 4d 00 00 00 00 83 b9 0d 27      	lddw r5, 0x270db9834dfc1ab6
   13930: 5d 51 04 00 00 00 00 00      	jne r1, r5, +0x4 <entrypoint+0x13130>
   13938: 79 71 40 00 00 00 00 00      	ldxdw r1, [r7 + 0x40]
   13940: 18 05 00 00 fe bd f9 28 00 00 00 00 d8 a1 8b fc      	lddw r5, -0x3745e27d7064202
   13950: 1d 51 70 03 00 00 00 00      	jeq r1, r5, +0x370 <entrypoint+0x14cb0>
   13958: 71 71 01 00 00 00 00 00      	ldxb r1, [r7 + 0x1]
   13960: 15 01 d8 fd 00 00 00 00      	jeq r1, 0x0, -0x228 <entrypoint+0x12000>
   13968: 79 31 d1 00 00 00 00 00      	ldxdw r1, [r3 + 0xd1]
   13970: ad 41 87 f7 00 00 00 00      	jlt r1, r4, -0x879 <entrypoint+0xed88>
   13978: bf 12 00 00 00 00 00 00      	mov64 r2, r1
   13980: 1f 42 00 00 00 00 00 00      	sub64 r2, r4
   13988: 7b 23 d1 00 00 00 00 00      	stxdw [r3 + 0xd1], r2
   13990: 5d 41 c2 fd 00 00 00 00      	jne r1, r4, -0x23e <entrypoint+0x11f80>
   13998: 72 03 a0 00 00 00 00 00      	stb [r3 + 0xa0], 0x0
   139a0: 05 00 c0 fd 00 00 00 00      	ja -0x240 <entrypoint+0x11f80>
   139a8: 79 41 30 00 00 00 00 00      	ldxdw r1, [r4 + 0x30]
   139b0: 18 05 00 00 18 42 5d bc 00 00 00 00 e4 6c cd da      	lddw r5, -0x2532931b43a2bde8
   139c0: 5d 51 08 00 00 00 00 00      	jne r1, r5, +0x8 <entrypoint+0x131e0>
   139c8: 79 41 38 00 00 00 00 00      	ldxdw r1, [r4 + 0x38]
   139d0: 18 05 00 00 b6 1a fc 4d 00 00 00 00 83 b9 0d 27      	lddw r5, 0x270db9834dfc1ab6
   139e0: 5d 51 04 00 00 00 00 00      	jne r1, r5, +0x4 <entrypoint+0x131e0>
   139e8: 79 41 40 00 00 00 00 00      	ldxdw r1, [r4 + 0x40]
   139f0: 18 05 00 00 fe bd f9 28 00 00 00 00 d8 a1 8b fc      	lddw r5, -0x3745e27d7064202
   13a00: 1d 51 b9 03 00 00 00 00      	jeq r1, r5, +0x3b9 <entrypoint+0x14fa8>
   13a08: 71 41 01 00 00 00 00 00      	ldxb r1, [r4 + 0x1]
   13a10: 15 01 c2 fd 00 00 00 00      	jeq r1, 0x0, -0x23e <entrypoint+0x12000>
   13a18: 72 03 c4 00 02 00 00 00      	stb [r3 + 0xc4], 0x2
   13a20: b7 00 00 00 1a 00 00 00      	mov64 r0, 0x1a
   13a28: 05 00 a1 ff 00 00 00 00      	ja -0x5f <entrypoint+0x12f10>
   13a30: 79 41 30 00 00 00 00 00      	ldxdw r1, [r4 + 0x30]
   13a38: 18 05 00 00 18 42 5d bc 00 00 00 00 e4 6c cd da      	lddw r5, -0x2532931b43a2bde8
   13a48: 5d 51 08 00 00 00 00 00      	jne r1, r5, +0x8 <entrypoint+0x13268>
   13a50: 79 41 38 00 00 00 00 00      	ldxdw r1, [r4 + 0x38]
   13a58: 18 05 00 00 b6 1a fc 4d 00 00 00 00 83 b9 0d 27      	lddw r5, 0x270db9834dfc1ab6
   13a68: 5d 51 04 00 00 00 00 00      	jne r1, r5, +0x4 <entrypoint+0x13268>
   13a70: 79 41 40 00 00 00 00 00      	ldxdw r1, [r4 + 0x40]
   13a78: 18 05 00 00 fe bd f9 28 00 00 00 00 d8 a1 8b fc      	lddw r5, -0x3745e27d7064202
   13a88: 1d 51 b6 03 00 00 00 00      	jeq r1, r5, +0x3b6 <entrypoint+0x15018>
   13a90: 71 41 01 00 00 00 00 00      	ldxb r1, [r4 + 0x1]
   13a98: 15 01 b1 fd 00 00 00 00      	jeq r1, 0x0, -0x24f <entrypoint+0x12000>
   13aa0: 72 03 c4 00 01 00 00 00      	stb [r3 + 0xc4], 0x1
   13aa8: b7 00 00 00 1a 00 00 00      	mov64 r0, 0x1a
   13ab0: 05 00 90 ff 00 00 00 00      	ja -0x70 <entrypoint+0x12f10>
   13ab8: b7 01 00 00 04 00 00 00      	mov64 r1, 0x4
   13ac0: 05 00 8e ff 00 00 00 00      	ja -0x72 <entrypoint+0x12f10>
   13ac8: 18 01 00 00 18 9c 01 00 00 00 00 00 00 00 00 00      	lddw r1, 0x19c18
   13ad8: 85 10 00 00 f0 05 00 00      	call 0x5f0
   13ae0: 67 01 00 00 03 00 00 00      	lsh64 r1, 0x3
   13ae8: bf 35 00 00 00 00 00 00      	mov64 r5, r3
   13af0: 0f 15 00 00 00 00 00 00      	add64 r5, r1
   13af8: 79 a1 80 fe 00 00 00 00      	ldxdw r1, [r10 - 0x180]
   13b00: 1d 13 37 02 00 00 00 00      	jeq r3, r1, +0x237 <entrypoint+0x14498>
   13b08: bf 31 00 00 00 00 00 00      	mov64 r1, r3
   13b10: bf 53 00 00 00 00 00 00      	mov64 r3, r5
   13b18: 79 11 00 00 00 00 00 00      	ldxdw r1, [r1 + 0x0]
   13b20: 7b 1a 98 fe 00 00 00 00      	stxdw [r10 - 0x168], r1
   13b28: 79 12 08 00 00 00 00 00      	ldxdw r2, [r1 + 0x8]
   13b30: 79 a0 78 fe 00 00 00 00      	ldxdw r0, [r10 - 0x188]
   13b38: 79 a9 68 fe 00 00 00 00      	ldxdw r9, [r10 - 0x198]
   13b40: b7 01 00 00 00 00 00 00      	mov64 r1, 0x0
   13b48: 79 a6 70 fe 00 00 00 00      	ldxdw r6, [r10 - 0x190]
   13b50: 7b 2a 90 fe 00 00 00 00      	stxdw [r10 - 0x170], r2
   13b58: 05 00 0a 00 00 00 00 00      	ja +0xa <entrypoint+0x13388>
   13b60: 72 05 00 00 01 00 00 00      	stb [r5 + 0x0], 0x1
   13b68: 79 a2 88 fe 00 00 00 00      	ldxdw r2, [r10 - 0x178]
   13b70: 07 02 00 00 01 00 00 00      	add64 r2, 0x1
   13b78: 7b 2a 88 fe 00 00 00 00      	stxdw [r10 - 0x178], r2
   13b80: 79 a2 90 fe 00 00 00 00      	ldxdw r2, [r10 - 0x170]
   13b88: bf 69 00 00 00 00 00 00      	mov64 r9, r6
   13b90: 07 09 00 00 20 00 00 00      	add64 r9, 0x20
   13b98: 07 01 00 00 01 00 00 00      	add64 r1, 0x1
   13ba0: 07 00 00 00 20 00 00 00      	add64 r0, 0x20
   13ba8: 15 00 1a 00 20 00 00 00      	jeq r0, 0x20, +0x1a <entrypoint+0x13458>
   13bb0: bf 65 00 00 00 00 00 00      	mov64 r5, r6
   13bb8: bf 96 00 00 00 00 00 00      	mov64 r6, r9
   13bc0: 79 59 00 00 00 00 00 00      	ldxdw r9, [r5 + 0x0]
   13bc8: 5d 29 f7 ff 00 00 00 00      	jne r9, r2, -0x9 <entrypoint+0x13360>
   13bd0: 79 a2 98 fe 00 00 00 00      	ldxdw r2, [r10 - 0x168]
   13bd8: 79 29 10 00 00 00 00 00      	ldxdw r9, [r2 + 0x10]
   13be0: 79 52 08 00 00 00 00 00      	ldxdw r2, [r5 + 0x8]
   13be8: 5d 92 f2 ff 00 00 00 00      	jne r2, r9, -0xe <entrypoint+0x13358>
   13bf0: 79 a2 98 fe 00 00 00 00      	ldxdw r2, [r10 - 0x168]
   13bf8: 79 22 18 00 00 00 00 00      	ldxdw r2, [r2 + 0x18]
   13c00: 79 59 10 00 00 00 00 00      	ldxdw r9, [r5 + 0x10]
   13c08: 5d 29 ee ff 00 00 00 00      	jne r9, r2, -0x12 <entrypoint+0x13358>
   13c10: 79 a2 98 fe 00 00 00 00      	ldxdw r2, [r10 - 0x168]
   13c18: 79 22 20 00 00 00 00 00      	ldxdw r2, [r2 + 0x20]
   13c20: 79 55 18 00 00 00 00 00      	ldxdw r5, [r5 + 0x18]
   13c28: 5d 25 ea ff 00 00 00 00      	jne r5, r2, -0x16 <entrypoint+0x13358>
   13c30: 25 01 8e 05 0a 00 00 00      	jgt r1, 0xa, +0x58e <entrypoint+0x16080>
   13c38: bf a5 00 00 00 00 00 00      	mov64 r5, r10
   13c40: 07 05 00 00 a8 fe ff ff      	add64 r5, -0x158
   13c48: 0f 15 00 00 00 00 00 00      	add64 r5, r1
   13c50: 71 52 00 00 00 00 00 00      	ldxb r2, [r5 + 0x0]
   13c58: 55 02 e4 ff 00 00 00 00      	jne r2, 0x0, -0x1c <entrypoint+0x13358>
   13c60: 79 a2 98 fe 00 00 00 00      	ldxdw r2, [r10 - 0x168]
   13c68: 71 22 01 00 00 00 00 00      	ldxb r2, [r2 + 0x1]
   13c70: 55 02 dd ff 00 00 00 00      	jne r2, 0x0, -0x23 <entrypoint+0x13338>
   13c78: 05 00 75 fd 00 00 00 00      	ja -0x28b <entrypoint+0x12000>
   13c80: b7 01 00 00 01 00 00 00      	mov64 r1, 0x1
   13c88: 79 a2 80 fe 00 00 00 00      	ldxdw r2, [r10 - 0x180]
   13c90: 5d 23 c9 ff 00 00 00 00      	jne r3, r2, -0x37 <entrypoint+0x132b8>
   13c98: b7 01 00 00 00 00 00 00      	mov64 r1, 0x0
   13ca0: 05 00 c7 ff 00 00 00 00      	ja -0x39 <entrypoint+0x132b8>
   13ca8: b7 01 00 00 0a 00 00 00      	mov64 r1, 0xa
   13cb0: 05 00 50 ff 00 00 00 00      	ja -0xb0 <entrypoint+0x12f10>
   13cb8: 71 41 5a 00 00 00 00 00      	ldxb r1, [r4 + 0x5a]
   13cc0: 55 01 27 01 01 00 00 00      	jne r1, 0x1, +0x127 <entrypoint+0x13dd8>
   13cc8: b7 01 00 00 00 00 00 00      	mov64 r1, 0x0
   13cd0: 7b 1a 90 fe 00 00 00 00      	stxdw [r10 - 0x170], r1
   13cd8: 67 02 00 00 03 00 00 00      	lsh64 r2, 0x3
   13ce0: 62 0a af fe 00 00 00 00      	stw [r10 - 0x151], 0x0
   13ce8: 7a 0a a8 fe 00 00 00 00      	stdw [r10 - 0x158], 0x0
   13cf0: bf 21 00 00 00 00 00 00      	mov64 r1, r2
   13cf8: 55 02 ca 00 10 00 00 00      	jne r2, 0x10, +0xca <entrypoint+0x13b28>
   13d00: 71 41 58 00 00 00 00 00      	ldxb r1, [r4 + 0x58]
   13d08: 79 a2 90 fe 00 00 00 00      	ldxdw r2, [r10 - 0x170]
   13d10: 57 02 00 00 ff 00 00 00      	and64 r2, 0xff
   13d18: 3d 12 37 fc 00 00 00 00      	jge r2, r1, -0x3c9 <entrypoint+0x116b0>
   13d20: 05 00 60 fd 00 00 00 00      	ja -0x2a0 <entrypoint+0x12000>
   13d28: 7b 6a a0 fe 00 00 00 00      	stxdw [r10 - 0x160], r6
   13d30: 71 51 5a 00 00 00 00 00      	ldxb r1, [r5 + 0x5a]
   13d38: 55 01 18 01 01 00 00 00      	jne r1, 0x1, +0x118 <entrypoint+0x13dd8>
   13d40: b7 01 00 00 00 00 00 00      	mov64 r1, 0x0
   13d48: 7b 1a 80 fe 00 00 00 00      	stxdw [r10 - 0x180], r1
   13d50: 67 02 00 00 03 00 00 00      	lsh64 r2, 0x3
   13d58: 62 0a af fe 00 00 00 00      	stw [r10 - 0x151], 0x0
   13d60: 7a 0a a8 fe 00 00 00 00      	stdw [r10 - 0x158], 0x0
   13d68: bf 21 00 00 00 00 00 00      	mov64 r1, r2
   13d70: 55 02 18 01 18 00 00 00      	jne r2, 0x18, +0x118 <entrypoint+0x13e10>
   13d78: 71 51 58 00 00 00 00 00      	ldxb r1, [r5 + 0x58]
   13d80: 79 a2 80 fe 00 00 00 00      	ldxdw r2, [r10 - 0x180]
   13d88: 57 02 00 00 ff 00 00 00      	and64 r2, 0xff
   13d90: ad 12 52 fd 00 00 00 00      	jlt r2, r1, -0x2ae <entrypoint+0x12000>
   13d98: 79 a6 a0 fe 00 00 00 00      	ldxdw r6, [r10 - 0x160]
   13da0: 05 00 bf fc 00 00 00 00      	ja -0x341 <entrypoint+0x11b78>
   13da8: 79 31 28 00 00 00 00 00      	ldxdw r1, [r3 + 0x28]
   13db0: 18 02 00 00 06 dd f6 e1 00 00 00 00 d7 65 a1 93      	lddw r2, -0x6c5e9a281e0922fa
   13dc0: 5d 21 a6 04 00 00 00 00      	jne r1, r2, +0x4a6 <entrypoint+0x15ad0>
   13dc8: 79 31 30 00 00 00 00 00      	ldxdw r1, [r3 + 0x30]
   13dd0: 18 02 00 00 d9 cb e1 46 00 00 00 00 ce eb 79 ac      	lddw r2, -0x53861431b91e3427
   13de0: 5d 21 a2 04 00 00 00 00      	jne r1, r2, +0x4a2 <entrypoint+0x15ad0>
   13de8: 79 31 38 00 00 00 00 00      	ldxdw r1, [r3 + 0x38]
   13df0: 18 02 00 00 1c b4 85 ed 00 00 00 00 5f 5b 37 91      	lddw r2, -0x6ec8a4a0127a4be4
   13e00: 5d 21 9e 04 00 00 00 00      	jne r1, r2, +0x49e <entrypoint+0x15ad0>
   13e08: 79 31 40 00 00 00 00 00      	ldxdw r1, [r3 + 0x40]
   13e10: 18 02 00 00 3a 8c f5 85 00 00 00 00 7e ff 00 a9      	lddw r2, -0x56ff00817a0a73c6
   13e20: 5d 21 9a 04 00 00 00 00      	jne r1, r2, +0x49a <entrypoint+0x15ad0>
   13e28: b7 00 00 00 1a 00 00 00      	mov64 r0, 0x1a
   13e30: 05 00 20 ff 00 00 00 00      	ja -0xe0 <entrypoint+0x12f10>
   13e38: b7 01 00 00 12 00 00 00      	mov64 r1, 0x12
   13e40: 05 00 1e ff 00 00 00 00      	ja -0xe2 <entrypoint+0x12f10>
   13e48: 67 01 00 00 03 00 00 00      	lsh64 r1, 0x3
   13e50: bf 35 00 00 00 00 00 00      	mov64 r5, r3
   13e58: 0f 15 00 00 00 00 00 00      	add64 r5, r1
   13e60: 79 a1 80 fe 00 00 00 00      	ldxdw r1, [r10 - 0x180]
   13e68: 1d 13 ca 01 00 00 00 00      	jeq r3, r1, +0x1ca <entrypoint+0x14498>
   13e70: bf 31 00 00 00 00 00 00      	mov64 r1, r3
   13e78: bf 53 00 00 00 00 00 00      	mov64 r3, r5
   13e80: 79 11 00 00 00 00 00 00      	ldxdw r1, [r1 + 0x0]
   13e88: 7b 1a 90 fe 00 00 00 00      	stxdw [r10 - 0x170], r1
   13e90: 79 11 08 00 00 00 00 00      	ldxdw r1, [r1 + 0x8]
   13e98: 7b 1a 98 fe 00 00 00 00      	stxdw [r10 - 0x168], r1
   13ea0: 79 a0 78 fe 00 00 00 00      	ldxdw r0, [r10 - 0x188]
   13ea8: 79 a9 68 fe 00 00 00 00      	ldxdw r9, [r10 - 0x198]
   13eb0: b7 01 00 00 00 00 00 00      	mov64 r1, 0x0
   13eb8: 79 a6 70 fe 00 00 00 00      	ldxdw r6, [r10 - 0x190]
   13ec0: 05 00 05 00 00 00 00 00      	ja +0x5 <entrypoint+0x136c8>
   13ec8: bf 69 00 00 00 00 00 00      	mov64 r9, r6
   13ed0: 07 09 00 00 20 00 00 00      	add64 r9, 0x20
   13ed8: 07 01 00 00 01 00 00 00      	add64 r1, 0x1
   13ee0: 07 00 00 00 20 00 00 00      	add64 r0, 0x20
   13ee8: 15 00 1f 00 20 00 00 00      	jeq r0, 0x20, +0x1f <entrypoint+0x137c0>
   13ef0: bf 65 00 00 00 00 00 00      	mov64 r5, r6
   13ef8: bf 96 00 00 00 00 00 00      	mov64 r6, r9
   13f00: 79 59 00 00 00 00 00 00      	ldxdw r9, [r5 + 0x0]
   13f08: 79 a2 98 fe 00 00 00 00      	ldxdw r2, [r10 - 0x168]
   13f10: 5d 29 f6 ff 00 00 00 00      	jne r9, r2, -0xa <entrypoint+0x136a0>
   13f18: 79 a2 90 fe 00 00 00 00      	ldxdw r2, [r10 - 0x170]
   13f20: 79 29 10 00 00 00 00 00      	ldxdw r9, [r2 + 0x10]
   13f28: 79 52 08 00 00 00 00 00      	ldxdw r2, [r5 + 0x8]
   13f30: 5d 92 f2 ff 00 00 00 00      	jne r2, r9, -0xe <entrypoint+0x136a0>
   13f38: 79 a2 90 fe 00 00 00 00      	ldxdw r2, [r10 - 0x170]
   13f40: 79 22 18 00 00 00 00 00      	ldxdw r2, [r2 + 0x18]
   13f48: 79 59 10 00 00 00 00 00      	ldxdw r9, [r5 + 0x10]
   13f50: 5d 29 ee ff 00 00 00 00      	jne r9, r2, -0x12 <entrypoint+0x136a0>
   13f58: 79 a2 90 fe 00 00 00 00      	ldxdw r2, [r10 - 0x170]
   13f60: 79 22 20 00 00 00 00 00      	ldxdw r2, [r2 + 0x20]
   13f68: 79 55 18 00 00 00 00 00      	ldxdw r5, [r5 + 0x18]
   13f70: 5d 25 ea ff 00 00 00 00      	jne r5, r2, -0x16 <entrypoint+0x136a0>
   13f78: 25 01 25 05 0a 00 00 00      	jgt r1, 0xa, +0x525 <entrypoint+0x16080>
   13f80: bf a5 00 00 00 00 00 00      	mov64 r5, r10
   13f88: 07 05 00 00 a8 fe ff ff      	add64 r5, -0x158
   13f90: 0f 15 00 00 00 00 00 00      	add64 r5, r1
   13f98: 71 52 00 00 00 00 00 00      	ldxb r2, [r5 + 0x0]
   13fa0: 55 02 e4 ff 00 00 00 00      	jne r2, 0x0, -0x1c <entrypoint+0x136a0>
   13fa8: 79 a2 90 fe 00 00 00 00      	ldxdw r2, [r10 - 0x170]
   13fb0: 71 22 01 00 00 00 00 00      	ldxb r2, [r2 + 0x1]
   13fb8: 15 02 0d fd 00 00 00 00      	jeq r2, 0x0, -0x2f3 <entrypoint+0x12000>
   13fc0: 72 05 00 00 01 00 00 00      	stb [r5 + 0x0], 0x1
   13fc8: 79 a2 88 fe 00 00 00 00      	ldxdw r2, [r10 - 0x178]
   13fd0: 07 02 00 00 01 00 00 00      	add64 r2, 0x1
   13fd8: 7b 2a 88 fe 00 00 00 00      	stxdw [r10 - 0x178], r2
   13fe0: 05 00 dc ff 00 00 00 00      	ja -0x24 <entrypoint+0x136a0>
   13fe8: b7 01 00 00 01 00 00 00      	mov64 r1, 0x1
   13ff0: 79 a2 80 fe 00 00 00 00      	ldxdw r2, [r10 - 0x180]
   13ff8: 5d 23 c9 ff 00 00 00 00      	jne r3, r2, -0x37 <entrypoint+0x13620>
   14000: b7 01 00 00 00 00 00 00      	mov64 r1, 0x0
   14008: 05 00 c7 ff 00 00 00 00      	ja -0x39 <entrypoint+0x13620>
   14010: 7b 6a a0 fe 00 00 00 00      	stxdw [r10 - 0x160], r6
   14018: 71 71 5a 00 00 00 00 00      	ldxb r1, [r7 + 0x5a]
   14020: 55 01 bb 00 01 00 00 00      	jne r1, 0x1, +0xbb <entrypoint+0x13dd8>
   14028: bf 21 00 00 00 00 00 00      	mov64 r1, r2
   14030: 67 01 00 00 03 00 00 00      	lsh64 r1, 0x3
   14038: b7 02 00 00 00 00 00 00      	mov64 r2, 0x0
   14040: 7b 2a 80 fe 00 00 00 00      	stxdw [r10 - 0x180], r2
   14048: b7 06 00 00 01 00 00 00      	mov64 r6, 0x1
   14050: bf 12 00 00 00 00 00 00      	mov64 r2, r1
   14058: 55 01 01 00 18 00 00 00      	jne r1, 0x18, +0x1 <entrypoint+0x13840>
   14060: b7 06 00 00 00 00 00 00      	mov64 r6, 0x0
   14068: 62 0a af fe 00 00 00 00      	stw [r10 - 0x151], 0x0
   14070: 7a 0a a8 fe 00 00 00 00      	stdw [r10 - 0x158], 0x0
   14078: 15 02 e9 01 18 00 00 00      	jeq r2, 0x18, +0x1e9 <entrypoint+0x147a0>
   14080: 71 71 59 00 00 00 00 00      	ldxb r1, [r7 + 0x59]
   14088: b7 05 00 00 01 00 00 00      	mov64 r5, 0x1
   14090: 55 01 01 00 00 00 00 00      	jne r1, 0x0, +0x1 <entrypoint+0x13878>
   14098: b7 05 00 00 00 00 00 00      	mov64 r5, 0x0
   140a0: 25 01 fb 04 0b 00 00 00      	jgt r1, 0xb, +0x4fb <entrypoint+0x16058>
   140a8: 15 01 e1 01 00 00 00 00      	jeq r1, 0x0, +0x1e1 <entrypoint+0x14790>
   140b0: 67 06 00 00 03 00 00 00      	lsh64 r6, 0x3
   140b8: bf 80 00 00 00 00 00 00      	mov64 r0, r8
   140c0: 0f 60 00 00 00 00 00 00      	add64 r0, r6
   140c8: 79 a6 a0 fe 00 00 00 00      	ldxdw r6, [r10 - 0x160]
   140d0: 0f 26 00 00 00 00 00 00      	add64 r6, r2
   140d8: 7b 6a 78 fe 00 00 00 00      	stxdw [r10 - 0x188], r6
   140e0: 67 01 00 00 05 00 00 00      	lsh64 r1, 0x5
   140e8: 67 05 00 00 05 00 00 00      	lsh64 r5, 0x5
   140f0: bf 72 00 00 00 00 00 00      	mov64 r2, r7
   140f8: 07 02 00 00 5b 00 00 00      	add64 r2, 0x5b
   14100: 7b 2a 68 fe 00 00 00 00      	stxdw [r10 - 0x198], r2
   14108: 0f 52 00 00 00 00 00 00      	add64 r2, r5
   14110: 7b 2a 60 fe 00 00 00 00      	stxdw [r10 - 0x1a0], r2
   14118: 1f 15 00 00 00 00 00 00      	sub64 r5, r1
   14120: 7b 5a 70 fe 00 00 00 00      	stxdw [r10 - 0x190], r5
   14128: b7 01 00 00 00 00 00 00      	mov64 r1, 0x0
   14130: 7b 1a 80 fe 00 00 00 00      	stxdw [r10 - 0x180], r1
   14138: 05 00 05 00 00 00 00 00      	ja +0x5 <entrypoint+0x13940>
   14140: 67 01 00 00 03 00 00 00      	lsh64 r1, 0x3
   14148: bf 80 00 00 00 00 00 00      	mov64 r0, r8
   14150: 0f 10 00 00 00 00 00 00      	add64 r0, r1
   14158: 79 a1 78 fe 00 00 00 00      	ldxdw r1, [r10 - 0x188]
   14160: 1d 18 cc 01 00 00 00 00      	jeq r8, r1, +0x1cc <entrypoint+0x147a0>
   14168: bf 81 00 00 00 00 00 00      	mov64 r1, r8
   14170: bf 08 00 00 00 00 00 00      	mov64 r8, r0
   14178: 79 11 00 00 00 00 00 00      	ldxdw r1, [r1 + 0x0]
   14180: 7b 1a 88 fe 00 00 00 00      	stxdw [r10 - 0x178], r1
   14188: 79 11 08 00 00 00 00 00      	ldxdw r1, [r1 + 0x8]
   14190: 7b 1a 90 fe 00 00 00 00      	stxdw [r10 - 0x170], r1
   14198: 79 a9 70 fe 00 00 00 00      	ldxdw r9, [r10 - 0x190]
   141a0: 79 a0 60 fe 00 00 00 00      	ldxdw r0, [r10 - 0x1a0]
   141a8: b7 01 00 00 00 00 00 00      	mov64 r1, 0x0
   141b0: 79 a2 68 fe 00 00 00 00      	ldxdw r2, [r10 - 0x198]
   141b8: 05 00 05 00 00 00 00 00      	ja +0x5 <entrypoint+0x139c0>
   141c0: bf 20 00 00 00 00 00 00      	mov64 r0, r2
   141c8: 07 00 00 00 20 00 00 00      	add64 r0, 0x20
   141d0: 07 01 00 00 01 00 00 00      	add64 r1, 0x1
   141d8: 07 09 00 00 20 00 00 00      	add64 r9, 0x20
   141e0: 15 09 1f 00 20 00 00 00      	jeq r9, 0x20, +0x1f <entrypoint+0x13ab8>
   141e8: bf 26 00 00 00 00 00 00      	mov64 r6, r2
   141f0: bf 02 00 00 00 00 00 00      	mov64 r2, r0
   141f8: 79 65 00 00 00 00 00 00      	ldxdw r5, [r6 + 0x0]
   14200: 79 a0 90 fe 00 00 00 00      	ldxdw r0, [r10 - 0x170]
   14208: 5d 05 f6 ff 00 00 00 00      	jne r5, r0, -0xa <entrypoint+0x13998>
   14210: 79 a5 88 fe 00 00 00 00      	ldxdw r5, [r10 - 0x178]
   14218: 79 55 10 00 00 00 00 00      	ldxdw r5, [r5 + 0x10]
   14220: 79 60 08 00 00 00 00 00      	ldxdw r0, [r6 + 0x8]
   14228: 5d 50 f2 ff 00 00 00 00      	jne r0, r5, -0xe <entrypoint+0x13998>
   14230: 79 a5 88 fe 00 00 00 00      	ldxdw r5, [r10 - 0x178]
   14238: 79 55 18 00 00 00 00 00      	ldxdw r5, [r5 + 0x18]
   14240: 79 60 10 00 00 00 00 00      	ldxdw r0, [r6 + 0x10]
   14248: 5d 50 ee ff 00 00 00 00      	jne r0, r5, -0x12 <entrypoint+0x13998>
   14250: 79 a5 88 fe 00 00 00 00      	ldxdw r5, [r10 - 0x178]
   14258: 79 55 20 00 00 00 00 00      	ldxdw r5, [r5 + 0x20]
   14260: 79 60 18 00 00 00 00 00      	ldxdw r0, [r6 + 0x18]
   14268: 5d 50 ea ff 00 00 00 00      	jne r0, r5, -0x16 <entrypoint+0x13998>
   14270: 25 01 c6 04 0a 00 00 00      	jgt r1, 0xa, +0x4c6 <entrypoint+0x16080>
   14278: bf a0 00 00 00 00 00 00      	mov64 r0, r10
   14280: 07 00 00 00 a8 fe ff ff      	add64 r0, -0x158
   14288: 0f 10 00 00 00 00 00 00      	add64 r0, r1
   14290: 71 05 00 00 00 00 00 00      	ldxb r5, [r0 + 0x0]
   14298: 55 05 e4 ff 00 00 00 00      	jne r5, 0x0, -0x1c <entrypoint+0x13998>
   142a0: 79 a5 88 fe 00 00 00 00      	ldxdw r5, [r10 - 0x178]
   142a8: 71 55 01 00 00 00 00 00      	ldxb r5, [r5 + 0x1]
   142b0: 15 05 ae fc 00 00 00 00      	jeq r5, 0x0, -0x352 <entrypoint+0x12000>
   142b8: 72 00 00 00 01 00 00 00      	stb [r0 + 0x0], 0x1
   142c0: 79 a5 80 fe 00 00 00 00      	ldxdw r5, [r10 - 0x180]
   142c8: 07 05 00 00 01 00 00 00      	add64 r5, 0x1
   142d0: 7b 5a 80 fe 00 00 00 00      	stxdw [r10 - 0x180], r5
   142d8: 05 00 dc ff 00 00 00 00      	ja -0x24 <entrypoint+0x13998>
   142e0: b7 01 00 00 01 00 00 00      	mov64 r1, 0x1
   142e8: 79 a2 78 fe 00 00 00 00      	ldxdw r2, [r10 - 0x188]
   142f0: 5d 28 c9 ff 00 00 00 00      	jne r8, r2, -0x37 <entrypoint+0x13918>
   142f8: b7 01 00 00 00 00 00 00      	mov64 r1, 0x0
   14300: 05 00 c7 ff 00 00 00 00      	ja -0x39 <entrypoint+0x13918>
   14308: 7b 6a a0 fe 00 00 00 00      	stxdw [r10 - 0x160], r6
   14310: 71 51 5a 00 00 00 00 00      	ldxb r1, [r5 + 0x5a]
   14318: 15 01 bb 00 01 00 00 00      	jeq r1, 0x1, +0xbb <entrypoint+0x140d0>
   14320: 55 01 5f 00 00 00 00 00      	jne r1, 0x0, +0x5f <entrypoint+0x13df8>
   14328: b7 00 00 00 09 00 00 00      	mov64 r0, 0x9
   14330: b7 01 00 00 00 00 00 00      	mov64 r1, 0x0
   14338: 05 00 7f fe 00 00 00 00      	ja -0x181 <entrypoint+0x12f10>
   14340: b7 00 00 00 06 00 00 00      	mov64 r0, 0x6
   14348: 05 00 7d fe 00 00 00 00      	ja -0x183 <entrypoint+0x12f10>
   14350: 71 42 59 00 00 00 00 00      	ldxb r2, [r4 + 0x59]
   14358: b7 05 00 00 01 00 00 00      	mov64 r5, 0x1
   14360: 7b 2a 88 fe 00 00 00 00      	stxdw [r10 - 0x178], r2
   14368: 55 02 01 00 00 00 00 00      	jne r2, 0x0, +0x1 <entrypoint+0x13b50>
   14370: b7 05 00 00 00 00 00 00      	mov64 r5, 0x0
   14378: 79 a2 88 fe 00 00 00 00      	ldxdw r2, [r10 - 0x178]
   14380: 25 02 9e 04 0b 00 00 00      	jgt r2, 0xb, +0x49e <entrypoint+0x16050>
   14388: bf 62 00 00 00 00 00 00      	mov64 r2, r6
   14390: 07 02 00 00 10 00 00 00      	add64 r2, 0x10
   14398: 7b 2a a0 fe 00 00 00 00      	stxdw [r10 - 0x160], r2
   143a0: bf 62 00 00 00 00 00 00      	mov64 r2, r6
   143a8: 0f 12 00 00 00 00 00 00      	add64 r2, r1
   143b0: 7b 2a 98 fe 00 00 00 00      	stxdw [r10 - 0x168], r2
   143b8: 79 a1 88 fe 00 00 00 00      	ldxdw r1, [r10 - 0x178]
   143c0: 67 01 00 00 05 00 00 00      	lsh64 r1, 0x5
   143c8: 67 05 00 00 05 00 00 00      	lsh64 r5, 0x5
   143d0: bf 42 00 00 00 00 00 00      	mov64 r2, r4
   143d8: 07 02 00 00 5b 00 00 00      	add64 r2, 0x5b
   143e0: 7b 2a 78 fe 00 00 00 00      	stxdw [r10 - 0x188], r2
   143e8: 0f 52 00 00 00 00 00 00      	add64 r2, r5
   143f0: 7b 2a 70 fe 00 00 00 00      	stxdw [r10 - 0x190], r2
   143f8: 1f 15 00 00 00 00 00 00      	sub64 r5, r1
   14400: 7b 5a 80 fe 00 00 00 00      	stxdw [r10 - 0x180], r5
   14408: b7 01 00 00 00 00 00 00      	mov64 r1, 0x0
   14410: 7b 1a 90 fe 00 00 00 00      	stxdw [r10 - 0x170], r1
   14418: 07 06 00 00 18 00 00 00      	add64 r6, 0x18
   14420: 05 00 06 00 00 00 00 00      	ja +0x6 <entrypoint+0x13c30>
   14428: 67 01 00 00 03 00 00 00      	lsh64 r1, 0x3
   14430: 79 a5 a0 fe 00 00 00 00      	ldxdw r5, [r10 - 0x160]
   14438: bf 56 00 00 00 00 00 00      	mov64 r6, r5
   14440: 0f 16 00 00 00 00 00 00      	add64 r6, r1
   14448: 79 a2 98 fe 00 00 00 00      	ldxdw r2, [r10 - 0x168]
   14450: 1d 25 15 ff 00 00 00 00      	jeq r5, r2, -0xeb <entrypoint+0x134d8>
   14458: 79 a5 a0 fe 00 00 00 00      	ldxdw r5, [r10 - 0x160]
   14460: 7b 6a a0 fe 00 00 00 00      	stxdw [r10 - 0x160], r6
   14468: 79 a1 88 fe 00 00 00 00      	ldxdw r1, [r10 - 0x178]
   14470: 15 01 26 00 00 00 00 00      	jeq r1, 0x0, +0x26 <entrypoint+0x13d80>
   14478: b7 02 00 00 00 00 00 00      	mov64 r2, 0x0
   14480: 79 59 00 00 00 00 00 00      	ldxdw r9, [r5 + 0x0]
   14488: 79 98 08 00 00 00 00 00      	ldxdw r8, [r9 + 0x8]
   14490: 79 a0 70 fe 00 00 00 00      	ldxdw r0, [r10 - 0x190]
   14498: 79 a5 80 fe 00 00 00 00      	ldxdw r5, [r10 - 0x180]
   144a0: 79 a6 78 fe 00 00 00 00      	ldxdw r6, [r10 - 0x188]
   144a8: 05 00 05 00 00 00 00 00      	ja +0x5 <entrypoint+0x13cb0>
   144b0: bf 60 00 00 00 00 00 00      	mov64 r0, r6
   144b8: 07 00 00 00 20 00 00 00      	add64 r0, 0x20
   144c0: 07 02 00 00 01 00 00 00      	add64 r2, 0x1
   144c8: 07 05 00 00 20 00 00 00      	add64 r5, 0x20
   144d0: 15 05 1a 00 20 00 00 00      	jeq r5, 0x20, +0x1a <entrypoint+0x13d80>
   144d8: bf 61 00 00 00 00 00 00      	mov64 r1, r6
   144e0: bf 06 00 00 00 00 00 00      	mov64 r6, r0
   144e8: 79 10 00 00 00 00 00 00      	ldxdw r0, [r1 + 0x0]
   144f0: 5d 80 f7 ff 00 00 00 00      	jne r0, r8, -0x9 <entrypoint+0x13c88>
   144f8: 79 90 10 00 00 00 00 00      	ldxdw r0, [r9 + 0x10]
   14500: 79 17 08 00 00 00 00 00      	ldxdw r7, [r1 + 0x8]
   14508: 5d 07 f4 ff 00 00 00 00      	jne r7, r0, -0xc <entrypoint+0x13c88>
   14510: 79 90 18 00 00 00 00 00      	ldxdw r0, [r9 + 0x18]
   14518: 79 17 10 00 00 00 00 00      	ldxdw r7, [r1 + 0x10]
   14520: 5d 07 f1 ff 00 00 00 00      	jne r7, r0, -0xf <entrypoint+0x13c88>
   14528: 79 90 20 00 00 00 00 00      	ldxdw r0, [r9 + 0x20]
   14530: 79 11 18 00 00 00 00 00      	ldxdw r1, [r1 + 0x18]
   14538: 5d 01 ee ff 00 00 00 00      	jne r1, r0, -0x12 <entrypoint+0x13c88>
   14540: 25 02 6b 04 0a 00 00 00      	jgt r2, 0xa, +0x46b <entrypoint+0x16078>
   14548: bf a1 00 00 00 00 00 00      	mov64 r1, r10
   14550: 07 01 00 00 a8 fe ff ff      	add64 r1, -0x158
   14558: 0f 21 00 00 00 00 00 00      	add64 r1, r2
   14560: 71 10 00 00 00 00 00 00      	ldxb r0, [r1 + 0x0]
   14568: 55 00 e8 ff 00 00 00 00      	jne r0, 0x0, -0x18 <entrypoint+0x13c88>
   14570: 71 90 01 00 00 00 00 00      	ldxb r0, [r9 + 0x1]
   14578: 15 00 55 fc 00 00 00 00      	jeq r0, 0x0, -0x3ab <entrypoint+0x12000>
   14580: 72 01 00 00 01 00 00 00      	stb [r1 + 0x0], 0x1
   14588: 79 a1 90 fe 00 00 00 00      	ldxdw r1, [r10 - 0x170]
   14590: 07 01 00 00 01 00 00 00      	add64 r1, 0x1
   14598: 7b 1a 90 fe 00 00 00 00      	stxdw [r10 - 0x170], r1
   145a0: 05 00 e1 ff 00 00 00 00      	ja -0x1f <entrypoint+0x13c88>
   145a8: b7 01 00 00 01 00 00 00      	mov64 r1, 0x1
   145b0: 79 a2 98 fe 00 00 00 00      	ldxdw r2, [r10 - 0x168]
   145b8: 79 a5 a0 fe 00 00 00 00      	ldxdw r5, [r10 - 0x160]
   145c0: 5d 25 cc ff 00 00 00 00      	jne r5, r2, -0x34 <entrypoint+0x13c00>
   145c8: b7 01 00 00 00 00 00 00      	mov64 r1, 0x0
   145d0: 05 00 ca ff 00 00 00 00      	ja -0x36 <entrypoint+0x13c00>
   145d8: b7 00 00 00 00 00 00 00      	mov64 r0, 0x0
   145e0: b7 01 00 00 04 00 00 00      	mov64 r1, 0x4
   145e8: 05 00 29 fe 00 00 00 00      	ja -0x1d7 <entrypoint+0x12f10>
   145f0: 71 41 5a 00 00 00 00 00      	ldxb r1, [r4 + 0x5a]
   145f8: 15 01 7a 00 01 00 00 00      	jeq r1, 0x1, +0x7a <entrypoint+0x141a8>
   14600: 55 01 03 00 00 00 00 00      	jne r1, 0x0, +0x3 <entrypoint+0x13df8>
   14608: b7 00 00 00 09 00 00 00      	mov64 r0, 0x9
   14610: b7 01 00 00 00 00 00 00      	mov64 r1, 0x0
   14618: 05 00 23 fe 00 00 00 00      	ja -0x1dd <entrypoint+0x12f10>
   14620: b7 00 00 00 03 00 00 00      	mov64 r0, 0x3
   14628: b7 01 00 00 00 00 00 00      	mov64 r1, 0x0
   14630: 05 00 20 fe 00 00 00 00      	ja -0x1e0 <entrypoint+0x12f10>
   14638: 71 52 59 00 00 00 00 00      	ldxb r2, [r5 + 0x59]
   14640: b7 00 00 00 01 00 00 00      	mov64 r0, 0x1
   14648: 7b 2a 78 fe 00 00 00 00      	stxdw [r10 - 0x188], r2
   14650: 55 02 01 00 00 00 00 00      	jne r2, 0x0, +0x1 <entrypoint+0x13e38>
   14658: b7 00 00 00 00 00 00 00      	mov64 r0, 0x0
   14660: 79 a2 78 fe 00 00 00 00      	ldxdw r2, [r10 - 0x188]
   14668: 25 02 3c 04 0b 00 00 00      	jgt r2, 0xb, +0x43c <entrypoint+0x16028>
   14670: 79 a2 a0 fe 00 00 00 00      	ldxdw r2, [r10 - 0x160]
   14678: bf 26 00 00 00 00 00 00      	mov64 r6, r2
   14680: 07 06 00 00 18 00 00 00      	add64 r6, 0x18
   14688: 7b 6a 90 fe 00 00 00 00      	stxdw [r10 - 0x170], r6
   14690: bf 26 00 00 00 00 00 00      	mov64 r6, r2
   14698: 0f 16 00 00 00 00 00 00      	add64 r6, r1
   146a0: 7b 6a 88 fe 00 00 00 00      	stxdw [r10 - 0x178], r6
   146a8: 79 a1 78 fe 00 00 00 00      	ldxdw r1, [r10 - 0x188]
   146b0: 67 01 00 00 05 00 00 00      	lsh64 r1, 0x5
   146b8: 67 00 00 00 05 00 00 00      	lsh64 r0, 0x5
   146c0: bf 56 00 00 00 00 00 00      	mov64 r6, r5
   146c8: 07 06 00 00 5b 00 00 00      	add64 r6, 0x5b
   146d0: 7b 6a 68 fe 00 00 00 00      	stxdw [r10 - 0x198], r6
   146d8: 0f 06 00 00 00 00 00 00      	add64 r6, r0
   146e0: 7b 6a 60 fe 00 00 00 00      	stxdw [r10 - 0x1a0], r6
   146e8: 1f 10 00 00 00 00 00 00      	sub64 r0, r1
   146f0: 7b 0a 70 fe 00 00 00 00      	stxdw [r10 - 0x190], r0
   146f8: b7 01 00 00 00 00 00 00      	mov64 r1, 0x0
   14700: 7b 1a 80 fe 00 00 00 00      	stxdw [r10 - 0x180], r1
   14708: bf 21 00 00 00 00 00 00      	mov64 r1, r2
   14710: 07 01 00 00 20 00 00 00      	add64 r1, 0x20
   14718: 05 00 06 00 00 00 00 00      	ja +0x6 <entrypoint+0x13f28>
   14720: 67 02 00 00 03 00 00 00      	lsh64 r2, 0x3
   14728: 79 a0 90 fe 00 00 00 00      	ldxdw r0, [r10 - 0x170]
   14730: bf 01 00 00 00 00 00 00      	mov64 r1, r0
   14738: 0f 21 00 00 00 00 00 00      	add64 r1, r2
   14740: 79 a2 88 fe 00 00 00 00      	ldxdw r2, [r10 - 0x178]
   14748: 1d 20 c5 fe 00 00 00 00      	jeq r0, r2, -0x13b <entrypoint+0x13550>
   14750: 79 a0 90 fe 00 00 00 00      	ldxdw r0, [r10 - 0x170]
   14758: 7b 1a 90 fe 00 00 00 00      	stxdw [r10 - 0x170], r1
   14760: 79 a1 78 fe 00 00 00 00      	ldxdw r1, [r10 - 0x188]
   14768: 15 01 2b 00 00 00 00 00      	jeq r1, 0x0, +0x2b <entrypoint+0x140a0>
   14770: b7 02 00 00 00 00 00 00      	mov64 r2, 0x0
   14778: 79 01 00 00 00 00 00 00      	ldxdw r1, [r0 + 0x0]
   14780: 7b 1a 98 fe 00 00 00 00      	stxdw [r10 - 0x168], r1
   14788: 79 10 08 00 00 00 00 00      	ldxdw r0, [r1 + 0x8]
   14790: 79 a1 60 fe 00 00 00 00      	ldxdw r1, [r10 - 0x1a0]
   14798: 79 a7 70 fe 00 00 00 00      	ldxdw r7, [r10 - 0x190]
   147a0: 79 a9 68 fe 00 00 00 00      	ldxdw r9, [r10 - 0x198]
   147a8: 05 00 09 00 00 00 00 00      	ja +0x9 <entrypoint+0x13fd0>
   147b0: 72 01 00 00 01 00 00 00      	stb [r1 + 0x0], 0x1
   147b8: 79 a1 80 fe 00 00 00 00      	ldxdw r1, [r10 - 0x180]
   147c0: 07 01 00 00 01 00 00 00      	add64 r1, 0x1
   147c8: 7b 1a 80 fe 00 00 00 00      	stxdw [r10 - 0x180], r1
   147d0: bf 91 00 00 00 00 00 00      	mov64 r1, r9
   147d8: 07 01 00 00 20 00 00 00      	add64 r1, 0x20
   147e0: 07 02 00 00 01 00 00 00      	add64 r2, 0x1
   147e8: 07 07 00 00 20 00 00 00      	add64 r7, 0x20
   147f0: 15 07 1a 00 20 00 00 00      	jeq r7, 0x20, +0x1a <entrypoint+0x140a0>
   147f8: bf 98 00 00 00 00 00 00      	mov64 r8, r9
   14800: bf 19 00 00 00 00 00 00      	mov64 r9, r1
   14808: 79 81 00 00 00 00 00 00      	ldxdw r1, [r8 + 0x0]
   14810: 5d 01 f7 ff 00 00 00 00      	jne r1, r0, -0x9 <entrypoint+0x13fa8>
   14818: 79 a1 98 fe 00 00 00 00      	ldxdw r1, [r10 - 0x168]
   14820: 79 11 10 00 00 00 00 00      	ldxdw r1, [r1 + 0x10]
   14828: 79 86 08 00 00 00 00 00      	ldxdw r6, [r8 + 0x8]
   14830: 5d 16 f3 ff 00 00 00 00      	jne r6, r1, -0xd <entrypoint+0x13fa8>
   14838: 79 a1 98 fe 00 00 00 00      	ldxdw r1, [r10 - 0x168]
   14840: 79 11 18 00 00 00 00 00      	ldxdw r1, [r1 + 0x18]
   14848: 79 86 10 00 00 00 00 00      	ldxdw r6, [r8 + 0x10]
   14850: 5d 16 ef ff 00 00 00 00      	jne r6, r1, -0x11 <entrypoint+0x13fa8>
   14858: 79 a1 98 fe 00 00 00 00      	ldxdw r1, [r10 - 0x168]
   14860: 79 11 20 00 00 00 00 00      	ldxdw r1, [r1 + 0x20]
   14868: 79 86 18 00 00 00 00 00      	ldxdw r6, [r8 + 0x18]
   14870: 5d 16 eb ff 00 00 00 00      	jne r6, r1, -0x15 <entrypoint+0x13fa8>
   14878: 25 02 04 04 0a 00 00 00      	jgt r2, 0xa, +0x404 <entrypoint+0x16078>
   14880: bf a1 00 00 00 00 00 00      	mov64 r1, r10
   14888: 07 01 00 00 a8 fe ff ff      	add64 r1, -0x158
   14890: 0f 21 00 00 00 00 00 00      	add64 r1, r2
   14898: 71 16 00 00 00 00 00 00      	ldxb r6, [r1 + 0x0]
   148a0: 55 06 e5 ff 00 00 00 00      	jne r6, 0x0, -0x1b <entrypoint+0x13fa8>
   148a8: 79 a6 98 fe 00 00 00 00      	ldxdw r6, [r10 - 0x168]
   148b0: 71 66 01 00 00 00 00 00      	ldxb r6, [r6 + 0x1]
   148b8: 55 06 de ff 00 00 00 00      	jne r6, 0x0, -0x22 <entrypoint+0x13f88>
   148c0: 05 00 ec fb 00 00 00 00      	ja -0x414 <entrypoint+0x12000>
   148c8: b7 02 00 00 01 00 00 00      	mov64 r2, 0x1
   148d0: 79 a1 88 fe 00 00 00 00      	ldxdw r1, [r10 - 0x178]
   148d8: 79 a0 90 fe 00 00 00 00      	ldxdw r0, [r10 - 0x170]
   148e0: 5d 10 c7 ff 00 00 00 00      	jne r0, r1, -0x39 <entrypoint+0x13ef8>
   148e8: b7 02 00 00 00 00 00 00      	mov64 r2, 0x0
   148f0: 05 00 c5 ff 00 00 00 00      	ja -0x3b <entrypoint+0x13ef8>
   148f8: b7 01 00 00 00 00 00 00      	mov64 r1, 0x0
   14900: 7b 1a 80 fe 00 00 00 00      	stxdw [r10 - 0x180], r1
   14908: 67 02 00 00 03 00 00 00      	lsh64 r2, 0x3
   14910: 62 0a af fe 00 00 00 00      	stw [r10 - 0x151], 0x0
   14918: 7a 0a a8 fe 00 00 00 00      	stdw [r10 - 0x158], 0x0
   14920: bf 21 00 00 00 00 00 00      	mov64 r1, r2
   14928: 55 02 77 00 20 00 00 00      	jne r2, 0x20, +0x77 <entrypoint+0x144c0>
   14930: 71 51 58 00 00 00 00 00      	ldxb r1, [r5 + 0x58]
   14938: 79 a2 80 fe 00 00 00 00      	ldxdw r2, [r10 - 0x180]
   14940: 57 02 00 00 ff 00 00 00      	and64 r2, 0xff
   14948: 3d 12 cb 00 00 00 00 00      	jge r2, r1, +0xcb <entrypoint+0x14780>
   14950: b7 00 00 00 07 00 00 00      	mov64 r0, 0x7
   14958: 05 00 bb fd 00 00 00 00      	ja -0x245 <entrypoint+0x12f10>
   14960: 71 71 5a 00 00 00 00 00      	ldxb r1, [r7 + 0x5a]
   14968: 55 01 36 ff 01 00 00 00      	jne r1, 0x1, -0xca <entrypoint+0x13af8>
   14970: b7 01 00 00 00 00 00 00      	mov64 r1, 0x0
   14978: 7b 1a 80 fe 00 00 00 00      	stxdw [r10 - 0x180], r1
   14980: 67 02 00 00 03 00 00 00      	lsh64 r2, 0x3
   14988: 62 0a af fe 00 00 00 00      	stw [r10 - 0x151], 0x0
   14990: 7a 0a a8 fe 00 00 00 00      	stdw [r10 - 0x158], 0x0
   14998: bf 21 00 00 00 00 00 00      	mov64 r1, r2
   149a0: 55 02 0e 01 18 00 00 00      	jne r2, 0x18, +0x10e <entrypoint+0x149f0>
   149a8: 71 71 58 00 00 00 00 00      	ldxb r1, [r7 + 0x58]
   149b0: 79 a2 80 fe 00 00 00 00      	ldxdw r2, [r10 - 0x180]
   149b8: 57 02 00 00 ff 00 00 00      	and64 r2, 0xff
   149c0: 3d 12 10 fd 00 00 00 00      	jge r2, r1, -0x2f0 <entrypoint+0x12a20>
   149c8: 05 00 f0 ff 00 00 00 00      	ja -0x10 <entrypoint+0x14128>
   149d0: bf 21 00 00 00 00 00 00      	mov64 r1, r2
   149d8: 67 01 00 00 03 00 00 00      	lsh64 r1, 0x3
   149e0: b7 02 00 00 00 00 00 00      	mov64 r2, 0x0
   149e8: 7b 2a 88 fe 00 00 00 00      	stxdw [r10 - 0x178], r2
   149f0: b7 00 00 00 01 00 00 00      	mov64 r0, 0x1
   149f8: bf 12 00 00 00 00 00 00      	mov64 r2, r1
   14a00: 55 01 01 00 18 00 00 00      	jne r1, 0x18, +0x1 <entrypoint+0x141e8>
   14a08: b7 00 00 00 00 00 00 00      	mov64 r0, 0x0
   14a10: 62 0a af fe 00 00 00 00      	stw [r10 - 0x151], 0x0
   14a18: 7a 0a a8 fe 00 00 00 00      	stdw [r10 - 0x158], 0x0
   14a20: 15 02 53 00 18 00 00 00      	jeq r2, 0x18, +0x53 <entrypoint+0x14498>
   14a28: 71 41 59 00 00 00 00 00      	ldxb r1, [r4 + 0x59]
   14a30: b7 06 00 00 01 00 00 00      	mov64 r6, 0x1
   14a38: 55 01 01 00 00 00 00 00      	jne r1, 0x0, +0x1 <entrypoint+0x14220>
   14a40: b7 06 00 00 00 00 00 00      	mov64 r6, 0x0
   14a48: 25 01 c6 03 0b 00 00 00      	jgt r1, 0xb, +0x3c6 <entrypoint+0x16058>
   14a50: 15 01 4b 00 00 00 00 00      	jeq r1, 0x0, +0x4b <entrypoint+0x14488>
   14a58: 67 00 00 00 03 00 00 00      	lsh64 r0, 0x3
   14a60: bf 35 00 00 00 00 00 00      	mov64 r5, r3
   14a68: 0f 05 00 00 00 00 00 00      	add64 r5, r0
   14a70: 79 a0 a0 fe 00 00 00 00      	ldxdw r0, [r10 - 0x160]
   14a78: 0f 20 00 00 00 00 00 00      	add64 r0, r2
   14a80: 7b 0a 80 fe 00 00 00 00      	stxdw [r10 - 0x180], r0
   14a88: 67 01 00 00 05 00 00 00      	lsh64 r1, 0x5
   14a90: 67 06 00 00 05 00 00 00      	lsh64 r6, 0x5
   14a98: bf 42 00 00 00 00 00 00      	mov64 r2, r4
   14aa0: 07 02 00 00 5b 00 00 00      	add64 r2, 0x5b
   14aa8: 7b 2a 70 fe 00 00 00 00      	stxdw [r10 - 0x190], r2
   14ab0: 0f 62 00 00 00 00 00 00      	add64 r2, r6
   14ab8: 7b 2a 68 fe 00 00 00 00      	stxdw [r10 - 0x198], r2
   14ac0: 1f 16 00 00 00 00 00 00      	sub64 r6, r1
   14ac8: 7b 6a 78 fe 00 00 00 00      	stxdw [r10 - 0x188], r6
   14ad0: b7 01 00 00 00 00 00 00      	mov64 r1, 0x0
   14ad8: 7b 1a 88 fe 00 00 00 00      	stxdw [r10 - 0x178], r1
   14ae0: 05 00 05 00 00 00 00 00      	ja +0x5 <entrypoint+0x142e8>
   14ae8: 67 01 00 00 03 00 00 00      	lsh64 r1, 0x3
   14af0: bf 35 00 00 00 00 00 00      	mov64 r5, r3
   14af8: 0f 15 00 00 00 00 00 00      	add64 r5, r1
   14b00: 79 a1 80 fe 00 00 00 00      	ldxdw r1, [r10 - 0x180]
   14b08: 1d 13 36 00 00 00 00 00      	jeq r3, r1, +0x36 <entrypoint+0x14498>
   14b10: bf 31 00 00 00 00 00 00      	mov64 r1, r3
   14b18: bf 53 00 00 00 00 00 00      	mov64 r3, r5
   14b20: 79 11 00 00 00 00 00 00      	ldxdw r1, [r1 + 0x0]
   14b28: 7b 1a 90 fe 00 00 00 00      	stxdw [r10 - 0x170], r1
   14b30: 79 11 08 00 00 00 00 00      	ldxdw r1, [r1 + 0x8]
   14b38: 7b 1a 98 fe 00 00 00 00      	stxdw [r10 - 0x168], r1
   14b40: 79 a0 78 fe 00 00 00 00      	ldxdw r0, [r10 - 0x188]
   14b48: 79 a9 68 fe 00 00 00 00      	ldxdw r9, [r10 - 0x198]
   14b50: b7 01 00 00 00 00 00 00      	mov64 r1, 0x0
   14b58: 79 a6 70 fe 00 00 00 00      	ldxdw r6, [r10 - 0x190]
   14b60: 05 00 05 00 00 00 00 00      	ja +0x5 <entrypoint+0x14368>
   14b68: bf 69 00 00 00 00 00 00      	mov64 r9, r6
   14b70: 07 09 00 00 20 00 00 00      	add64 r9, 0x20
   14b78: 07 01 00 00 01 00 00 00      	add64 r1, 0x1
   14b80: 07 00 00 00 20 00 00 00      	add64 r0, 0x20
   14b88: 15 00 1f 00 20 00 00 00      	jeq r0, 0x20, +0x1f <entrypoint+0x14460>
   14b90: bf 65 00 00 00 00 00 00      	mov64 r5, r6
   14b98: bf 96 00 00 00 00 00 00      	mov64 r6, r9
   14ba0: 79 59 00 00 00 00 00 00      	ldxdw r9, [r5 + 0x0]
   14ba8: 79 a2 98 fe 00 00 00 00      	ldxdw r2, [r10 - 0x168]
   14bb0: 5d 29 f6 ff 00 00 00 00      	jne r9, r2, -0xa <entrypoint+0x14340>
   14bb8: 79 a2 90 fe 00 00 00 00      	ldxdw r2, [r10 - 0x170]
   14bc0: 79 29 10 00 00 00 00 00      	ldxdw r9, [r2 + 0x10]
   14bc8: 79 52 08 00 00 00 00 00      	ldxdw r2, [r5 + 0x8]
   14bd0: 5d 92 f2 ff 00 00 00 00      	jne r2, r9, -0xe <entrypoint+0x14340>
   14bd8: 79 a2 90 fe 00 00 00 00      	ldxdw r2, [r10 - 0x170]
   14be0: 79 22 18 00 00 00 00 00      	ldxdw r2, [r2 + 0x18]
   14be8: 79 59 10 00 00 00 00 00      	ldxdw r9, [r5 + 0x10]
   14bf0: 5d 29 ee ff 00 00 00 00      	jne r9, r2, -0x12 <entrypoint+0x14340>
   14bf8: 79 a2 90 fe 00 00 00 00      	ldxdw r2, [r10 - 0x170]
   14c00: 79 22 20 00 00 00 00 00      	ldxdw r2, [r2 + 0x20]
   14c08: 79 55 18 00 00 00 00 00      	ldxdw r5, [r5 + 0x18]
   14c10: 5d 25 ea ff 00 00 00 00      	jne r5, r2, -0x16 <entrypoint+0x14340>
   14c18: 25 01 91 03 0a 00 00 00      	jgt r1, 0xa, +0x391 <entrypoint+0x16080>
   14c20: bf a5 00 00 00 00 00 00      	mov64 r5, r10
   14c28: 07 05 00 00 a8 fe ff ff      	add64 r5, -0x158
   14c30: 0f 15 00 00 00 00 00 00      	add64 r5, r1
   14c38: 71 52 00 00 00 00 00 00      	ldxb r2, [r5 + 0x0]
   14c40: 55 02 e4 ff 00 00 00 00      	jne r2, 0x0, -0x1c <entrypoint+0x14340>
   14c48: 79 a2 90 fe 00 00 00 00      	ldxdw r2, [r10 - 0x170]
   14c50: 71 22 01 00 00 00 00 00      	ldxb r2, [r2 + 0x1]
   14c58: 15 02 79 fb 00 00 00 00      	jeq r2, 0x0, -0x487 <entrypoint+0x12000>
   14c60: 72 05 00 00 01 00 00 00      	stb [r5 + 0x0], 0x1
   14c68: 79 a2 88 fe 00 00 00 00      	ldxdw r2, [r10 - 0x178]
   14c70: 07 02 00 00 01 00 00 00      	add64 r2, 0x1
   14c78: 7b 2a 88 fe 00 00 00 00      	stxdw [r10 - 0x178], r2
   14c80: 05 00 dc ff 00 00 00 00      	ja -0x24 <entrypoint+0x14340>
   14c88: b7 01 00 00 01 00 00 00      	mov64 r1, 0x1
   14c90: 79 a2 80 fe 00 00 00 00      	ldxdw r2, [r10 - 0x180]
   14c98: 5d 23 c9 ff 00 00 00 00      	jne r3, r2, -0x37 <entrypoint+0x142c0>
   14ca0: b7 01 00 00 00 00 00 00      	mov64 r1, 0x0
   14ca8: 05 00 c7 ff 00 00 00 00      	ja -0x39 <entrypoint+0x142c0>
   14cb0: b7 01 00 00 00 00 00 00      	mov64 r1, 0x0
   14cb8: 7b 1a 88 fe 00 00 00 00      	stxdw [r10 - 0x178], r1
   14cc0: 71 41 58 00 00 00 00 00      	ldxb r1, [r4 + 0x58]
   14cc8: 79 a2 88 fe 00 00 00 00      	ldxdw r2, [r10 - 0x178]
   14cd0: 57 02 00 00 ff 00 00 00      	and64 r2, 0xff
   14cd8: 3d 12 32 fc 00 00 00 00      	jge r2, r1, -0x3ce <entrypoint+0x12648>
   14ce0: 05 00 68 fb 00 00 00 00      	ja -0x498 <entrypoint+0x12000>
   14ce8: 71 52 59 00 00 00 00 00      	ldxb r2, [r5 + 0x59]
   14cf0: b7 00 00 00 01 00 00 00      	mov64 r0, 0x1
   14cf8: 7b 2a 78 fe 00 00 00 00      	stxdw [r10 - 0x188], r2
   14d00: 55 02 01 00 00 00 00 00      	jne r2, 0x0, +0x1 <entrypoint+0x144e8>
   14d08: b7 00 00 00 00 00 00 00      	mov64 r0, 0x0
   14d10: 79 a2 78 fe 00 00 00 00      	ldxdw r2, [r10 - 0x188]
   14d18: 25 02 66 03 0b 00 00 00      	jgt r2, 0xb, +0x366 <entrypoint+0x16028>
   14d20: 79 a2 a0 fe 00 00 00 00      	ldxdw r2, [r10 - 0x160]
   14d28: bf 26 00 00 00 00 00 00      	mov64 r6, r2
   14d30: 07 06 00 00 20 00 00 00      	add64 r6, 0x20
   14d38: 7b 6a 90 fe 00 00 00 00      	stxdw [r10 - 0x170], r6
   14d40: bf 26 00 00 00 00 00 00      	mov64 r6, r2
   14d48: 0f 16 00 00 00 00 00 00      	add64 r6, r1
   14d50: 7b 6a 88 fe 00 00 00 00      	stxdw [r10 - 0x178], r6
   14d58: 79 a1 78 fe 00 00 00 00      	ldxdw r1, [r10 - 0x188]
   14d60: 67 01 00 00 05 00 00 00      	lsh64 r1, 0x5
   14d68: 67 00 00 00 05 00 00 00      	lsh64 r0, 0x5
   14d70: bf 56 00 00 00 00 00 00      	mov64 r6, r5
   14d78: 07 06 00 00 5b 00 00 00      	add64 r6, 0x5b
   14d80: 7b 6a 68 fe 00 00 00 00      	stxdw [r10 - 0x198], r6
   14d88: 0f 06 00 00 00 00 00 00      	add64 r6, r0
   14d90: 7b 6a 60 fe 00 00 00 00      	stxdw [r10 - 0x1a0], r6
   14d98: 1f 10 00 00 00 00 00 00      	sub64 r0, r1
   14da0: 7b 0a 70 fe 00 00 00 00      	stxdw [r10 - 0x190], r0
   14da8: b7 01 00 00 00 00 00 00      	mov64 r1, 0x0
   14db0: 7b 1a 80 fe 00 00 00 00      	stxdw [r10 - 0x180], r1
   14db8: bf 21 00 00 00 00 00 00      	mov64 r1, r2
   14dc0: 07 01 00 00 28 00 00 00      	add64 r1, 0x28
   14dc8: 05 00 06 00 00 00 00 00      	ja +0x6 <entrypoint+0x145d8>
   14dd0: 67 02 00 00 03 00 00 00      	lsh64 r2, 0x3
   14dd8: 79 a0 90 fe 00 00 00 00      	ldxdw r0, [r10 - 0x170]
   14de0: bf 01 00 00 00 00 00 00      	mov64 r1, r0
   14de8: 0f 21 00 00 00 00 00 00      	add64 r1, r2
   14df0: 79 a2 88 fe 00 00 00 00      	ldxdw r2, [r10 - 0x178]
   14df8: 1d 20 66 ff 00 00 00 00      	jeq r0, r2, -0x9a <entrypoint+0x14108>
   14e00: 79 a0 90 fe 00 00 00 00      	ldxdw r0, [r10 - 0x170]
   14e08: 7b 1a 90 fe 00 00 00 00      	stxdw [r10 - 0x170], r1
   14e10: 79 a1 78 fe 00 00 00 00      	ldxdw r1, [r10 - 0x188]
   14e18: 15 01 2b 00 00 00 00 00      	jeq r1, 0x0, +0x2b <entrypoint+0x14750>
   14e20: b7 02 00 00 00 00 00 00      	mov64 r2, 0x0
   14e28: 79 01 00 00 00 00 00 00      	ldxdw r1, [r0 + 0x0]
   14e30: 7b 1a 98 fe 00 00 00 00      	stxdw [r10 - 0x168], r1
   14e38: 79 10 08 00 00 00 00 00      	ldxdw r0, [r1 + 0x8]
   14e40: 79 a1 60 fe 00 00 00 00      	ldxdw r1, [r10 - 0x1a0]
   14e48: 79 a7 70 fe 00 00 00 00      	ldxdw r7, [r10 - 0x190]
   14e50: 79 a9 68 fe 00 00 00 00      	ldxdw r9, [r10 - 0x198]
   14e58: 05 00 05 00 00 00 00 00      	ja +0x5 <entrypoint+0x14660>
   14e60: bf 91 00 00 00 00 00 00      	mov64 r1, r9
   14e68: 07 01 00 00 20 00 00 00      	add64 r1, 0x20
   14e70: 07 02 00 00 01 00 00 00      	add64 r2, 0x1
   14e78: 07 07 00 00 20 00 00 00      	add64 r7, 0x20
   14e80: 15 07 1e 00 20 00 00 00      	jeq r7, 0x20, +0x1e <entrypoint+0x14750>
   14e88: bf 98 00 00 00 00 00 00      	mov64 r8, r9
   14e90: bf 19 00 00 00 00 00 00      	mov64 r9, r1
   14e98: 79 81 00 00 00 00 00 00      	ldxdw r1, [r8 + 0x0]
   14ea0: 5d 01 f7 ff 00 00 00 00      	jne r1, r0, -0x9 <entrypoint+0x14638>
   14ea8: 79 a1 98 fe 00 00 00 00      	ldxdw r1, [r10 - 0x168]
   14eb0: 79 11 10 00 00 00 00 00      	ldxdw r1, [r1 + 0x10]
   14eb8: 79 86 08 00 00 00 00 00      	ldxdw r6, [r8 + 0x8]
   14ec0: 5d 16 f3 ff 00 00 00 00      	jne r6, r1, -0xd <entrypoint+0x14638>
   14ec8: 79 a1 98 fe 00 00 00 00      	ldxdw r1, [r10 - 0x168]
   14ed0: 79 11 18 00 00 00 00 00      	ldxdw r1, [r1 + 0x18]
   14ed8: 79 86 10 00 00 00 00 00      	ldxdw r6, [r8 + 0x10]
   14ee0: 5d 16 ef ff 00 00 00 00      	jne r6, r1, -0x11 <entrypoint+0x14638>
   14ee8: 79 a1 98 fe 00 00 00 00      	ldxdw r1, [r10 - 0x168]
   14ef0: 79 11 20 00 00 00 00 00      	ldxdw r1, [r1 + 0x20]
   14ef8: 79 86 18 00 00 00 00 00      	ldxdw r6, [r8 + 0x18]
   14f00: 5d 16 eb ff 00 00 00 00      	jne r6, r1, -0x15 <entrypoint+0x14638>
   14f08: 25 02 32 03 0a 00 00 00      	jgt r2, 0xa, +0x332 <entrypoint+0x16078>
   14f10: bf a1 00 00 00 00 00 00      	mov64 r1, r10
   14f18: 07 01 00 00 a8 fe ff ff      	add64 r1, -0x158
   14f20: 0f 21 00 00 00 00 00 00      	add64 r1, r2
   14f28: 71 16 00 00 00 00 00 00      	ldxb r6, [r1 + 0x0]
   14f30: 55 06 e5 ff 00 00 00 00      	jne r6, 0x0, -0x1b <entrypoint+0x14638>
   14f38: 79 a6 98 fe 00 00 00 00      	ldxdw r6, [r10 - 0x168]
   14f40: 71 66 01 00 00 00 00 00      	ldxb r6, [r6 + 0x1]
   14f48: 15 06 40 ff 00 00 00 00      	jeq r6, 0x0, -0xc0 <entrypoint+0x14128>
   14f50: 72 01 00 00 01 00 00 00      	stb [r1 + 0x0], 0x1
   14f58: 79 a1 80 fe 00 00 00 00      	ldxdw r1, [r10 - 0x180]
   14f60: 07 01 00 00 01 00 00 00      	add64 r1, 0x1
   14f68: 7b 1a 80 fe 00 00 00 00      	stxdw [r10 - 0x180], r1
   14f70: 05 00 dd ff 00 00 00 00      	ja -0x23 <entrypoint+0x14638>
   14f78: b7 02 00 00 01 00 00 00      	mov64 r2, 0x1
   14f80: 79 a1 88 fe 00 00 00 00      	ldxdw r1, [r10 - 0x178]
   14f88: 79 a0 90 fe 00 00 00 00      	ldxdw r0, [r10 - 0x170]
   14f90: 5d 10 c7 ff 00 00 00 00      	jne r0, r1, -0x39 <entrypoint+0x145a8>
   14f98: b7 02 00 00 00 00 00 00      	mov64 r2, 0x0
   14fa0: 05 00 c5 ff 00 00 00 00      	ja -0x3b <entrypoint+0x145a8>
   14fa8: 79 a6 a0 fe 00 00 00 00      	ldxdw r6, [r10 - 0x160]
   14fb0: 05 00 21 fb 00 00 00 00      	ja -0x4df <entrypoint+0x12098>
   14fb8: b7 01 00 00 00 00 00 00      	mov64 r1, 0x0
   14fc0: 7b 1a 80 fe 00 00 00 00      	stxdw [r10 - 0x180], r1
   14fc8: 71 71 58 00 00 00 00 00      	ldxb r1, [r7 + 0x58]
   14fd0: 79 a2 80 fe 00 00 00 00      	ldxdw r2, [r10 - 0x180]
   14fd8: 57 02 00 00 ff 00 00 00      	and64 r2, 0xff
   14fe0: ad 12 08 fb 00 00 00 00      	jlt r2, r1, -0x4f8 <entrypoint+0x12000>
   14fe8: 79 a6 a0 fe 00 00 00 00      	ldxdw r6, [r10 - 0x160]
   14ff0: 05 00 f6 fa 00 00 00 00      	ja -0x50a <entrypoint+0x11f80>
   14ff8: 7b 3a 98 fe 00 00 00 00      	stxdw [r10 - 0x168], r3
   15000: 71 71 5a 00 00 00 00 00      	ldxb r1, [r7 + 0x5a]
   15008: 55 01 be fe 01 00 00 00      	jne r1, 0x1, -0x142 <entrypoint+0x13dd8>
   15010: b7 01 00 00 00 00 00 00      	mov64 r1, 0x0
   15018: 7b 1a 88 fe 00 00 00 00      	stxdw [r10 - 0x178], r1
   15020: 67 02 00 00 03 00 00 00      	lsh64 r2, 0x3
   15028: 62 0a af fe 00 00 00 00      	stw [r10 - 0x151], 0x0
   15030: 7a 0a a8 fe 00 00 00 00      	stdw [r10 - 0x158], 0x0
   15038: bf 21 00 00 00 00 00 00      	mov64 r1, r2
   15040: 55 02 0d 01 10 00 00 00      	jne r2, 0x10, +0x10d <entrypoint+0x15088>
   15048: 71 71 58 00 00 00 00 00      	ldxb r1, [r7 + 0x58]
   15050: 79 a2 88 fe 00 00 00 00      	ldxdw r2, [r10 - 0x178]
   15058: 57 02 00 00 ff 00 00 00      	and64 r2, 0xff
   15060: ad 12 f8 fa 00 00 00 00      	jlt r2, r1, -0x508 <entrypoint+0x12000>
   15068: b7 00 00 00 00 00 00 00      	mov64 r0, 0x0
   15070: b7 01 00 00 0c 00 00 00      	mov64 r1, 0xc
   15078: 79 a3 98 fe 00 00 00 00      	ldxdw r3, [r10 - 0x168]
   15080: 55 03 a5 fc 00 00 00 00      	jne r3, 0x0, -0x35b <entrypoint+0x12d88>
   15088: 05 00 d5 fc 00 00 00 00      	ja -0x32b <entrypoint+0x12f10>
   15090: 7b 3a 98 fe 00 00 00 00      	stxdw [r10 - 0x168], r3
   15098: 71 71 5a 00 00 00 00 00      	ldxb r1, [r7 + 0x5a]
   150a0: 55 01 ab fe 01 00 00 00      	jne r1, 0x1, -0x155 <entrypoint+0x13dd8>
   150a8: b7 01 00 00 00 00 00 00      	mov64 r1, 0x0
   150b0: 7b 1a 78 fe 00 00 00 00      	stxdw [r10 - 0x188], r1
   150b8: 67 02 00 00 03 00 00 00      	lsh64 r2, 0x3
   150c0: 62 0a af fe 00 00 00 00      	stw [r10 - 0x151], 0x0
   150c8: 7a 0a a8 fe 00 00 00 00      	stdw [r10 - 0x158], 0x0
   150d0: bf 21 00 00 00 00 00 00      	mov64 r1, r2
   150d8: 55 02 4b 01 10 00 00 00      	jne r2, 0x10, +0x14b <entrypoint+0x15310>
   150e0: 79 a1 90 fe 00 00 00 00      	ldxdw r1, [r10 - 0x170]
   150e8: 71 11 58 00 00 00 00 00      	ldxb r1, [r1 + 0x58]
   150f0: 79 a8 78 fe 00 00 00 00      	ldxdw r8, [r10 - 0x188]
   150f8: 57 08 00 00 ff 00 00 00      	and64 r8, 0xff
   15100: ad 18 e4 fa 00 00 00 00      	jlt r8, r1, -0x51c <entrypoint+0x12000>
   15108: 79 a3 98 fe 00 00 00 00      	ldxdw r3, [r10 - 0x168]
   15110: 79 a4 a0 fe 00 00 00 00      	ldxdw r4, [r10 - 0x160]
   15118: 55 03 b2 fc 00 00 00 00      	jne r3, 0x0, -0x34e <entrypoint+0x12e88>
   15120: 72 04 d9 00 00 00 00 00      	stb [r4 + 0xd9], 0x0
   15128: b7 00 00 00 1a 00 00 00      	mov64 r0, 0x1a
   15130: 05 00 c0 fc 00 00 00 00      	ja -0x340 <entrypoint+0x12f10>
   15138: 71 61 5a 00 00 00 00 00      	ldxb r1, [r6 + 0x5a]
   15140: 55 01 97 fe 01 00 00 00      	jne r1, 0x1, -0x169 <entrypoint+0x13dd8>
   15148: b7 01 00 00 00 00 00 00      	mov64 r1, 0x0
   15150: 7b 1a 78 fe 00 00 00 00      	stxdw [r10 - 0x188], r1
   15158: 67 08 00 00 03 00 00 00      	lsh64 r8, 0x3
   15160: 62 0a af fe 00 00 00 00      	stw [r10 - 0x151], 0x0
   15168: 7a 0a a8 fe 00 00 00 00      	stdw [r10 - 0x158], 0x0
   15170: bf 81 00 00 00 00 00 00      	mov64 r1, r8
   15178: 55 08 85 01 10 00 00 00      	jne r8, 0x10, +0x185 <entrypoint+0x15580>
   15180: 71 61 58 00 00 00 00 00      	ldxb r1, [r6 + 0x58]
   15188: 79 a2 78 fe 00 00 00 00      	ldxdw r2, [r10 - 0x188]
   15190: 57 02 00 00 ff 00 00 00      	and64 r2, 0xff
   15198: 3d 12 c2 fc 00 00 00 00      	jge r2, r1, -0x33e <entrypoint+0x12f88>
   151a0: 05 00 d0 fa 00 00 00 00      	ja -0x530 <entrypoint+0x12000>
   151a8: 71 61 5a 00 00 00 00 00      	ldxb r1, [r6 + 0x5a]
   151b0: 55 01 89 fe 01 00 00 00      	jne r1, 0x1, -0x177 <entrypoint+0x13dd8>
   151b8: b7 01 00 00 00 00 00 00      	mov64 r1, 0x0
   151c0: 7b 1a 78 fe 00 00 00 00      	stxdw [r10 - 0x188], r1
   151c8: 67 08 00 00 03 00 00 00      	lsh64 r8, 0x3
   151d0: 62 0a af fe 00 00 00 00      	stw [r10 - 0x151], 0x0
   151d8: 7a 0a a8 fe 00 00 00 00      	stdw [r10 - 0x158], 0x0
   151e0: bf 81 00 00 00 00 00 00      	mov64 r1, r8
   151e8: 55 08 cc 01 10 00 00 00      	jne r8, 0x10, +0x1cc <entrypoint+0x15828>
   151f0: 71 61 58 00 00 00 00 00      	ldxb r1, [r6 + 0x58]
   151f8: 79 a2 78 fe 00 00 00 00      	ldxdw r2, [r10 - 0x188]
   15200: 57 02 00 00 ff 00 00 00      	and64 r2, 0xff
   15208: 3d 12 cb fc 00 00 00 00      	jge r2, r1, -0x335 <entrypoint+0x13040>
   15210: 05 00 c2 fa 00 00 00 00      	ja -0x53e <entrypoint+0x12000>
   15218: 71 72 59 00 00 00 00 00      	ldxb r2, [r7 + 0x59]
   15220: b7 00 00 00 01 00 00 00      	mov64 r0, 0x1
   15228: 7b 2a 78 fe 00 00 00 00      	stxdw [r10 - 0x188], r2
   15230: 55 02 01 00 00 00 00 00      	jne r2, 0x0, +0x1 <entrypoint+0x14a18>
   15238: b7 00 00 00 00 00 00 00      	mov64 r0, 0x0
   15240: 79 a2 78 fe 00 00 00 00      	ldxdw r2, [r10 - 0x188]
   15248: 25 02 c0 02 0b 00 00 00      	jgt r2, 0xb, +0x2c0 <entrypoint+0x16028>
   15250: bf 62 00 00 00 00 00 00      	mov64 r2, r6
   15258: 07 02 00 00 18 00 00 00      	add64 r2, 0x18
   15260: 7b 2a 90 fe 00 00 00 00      	stxdw [r10 - 0x170], r2
   15268: bf 62 00 00 00 00 00 00      	mov64 r2, r6
   15270: 0f 12 00 00 00 00 00 00      	add64 r2, r1
   15278: 7b 2a 88 fe 00 00 00 00      	stxdw [r10 - 0x178], r2
   15280: 79 a1 78 fe 00 00 00 00      	ldxdw r1, [r10 - 0x188]
   15288: 67 01 00 00 05 00 00 00      	lsh64 r1, 0x5
   15290: 67 00 00 00 05 00 00 00      	lsh64 r0, 0x5
   15298: bf 72 00 00 00 00 00 00      	mov64 r2, r7
   152a0: 07 02 00 00 5b 00 00 00      	add64 r2, 0x5b
   152a8: 7b 2a 68 fe 00 00 00 00      	stxdw [r10 - 0x198], r2
   152b0: 0f 02 00 00 00 00 00 00      	add64 r2, r0
   152b8: 7b 2a 60 fe 00 00 00 00      	stxdw [r10 - 0x1a0], r2
   152c0: 1f 10 00 00 00 00 00 00      	sub64 r0, r1
   152c8: 7b 0a 70 fe 00 00 00 00      	stxdw [r10 - 0x190], r0
   152d0: b7 01 00 00 00 00 00 00      	mov64 r1, 0x0
   152d8: 7b 1a 80 fe 00 00 00 00      	stxdw [r10 - 0x180], r1
   152e0: 07 06 00 00 20 00 00 00      	add64 r6, 0x20
   152e8: 05 00 06 00 00 00 00 00      	ja +0x6 <entrypoint+0x14af8>
   152f0: 67 01 00 00 03 00 00 00      	lsh64 r1, 0x3
   152f8: 79 a0 90 fe 00 00 00 00      	ldxdw r0, [r10 - 0x170]
   15300: bf 06 00 00 00 00 00 00      	mov64 r6, r0
   15308: 0f 16 00 00 00 00 00 00      	add64 r6, r1
   15310: 79 a2 88 fe 00 00 00 00      	ldxdw r2, [r10 - 0x178]
   15318: 1d 20 d1 fe 00 00 00 00      	jeq r0, r2, -0x12f <entrypoint+0x14180>
   15320: 79 a0 90 fe 00 00 00 00      	ldxdw r0, [r10 - 0x170]
   15328: 7b 6a 90 fe 00 00 00 00      	stxdw [r10 - 0x170], r6
   15330: 79 a1 78 fe 00 00 00 00      	ldxdw r1, [r10 - 0x188]
   15338: 15 01 2d 00 00 00 00 00      	jeq r1, 0x0, +0x2d <entrypoint+0x14c80>
   15340: b7 02 00 00 00 00 00 00      	mov64 r2, 0x0
   15348: 79 01 00 00 00 00 00 00      	ldxdw r1, [r0 + 0x0]
   15350: 7b 1a 98 fe 00 00 00 00      	stxdw [r10 - 0x168], r1
   15358: 79 11 08 00 00 00 00 00      	ldxdw r1, [r1 + 0x8]
   15360: 7b 1a a0 fe 00 00 00 00      	stxdw [r10 - 0x160], r1
   15368: 79 a8 60 fe 00 00 00 00      	ldxdw r8, [r10 - 0x1a0]
   15370: 79 a1 70 fe 00 00 00 00      	ldxdw r1, [r10 - 0x190]
   15378: 79 a0 68 fe 00 00 00 00      	ldxdw r0, [r10 - 0x198]
   15380: 05 00 05 00 00 00 00 00      	ja +0x5 <entrypoint+0x14b88>
   15388: bf 08 00 00 00 00 00 00      	mov64 r8, r0
   15390: 07 08 00 00 20 00 00 00      	add64 r8, 0x20
   15398: 07 02 00 00 01 00 00 00      	add64 r2, 0x1
   153a0: 07 01 00 00 20 00 00 00      	add64 r1, 0x20
   153a8: 15 01 1f 00 20 00 00 00      	jeq r1, 0x20, +0x1f <entrypoint+0x14c80>
   153b0: bf 09 00 00 00 00 00 00      	mov64 r9, r0
   153b8: bf 80 00 00 00 00 00 00      	mov64 r0, r8
   153c0: 79 98 00 00 00 00 00 00      	ldxdw r8, [r9 + 0x0]
   153c8: 79 a6 a0 fe 00 00 00 00      	ldxdw r6, [r10 - 0x160]
   153d0: 5d 68 f6 ff 00 00 00 00      	jne r8, r6, -0xa <entrypoint+0x14b60>
   153d8: 79 a6 98 fe 00 00 00 00      	ldxdw r6, [r10 - 0x168]
   153e0: 79 68 10 00 00 00 00 00      	ldxdw r8, [r6 + 0x10]
   153e8: 79 96 08 00 00 00 00 00      	ldxdw r6, [r9 + 0x8]
   153f0: 5d 86 f2 ff 00 00 00 00      	jne r6, r8, -0xe <entrypoint+0x14b60>
   153f8: 79 a6 98 fe 00 00 00 00      	ldxdw r6, [r10 - 0x168]
   15400: 79 66 18 00 00 00 00 00      	ldxdw r6, [r6 + 0x18]
   15408: 79 98 10 00 00 00 00 00      	ldxdw r8, [r9 + 0x10]
   15410: 5d 68 ee ff 00 00 00 00      	jne r8, r6, -0x12 <entrypoint+0x14b60>
   15418: 79 a6 98 fe 00 00 00 00      	ldxdw r6, [r10 - 0x168]
   15420: 79 66 20 00 00 00 00 00      	ldxdw r6, [r6 + 0x20]
   15428: 79 98 18 00 00 00 00 00      	ldxdw r8, [r9 + 0x18]
   15430: 5d 68 ea ff 00 00 00 00      	jne r8, r6, -0x16 <entrypoint+0x14b60>
   15438: 25 02 8c 02 0a 00 00 00      	jgt r2, 0xa, +0x28c <entrypoint+0x16078>
   15440: bf a8 00 00 00 00 00 00      	mov64 r8, r10
   15448: 07 08 00 00 a8 fe ff ff      	add64 r8, -0x158
   15450: 0f 28 00 00 00 00 00 00      	add64 r8, r2
   15458: 71 86 00 00 00 00 00 00      	ldxb r6, [r8 + 0x0]
   15460: 55 06 e4 ff 00 00 00 00      	jne r6, 0x0, -0x1c <entrypoint+0x14b60>
   15468: 79 a6 98 fe 00 00 00 00      	ldxdw r6, [r10 - 0x168]
   15470: 71 66 01 00 00 00 00 00      	ldxb r6, [r6 + 0x1]
   15478: 15 06 9a fe 00 00 00 00      	jeq r6, 0x0, -0x166 <entrypoint+0x14128>
   15480: 72 08 00 00 01 00 00 00      	stb [r8 + 0x0], 0x1
   15488: 79 a6 80 fe 00 00 00 00      	ldxdw r6, [r10 - 0x180]
   15490: 07 06 00 00 01 00 00 00      	add64 r6, 0x1
   15498: 7b 6a 80 fe 00 00 00 00      	stxdw [r10 - 0x180], r6
   154a0: 05 00 dc ff 00 00 00 00      	ja -0x24 <entrypoint+0x14b60>
   154a8: b7 01 00 00 01 00 00 00      	mov64 r1, 0x1
   154b0: 79 a2 88 fe 00 00 00 00      	ldxdw r2, [r10 - 0x178]
   154b8: 79 a0 90 fe 00 00 00 00      	ldxdw r0, [r10 - 0x170]
   154c0: 5d 20 c5 ff 00 00 00 00      	jne r0, r2, -0x3b <entrypoint+0x14ac8>
   154c8: b7 01 00 00 00 00 00 00      	mov64 r1, 0x0
   154d0: 05 00 c3 ff 00 00 00 00      	ja -0x3d <entrypoint+0x14ac8>
   154d8: 71 71 5a 00 00 00 00 00      	ldxb r1, [r7 + 0x5a]
   154e0: 55 01 23 fe 01 00 00 00      	jne r1, 0x1, -0x1dd <entrypoint+0x13dd8>
   154e8: bf 21 00 00 00 00 00 00      	mov64 r1, r2
   154f0: 67 01 00 00 03 00 00 00      	lsh64 r1, 0x3
   154f8: b7 02 00 00 00 00 00 00      	mov64 r2, 0x0
   15500: 7b 2a 80 fe 00 00 00 00      	stxdw [r10 - 0x180], r2
   15508: b7 09 00 00 01 00 00 00      	mov64 r9, 0x1
   15510: bf 12 00 00 00 00 00 00      	mov64 r2, r1
   15518: 55 01 01 00 18 00 00 00      	jne r1, 0x18, +0x1 <entrypoint+0x14d00>
   15520: b7 09 00 00 00 00 00 00      	mov64 r9, 0x0
   15528: 62 0a af fe 00 00 00 00      	stw [r10 - 0x151], 0x0
   15530: 7a 0a a8 fe 00 00 00 00      	stdw [r10 - 0x158], 0x0
   15538: 15 02 5d 02 18 00 00 00      	jeq r2, 0x18, +0x25d <entrypoint+0x16000>
   15540: 71 71 59 00 00 00 00 00      	ldxb r1, [r7 + 0x59]
   15548: b7 05 00 00 01 00 00 00      	mov64 r5, 0x1
   15550: 55 01 01 00 00 00 00 00      	jne r1, 0x0, +0x1 <entrypoint+0x14d38>
   15558: b7 05 00 00 00 00 00 00      	mov64 r5, 0x0
   15560: 25 01 63 02 0b 00 00 00      	jgt r1, 0xb, +0x263 <entrypoint+0x16058>
   15568: 15 01 55 02 00 00 00 00      	jeq r1, 0x0, +0x255 <entrypoint+0x15ff0>
   15570: 67 09 00 00 03 00 00 00      	lsh64 r9, 0x3
   15578: bf 80 00 00 00 00 00 00      	mov64 r0, r8
   15580: 0f 90 00 00 00 00 00 00      	add64 r0, r9
   15588: bf 69 00 00 00 00 00 00      	mov64 r9, r6
   15590: 0f 29 00 00 00 00 00 00      	add64 r9, r2
   15598: 7b 9a 78 fe 00 00 00 00      	stxdw [r10 - 0x188], r9
   155a0: 67 01 00 00 05 00 00 00      	lsh64 r1, 0x5
   155a8: 67 05 00 00 05 00 00 00      	lsh64 r5, 0x5
   155b0: bf 72 00 00 00 00 00 00      	mov64 r2, r7
   155b8: 07 02 00 00 5b 00 00 00      	add64 r2, 0x5b
   155c0: 7b 2a 68 fe 00 00 00 00      	stxdw [r10 - 0x198], r2
   155c8: 0f 52 00 00 00 00 00 00      	add64 r2, r5
   155d0: 7b 2a 60 fe 00 00 00 00      	stxdw [r10 - 0x1a0], r2
   155d8: 1f 15 00 00 00 00 00 00      	sub64 r5, r1
   155e0: 7b 5a 70 fe 00 00 00 00      	stxdw [r10 - 0x190], r5
   155e8: b7 01 00 00 00 00 00 00      	mov64 r1, 0x0
   155f0: 7b 1a 80 fe 00 00 00 00      	stxdw [r10 - 0x180], r1
   155f8: 05 00 05 00 00 00 00 00      	ja +0x5 <entrypoint+0x14e00>
   15600: 67 01 00 00 03 00 00 00      	lsh64 r1, 0x3
   15608: bf 80 00 00 00 00 00 00      	mov64 r0, r8
   15610: 0f 10 00 00 00 00 00 00      	add64 r0, r1
   15618: 79 a1 78 fe 00 00 00 00      	ldxdw r1, [r10 - 0x188]
   15620: 1d 18 40 02 00 00 00 00      	jeq r8, r1, +0x240 <entrypoint+0x16000>
   15628: bf 81 00 00 00 00 00 00      	mov64 r1, r8
   15630: bf 08 00 00 00 00 00 00      	mov64 r8, r0
   15638: 79 11 00 00 00 00 00 00      	ldxdw r1, [r1 + 0x0]
   15640: 7b 1a 88 fe 00 00 00 00      	stxdw [r10 - 0x178], r1
   15648: 79 11 08 00 00 00 00 00      	ldxdw r1, [r1 + 0x8]
   15650: 7b 1a 90 fe 00 00 00 00      	stxdw [r10 - 0x170], r1
   15658: 79 a0 70 fe 00 00 00 00      	ldxdw r0, [r10 - 0x190]
   15660: 79 a2 60 fe 00 00 00 00      	ldxdw r2, [r10 - 0x1a0]
   15668: b7 01 00 00 00 00 00 00      	mov64 r1, 0x0
   15670: 79 a5 68 fe 00 00 00 00      	ldxdw r5, [r10 - 0x198]
   15678: 7b 5a a0 fe 00 00 00 00      	stxdw [r10 - 0x160], r5
   15680: 05 00 09 00 00 00 00 00      	ja +0x9 <entrypoint+0x14ea8>
   15688: 72 02 00 00 01 00 00 00      	stb [r2 + 0x0], 0x1
   15690: 79 a2 80 fe 00 00 00 00      	ldxdw r2, [r10 - 0x180]
   15698: 07 02 00 00 01 00 00 00      	add64 r2, 0x1
   156a0: 7b 2a 80 fe 00 00 00 00      	stxdw [r10 - 0x180], r2
   156a8: 79 a2 a0 fe 00 00 00 00      	ldxdw r2, [r10 - 0x160]
   156b0: 07 02 00 00 20 00 00 00      	add64 r2, 0x20
   156b8: 07 01 00 00 01 00 00 00      	add64 r1, 0x1
   156c0: 07 00 00 00 20 00 00 00      	add64 r0, 0x20
   156c8: 15 00 1b 00 20 00 00 00      	jeq r0, 0x20, +0x1b <entrypoint+0x14f80>
   156d0: 79 a9 a0 fe 00 00 00 00      	ldxdw r9, [r10 - 0x160]
   156d8: 7b 2a a0 fe 00 00 00 00      	stxdw [r10 - 0x160], r2
   156e0: 79 92 00 00 00 00 00 00      	ldxdw r2, [r9 + 0x0]
   156e8: 79 a5 90 fe 00 00 00 00      	ldxdw r5, [r10 - 0x170]
   156f0: 5d 52 f6 ff 00 00 00 00      	jne r2, r5, -0xa <entrypoint+0x14e80>
   156f8: 79 a2 88 fe 00 00 00 00      	ldxdw r2, [r10 - 0x178]
   15700: 79 22 10 00 00 00 00 00      	ldxdw r2, [r2 + 0x10]
   15708: 79 95 08 00 00 00 00 00      	ldxdw r5, [r9 + 0x8]
   15710: 5d 25 f2 ff 00 00 00 00      	jne r5, r2, -0xe <entrypoint+0x14e80>
   15718: 79 a2 88 fe 00 00 00 00      	ldxdw r2, [r10 - 0x178]
   15720: 79 22 18 00 00 00 00 00      	ldxdw r2, [r2 + 0x18]
   15728: 79 95 10 00 00 00 00 00      	ldxdw r5, [r9 + 0x10]
   15730: 5d 25 ee ff 00 00 00 00      	jne r5, r2, -0x12 <entrypoint+0x14e80>
   15738: 79 a2 88 fe 00 00 00 00      	ldxdw r2, [r10 - 0x178]
   15740: 79 22 20 00 00 00 00 00      	ldxdw r2, [r2 + 0x20]
   15748: 79 95 18 00 00 00 00 00      	ldxdw r5, [r9 + 0x18]
   15750: 5d 25 ea ff 00 00 00 00      	jne r5, r2, -0x16 <entrypoint+0x14e80>
   15758: 25 01 29 02 0a 00 00 00      	jgt r1, 0xa, +0x229 <entrypoint+0x16080>
   15760: bf a2 00 00 00 00 00 00      	mov64 r2, r10
   15768: 07 02 00 00 a8 fe ff ff      	add64 r2, -0x158
   15770: 0f 12 00 00 00 00 00 00      	add64 r2, r1
   15778: 71 25 00 00 00 00 00 00      	ldxb r5, [r2 + 0x0]
   15780: 55 05 e4 ff 00 00 00 00      	jne r5, 0x0, -0x1c <entrypoint+0x14e80>
   15788: 79 a5 88 fe 00 00 00 00      	ldxdw r5, [r10 - 0x178]
   15790: 71 55 01 00 00 00 00 00      	ldxb r5, [r5 + 0x1]
   15798: 55 05 dd ff 00 00 00 00      	jne r5, 0x0, -0x23 <entrypoint+0x14e60>
   157a0: 05 00 10 fa 00 00 00 00      	ja -0x5f0 <entrypoint+0x12000>
   157a8: b7 01 00 00 01 00 00 00      	mov64 r1, 0x1
   157b0: 79 a2 78 fe 00 00 00 00      	ldxdw r2, [r10 - 0x188]
   157b8: 5d 28 c8 ff 00 00 00 00      	jne r8, r2, -0x38 <entrypoint+0x14dd8>
   157c0: b7 01 00 00 00 00 00 00      	mov64 r1, 0x0
   157c8: 05 00 c6 ff 00 00 00 00      	ja -0x3a <entrypoint+0x14dd8>
   157d0: 71 41 5a 00 00 00 00 00      	ldxb r1, [r4 + 0x5a]
   157d8: 55 01 c4 fd 01 00 00 00      	jne r1, 0x1, -0x23c <entrypoint+0x13dd8>
   157e0: b7 01 00 00 00 00 00 00      	mov64 r1, 0x0
   157e8: 7b 1a 90 fe 00 00 00 00      	stxdw [r10 - 0x170], r1
   157f0: 67 02 00 00 03 00 00 00      	lsh64 r2, 0x3
   157f8: 62 0a af fe 00 00 00 00      	stw [r10 - 0x151], 0x0
   15800: 7a 0a a8 fe 00 00 00 00      	stdw [r10 - 0x158], 0x0
   15808: bf 21 00 00 00 00 00 00      	mov64 r1, r2
   15810: 55 02 5e 01 18 00 00 00      	jne r2, 0x18, +0x15e <entrypoint+0x15ae0>
   15818: 71 41 58 00 00 00 00 00      	ldxb r1, [r4 + 0x58]
   15820: 79 a2 90 fe 00 00 00 00      	ldxdw r2, [r10 - 0x170]
   15828: 57 02 00 00 ff 00 00 00      	and64 r2, 0xff
   15830: 3d 12 3c fc 00 00 00 00      	jge r2, r1, -0x3c4 <entrypoint+0x131f0>
   15838: 05 00 fd f9 00 00 00 00      	ja -0x603 <entrypoint+0x12000>
   15840: 71 41 5a 00 00 00 00 00      	ldxb r1, [r4 + 0x5a]
   15848: 55 01 b6 fd 01 00 00 00      	jne r1, 0x1, -0x24a <entrypoint+0x13dd8>
   15850: b7 01 00 00 00 00 00 00      	mov64 r1, 0x0
   15858: 7b 1a 90 fe 00 00 00 00      	stxdw [r10 - 0x170], r1
   15860: 67 02 00 00 03 00 00 00      	lsh64 r2, 0x3
   15868: 62 0a af fe 00 00 00 00      	stw [r10 - 0x151], 0x0
   15870: 7a 0a a8 fe 00 00 00 00      	stdw [r10 - 0x158], 0x0
   15878: bf 21 00 00 00 00 00 00      	mov64 r1, r2
   15880: 55 02 a1 01 18 00 00 00      	jne r2, 0x18, +0x1a1 <entrypoint+0x15d68>
   15888: 71 41 58 00 00 00 00 00      	ldxb r1, [r4 + 0x58]
   15890: 79 a2 90 fe 00 00 00 00      	ldxdw r2, [r10 - 0x170]
   15898: 57 02 00 00 ff 00 00 00      	and64 r2, 0xff
   158a0: 3d 12 3f fc 00 00 00 00      	jge r2, r1, -0x3c1 <entrypoint+0x13278>
   158a8: 05 00 ef f9 00 00 00 00      	ja -0x611 <entrypoint+0x12000>
   158b0: 71 72 59 00 00 00 00 00      	ldxb r2, [r7 + 0x59]
   158b8: b7 03 00 00 01 00 00 00      	mov64 r3, 0x1
   158c0: 7b 2a 80 fe 00 00 00 00      	stxdw [r10 - 0x180], r2
   158c8: 55 02 01 00 00 00 00 00      	jne r2, 0x0, +0x1 <entrypoint+0x150b0>
   158d0: b7 03 00 00 00 00 00 00      	mov64 r3, 0x0
   158d8: 79 a2 80 fe 00 00 00 00      	ldxdw r2, [r10 - 0x180]
   158e0: 25 02 01 02 0b 00 00 00      	jgt r2, 0xb, +0x201 <entrypoint+0x160c8>
   158e8: bf 62 00 00 00 00 00 00      	mov64 r2, r6
   158f0: 0f 12 00 00 00 00 00 00      	add64 r2, r1
   158f8: 7b 2a 90 fe 00 00 00 00      	stxdw [r10 - 0x170], r2
   15900: 79 a1 80 fe 00 00 00 00      	ldxdw r1, [r10 - 0x180]
   15908: 67 01 00 00 05 00 00 00      	lsh64 r1, 0x5
   15910: 67 03 00 00 05 00 00 00      	lsh64 r3, 0x5
   15918: bf 72 00 00 00 00 00 00      	mov64 r2, r7
   15920: 07 02 00 00 5b 00 00 00      	add64 r2, 0x5b
   15928: 7b 2a 70 fe 00 00 00 00      	stxdw [r10 - 0x190], r2
   15930: 0f 32 00 00 00 00 00 00      	add64 r2, r3
   15938: 7b 2a 68 fe 00 00 00 00      	stxdw [r10 - 0x198], r2
   15940: 1f 13 00 00 00 00 00 00      	sub64 r3, r1
   15948: 7b 3a 78 fe 00 00 00 00      	stxdw [r10 - 0x188], r3
   15950: b7 01 00 00 00 00 00 00      	mov64 r1, 0x0
   15958: 7b 1a 88 fe 00 00 00 00      	stxdw [r10 - 0x178], r1
   15960: 07 06 00 00 18 00 00 00      	add64 r6, 0x18
   15968: 05 00 05 00 00 00 00 00      	ja +0x5 <entrypoint+0x15170>
   15970: 67 01 00 00 03 00 00 00      	lsh64 r1, 0x3
   15978: bf 56 00 00 00 00 00 00      	mov64 r6, r5
   15980: 0f 16 00 00 00 00 00 00      	add64 r6, r1
   15988: 79 a2 90 fe 00 00 00 00      	ldxdw r2, [r10 - 0x170]
   15990: 1d 25 d6 fe 00 00 00 00      	jeq r5, r2, -0x12a <entrypoint+0x14820>
   15998: bf 53 00 00 00 00 00 00      	mov64 r3, r5
   159a0: bf 65 00 00 00 00 00 00      	mov64 r5, r6
   159a8: 79 a1 80 fe 00 00 00 00      	ldxdw r1, [r10 - 0x180]
   159b0: 15 01 2b 00 00 00 00 00      	jeq r1, 0x0, +0x2b <entrypoint+0x152e8>
   159b8: b7 02 00 00 00 00 00 00      	mov64 r2, 0x0
   159c0: 79 31 00 00 00 00 00 00      	ldxdw r1, [r3 + 0x0]
   159c8: 7b 1a a0 fe 00 00 00 00      	stxdw [r10 - 0x160], r1
   159d0: 79 19 08 00 00 00 00 00      	ldxdw r9, [r1 + 0x8]
   159d8: 79 a6 68 fe 00 00 00 00      	ldxdw r6, [r10 - 0x198]
   159e0: 79 a0 78 fe 00 00 00 00      	ldxdw r0, [r10 - 0x188]
   159e8: 79 a8 70 fe 00 00 00 00      	ldxdw r8, [r10 - 0x190]
   159f0: 05 00 05 00 00 00 00 00      	ja +0x5 <entrypoint+0x151f8>
   159f8: bf 86 00 00 00 00 00 00      	mov64 r6, r8
   15a00: 07 06 00 00 20 00 00 00      	add64 r6, 0x20
   15a08: 07 02 00 00 01 00 00 00      	add64 r2, 0x1
   15a10: 07 00 00 00 20 00 00 00      	add64 r0, 0x20
   15a18: 15 00 1e 00 20 00 00 00      	jeq r0, 0x20, +0x1e <entrypoint+0x152e8>
   15a20: bf 81 00 00 00 00 00 00      	mov64 r1, r8
   15a28: bf 68 00 00 00 00 00 00      	mov64 r8, r6
   15a30: 79 16 00 00 00 00 00 00      	ldxdw r6, [r1 + 0x0]
   15a38: 5d 96 f7 ff 00 00 00 00      	jne r6, r9, -0x9 <entrypoint+0x151d0>
   15a40: 79 a3 a0 fe 00 00 00 00      	ldxdw r3, [r10 - 0x160]
   15a48: 79 36 10 00 00 00 00 00      	ldxdw r6, [r3 + 0x10]
   15a50: 79 13 08 00 00 00 00 00      	ldxdw r3, [r1 + 0x8]
   15a58: 5d 63 f3 ff 00 00 00 00      	jne r3, r6, -0xd <entrypoint+0x151d0>
   15a60: 79 a3 a0 fe 00 00 00 00      	ldxdw r3, [r10 - 0x160]
   15a68: 79 33 18 00 00 00 00 00      	ldxdw r3, [r3 + 0x18]
   15a70: 79 16 10 00 00 00 00 00      	ldxdw r6, [r1 + 0x10]
   15a78: 5d 36 ef ff 00 00 00 00      	jne r6, r3, -0x11 <entrypoint+0x151d0>
   15a80: 79 a3 a0 fe 00 00 00 00      	ldxdw r3, [r10 - 0x160]
   15a88: 79 33 20 00 00 00 00 00      	ldxdw r3, [r3 + 0x20]
   15a90: 79 11 18 00 00 00 00 00      	ldxdw r1, [r1 + 0x18]
   15a98: 5d 31 eb ff 00 00 00 00      	jne r1, r3, -0x15 <entrypoint+0x151d0>
   15aa0: 25 02 bf 01 0a 00 00 00      	jgt r2, 0xa, +0x1bf <entrypoint+0x16078>
   15aa8: bf a1 00 00 00 00 00 00      	mov64 r1, r10
   15ab0: 07 01 00 00 a8 fe ff ff      	add64 r1, -0x158
   15ab8: 0f 21 00 00 00 00 00 00      	add64 r1, r2
   15ac0: 71 13 00 00 00 00 00 00      	ldxb r3, [r1 + 0x0]
   15ac8: 55 03 e5 ff 00 00 00 00      	jne r3, 0x0, -0x1b <entrypoint+0x151d0>
   15ad0: 79 a3 a0 fe 00 00 00 00      	ldxdw r3, [r10 - 0x160]
   15ad8: 71 33 01 00 00 00 00 00      	ldxb r3, [r3 + 0x1]
   15ae0: 15 03 a8 f9 00 00 00 00      	jeq r3, 0x0, -0x658 <entrypoint+0x12000>
   15ae8: 72 01 00 00 01 00 00 00      	stb [r1 + 0x0], 0x1
   15af0: 79 a1 88 fe 00 00 00 00      	ldxdw r1, [r10 - 0x178]
   15af8: 07 01 00 00 01 00 00 00      	add64 r1, 0x1
   15b00: 7b 1a 88 fe 00 00 00 00      	stxdw [r10 - 0x178], r1
   15b08: 05 00 dd ff 00 00 00 00      	ja -0x23 <entrypoint+0x151d0>
   15b10: b7 01 00 00 01 00 00 00      	mov64 r1, 0x1
   15b18: 79 a2 90 fe 00 00 00 00      	ldxdw r2, [r10 - 0x170]
   15b20: 5d 25 c9 ff 00 00 00 00      	jne r5, r2, -0x37 <entrypoint+0x15148>
   15b28: b7 01 00 00 00 00 00 00      	mov64 r1, 0x0
   15b30: 05 00 c7 ff 00 00 00 00      	ja -0x39 <entrypoint+0x15148>
   15b38: 79 a2 90 fe 00 00 00 00      	ldxdw r2, [r10 - 0x170]
   15b40: 71 23 59 00 00 00 00 00      	ldxb r3, [r2 + 0x59]
   15b48: b7 02 00 00 01 00 00 00      	mov64 r2, 0x1
   15b50: 7b 3a 70 fe 00 00 00 00      	stxdw [r10 - 0x190], r3
   15b58: 55 03 01 00 00 00 00 00      	jne r3, 0x0, +0x1 <entrypoint+0x15340>
   15b60: b7 02 00 00 00 00 00 00      	mov64 r2, 0x0
   15b68: 79 a3 70 fe 00 00 00 00      	ldxdw r3, [r10 - 0x190]
   15b70: 25 03 aa 01 0b 00 00 00      	jgt r3, 0xb, +0x1aa <entrypoint+0x160a0>
   15b78: bf 63 00 00 00 00 00 00      	mov64 r3, r6
   15b80: 0f 13 00 00 00 00 00 00      	add64 r3, r1
   15b88: 7b 3a 80 fe 00 00 00 00      	stxdw [r10 - 0x180], r3
   15b90: 79 a1 70 fe 00 00 00 00      	ldxdw r1, [r10 - 0x190]
   15b98: 67 01 00 00 05 00 00 00      	lsh64 r1, 0x5
   15ba0: 67 02 00 00 05 00 00 00      	lsh64 r2, 0x5
   15ba8: 79 a3 90 fe 00 00 00 00      	ldxdw r3, [r10 - 0x170]
   15bb0: 07 03 00 00 5b 00 00 00      	add64 r3, 0x5b
   15bb8: 7b 3a 60 fe 00 00 00 00      	stxdw [r10 - 0x1a0], r3
   15bc0: 0f 23 00 00 00 00 00 00      	add64 r3, r2
   15bc8: 7b 3a 58 fe 00 00 00 00      	stxdw [r10 - 0x1a8], r3
   15bd0: 1f 12 00 00 00 00 00 00      	sub64 r2, r1
   15bd8: 7b 2a 68 fe 00 00 00 00      	stxdw [r10 - 0x198], r2
   15be0: b7 01 00 00 00 00 00 00      	mov64 r1, 0x0
   15be8: 7b 1a 78 fe 00 00 00 00      	stxdw [r10 - 0x188], r1
   15bf0: 07 06 00 00 18 00 00 00      	add64 r6, 0x18
   15bf8: 05 00 05 00 00 00 00 00      	ja +0x5 <entrypoint+0x15400>
   15c00: 67 01 00 00 03 00 00 00      	lsh64 r1, 0x3
   15c08: bf 56 00 00 00 00 00 00      	mov64 r6, r5
   15c10: 0f 16 00 00 00 00 00 00      	add64 r6, r1
   15c18: 79 a2 80 fe 00 00 00 00      	ldxdw r2, [r10 - 0x180]
   15c20: 1d 25 97 fe 00 00 00 00      	jeq r5, r2, -0x169 <entrypoint+0x148b8>
   15c28: bf 53 00 00 00 00 00 00      	mov64 r3, r5
   15c30: bf 65 00 00 00 00 00 00      	mov64 r5, r6
   15c38: 79 a1 70 fe 00 00 00 00      	ldxdw r1, [r10 - 0x190]
   15c40: 15 01 27 00 00 00 00 00      	jeq r1, 0x0, +0x27 <entrypoint+0x15558>
   15c48: b7 02 00 00 00 00 00 00      	mov64 r2, 0x0
   15c50: 79 31 00 00 00 00 00 00      	ldxdw r1, [r3 + 0x0]
   15c58: bf 18 00 00 00 00 00 00      	mov64 r8, r1
   15c60: 79 10 08 00 00 00 00 00      	ldxdw r0, [r1 + 0x8]
   15c68: 79 a1 58 fe 00 00 00 00      	ldxdw r1, [r10 - 0x1a8]
   15c70: 79 a6 68 fe 00 00 00 00      	ldxdw r6, [r10 - 0x198]
   15c78: 79 a3 60 fe 00 00 00 00      	ldxdw r3, [r10 - 0x1a0]
   15c80: 05 00 09 00 00 00 00 00      	ja +0x9 <entrypoint+0x154a8>
   15c88: 72 01 00 00 01 00 00 00      	stb [r1 + 0x0], 0x1
   15c90: 79 a1 78 fe 00 00 00 00      	ldxdw r1, [r10 - 0x188]
   15c98: 07 01 00 00 01 00 00 00      	add64 r1, 0x1
   15ca0: 7b 1a 78 fe 00 00 00 00      	stxdw [r10 - 0x188], r1
   15ca8: bf 31 00 00 00 00 00 00      	mov64 r1, r3
   15cb0: 07 01 00 00 20 00 00 00      	add64 r1, 0x20
   15cb8: 07 02 00 00 01 00 00 00      	add64 r2, 0x1
   15cc0: 07 06 00 00 20 00 00 00      	add64 r6, 0x20
   15cc8: 15 06 16 00 20 00 00 00      	jeq r6, 0x20, +0x16 <entrypoint+0x15558>
   15cd0: bf 39 00 00 00 00 00 00      	mov64 r9, r3
   15cd8: bf 13 00 00 00 00 00 00      	mov64 r3, r1
   15ce0: 79 91 00 00 00 00 00 00      	ldxdw r1, [r9 + 0x0]
   15ce8: 5d 01 f7 ff 00 00 00 00      	jne r1, r0, -0x9 <entrypoint+0x15480>
   15cf0: 79 81 10 00 00 00 00 00      	ldxdw r1, [r8 + 0x10]
   15cf8: 79 97 08 00 00 00 00 00      	ldxdw r7, [r9 + 0x8]
   15d00: 5d 17 f4 ff 00 00 00 00      	jne r7, r1, -0xc <entrypoint+0x15480>
   15d08: 79 81 18 00 00 00 00 00      	ldxdw r1, [r8 + 0x18]
   15d10: 79 97 10 00 00 00 00 00      	ldxdw r7, [r9 + 0x10]
   15d18: 5d 17 f1 ff 00 00 00 00      	jne r7, r1, -0xf <entrypoint+0x15480>
   15d20: 79 81 20 00 00 00 00 00      	ldxdw r1, [r8 + 0x20]
   15d28: 79 97 18 00 00 00 00 00      	ldxdw r7, [r9 + 0x18]
   15d30: 5d 17 ee ff 00 00 00 00      	jne r7, r1, -0x12 <entrypoint+0x15480>
   15d38: 25 02 6c 01 0a 00 00 00      	jgt r2, 0xa, +0x16c <entrypoint+0x16078>
   15d40: bf a1 00 00 00 00 00 00      	mov64 r1, r10
   15d48: 07 01 00 00 a8 fe ff ff      	add64 r1, -0x158
   15d50: 0f 21 00 00 00 00 00 00      	add64 r1, r2
   15d58: 71 17 00 00 00 00 00 00      	ldxb r7, [r1 + 0x0]
   15d60: 55 07 e8 ff 00 00 00 00      	jne r7, 0x0, -0x18 <entrypoint+0x15480>
   15d68: 71 87 01 00 00 00 00 00      	ldxb r7, [r8 + 0x1]
   15d70: 55 07 e2 ff 00 00 00 00      	jne r7, 0x0, -0x1e <entrypoint+0x15460>
   15d78: 05 00 55 f9 00 00 00 00      	ja -0x6ab <entrypoint+0x12000>
   15d80: b7 01 00 00 01 00 00 00      	mov64 r1, 0x1
   15d88: 79 a2 80 fe 00 00 00 00      	ldxdw r2, [r10 - 0x180]
   15d90: 5d 25 cd ff 00 00 00 00      	jne r5, r2, -0x33 <entrypoint+0x153d8>
   15d98: b7 01 00 00 00 00 00 00      	mov64 r1, 0x0
   15da0: 05 00 cb ff 00 00 00 00      	ja -0x35 <entrypoint+0x153d8>
   15da8: 71 60 59 00 00 00 00 00      	ldxb r0, [r6 + 0x59]
   15db0: b7 07 00 00 01 00 00 00      	mov64 r7, 0x1
   15db8: 7b 0a 70 fe 00 00 00 00      	stxdw [r10 - 0x190], r0
   15dc0: 55 00 01 00 00 00 00 00      	jne r0, 0x0, +0x1 <entrypoint+0x155a8>
   15dc8: b7 07 00 00 00 00 00 00      	mov64 r7, 0x0
   15dd0: 79 a0 70 fe 00 00 00 00      	ldxdw r0, [r10 - 0x190]
   15dd8: 25 00 5d 01 0b 00 00 00      	jgt r0, 0xb, +0x15d <entrypoint+0x160a0>
   15de0: bf 20 00 00 00 00 00 00      	mov64 r0, r2
   15de8: 0f 10 00 00 00 00 00 00      	add64 r0, r1
   15df0: 7b 0a 80 fe 00 00 00 00      	stxdw [r10 - 0x180], r0
   15df8: 79 a1 70 fe 00 00 00 00      	ldxdw r1, [r10 - 0x190]
   15e00: 67 01 00 00 05 00 00 00      	lsh64 r1, 0x5
   15e08: 67 07 00 00 05 00 00 00      	lsh64 r7, 0x5
   15e10: bf 60 00 00 00 00 00 00      	mov64 r0, r6
   15e18: 07 00 00 00 5b 00 00 00      	add64 r0, 0x5b
   15e20: 7b 0a 60 fe 00 00 00 00      	stxdw [r10 - 0x1a0], r0
   15e28: 0f 70 00 00 00 00 00 00      	add64 r0, r7
   15e30: 7b 0a 58 fe 00 00 00 00      	stxdw [r10 - 0x1a8], r0
   15e38: 1f 17 00 00 00 00 00 00      	sub64 r7, r1
   15e40: 7b 7a 68 fe 00 00 00 00      	stxdw [r10 - 0x198], r7
   15e48: b7 01 00 00 00 00 00 00      	mov64 r1, 0x0
   15e50: 7b 1a 78 fe 00 00 00 00      	stxdw [r10 - 0x188], r1
   15e58: 07 02 00 00 18 00 00 00      	add64 r2, 0x18
   15e60: bf 21 00 00 00 00 00 00      	mov64 r1, r2
   15e68: 05 00 06 00 00 00 00 00      	ja +0x6 <entrypoint+0x15678>
   15e70: 67 01 00 00 03 00 00 00      	lsh64 r1, 0x3
   15e78: bf 52 00 00 00 00 00 00      	mov64 r2, r5
   15e80: 0f 12 00 00 00 00 00 00      	add64 r2, r1
   15e88: bf 21 00 00 00 00 00 00      	mov64 r1, r2
   15e90: 79 a2 80 fe 00 00 00 00      	ldxdw r2, [r10 - 0x180]
   15e98: 1d 25 5c fe 00 00 00 00      	jeq r5, r2, -0x1a4 <entrypoint+0x14958>
   15ea0: bf 50 00 00 00 00 00 00      	mov64 r0, r5
   15ea8: bf 15 00 00 00 00 00 00      	mov64 r5, r1
   15eb0: 79 a1 70 fe 00 00 00 00      	ldxdw r1, [r10 - 0x190]
   15eb8: 15 01 2d 00 00 00 00 00      	jeq r1, 0x0, +0x2d <entrypoint+0x15800>
   15ec0: b7 02 00 00 00 00 00 00      	mov64 r2, 0x0
   15ec8: 79 01 00 00 00 00 00 00      	ldxdw r1, [r0 + 0x0]
   15ed0: 7b 1a 88 fe 00 00 00 00      	stxdw [r10 - 0x178], r1
   15ed8: 79 11 08 00 00 00 00 00      	ldxdw r1, [r1 + 0x8]
   15ee0: 7b 1a 90 fe 00 00 00 00      	stxdw [r10 - 0x170], r1
   15ee8: 79 a9 58 fe 00 00 00 00      	ldxdw r9, [r10 - 0x1a8]
   15ef0: 79 a1 68 fe 00 00 00 00      	ldxdw r1, [r10 - 0x198]
   15ef8: 79 a8 60 fe 00 00 00 00      	ldxdw r8, [r10 - 0x1a0]
   15f00: 05 00 09 00 00 00 00 00      	ja +0x9 <entrypoint+0x15728>
   15f08: 72 00 00 00 01 00 00 00      	stb [r0 + 0x0], 0x1
   15f10: 79 a0 78 fe 00 00 00 00      	ldxdw r0, [r10 - 0x188]
   15f18: 07 00 00 00 01 00 00 00      	add64 r0, 0x1
   15f20: 7b 0a 78 fe 00 00 00 00      	stxdw [r10 - 0x188], r0
   15f28: bf 89 00 00 00 00 00 00      	mov64 r9, r8
   15f30: 07 09 00 00 20 00 00 00      	add64 r9, 0x20
   15f38: 07 02 00 00 01 00 00 00      	add64 r2, 0x1
   15f40: 07 01 00 00 20 00 00 00      	add64 r1, 0x20
   15f48: 15 01 1b 00 20 00 00 00      	jeq r1, 0x20, +0x1b <entrypoint+0x15800>
   15f50: bf 80 00 00 00 00 00 00      	mov64 r0, r8
   15f58: bf 98 00 00 00 00 00 00      	mov64 r8, r9
   15f60: 79 07 00 00 00 00 00 00      	ldxdw r7, [r0 + 0x0]
   15f68: 79 a9 90 fe 00 00 00 00      	ldxdw r9, [r10 - 0x170]
   15f70: 5d 97 f6 ff 00 00 00 00      	jne r7, r9, -0xa <entrypoint+0x15700>
   15f78: 79 a7 88 fe 00 00 00 00      	ldxdw r7, [r10 - 0x178]
   15f80: 79 77 10 00 00 00 00 00      	ldxdw r7, [r7 + 0x10]
   15f88: 79 09 08 00 00 00 00 00      	ldxdw r9, [r0 + 0x8]
   15f90: 5d 79 f2 ff 00 00 00 00      	jne r9, r7, -0xe <entrypoint+0x15700>
   15f98: 79 a7 88 fe 00 00 00 00      	ldxdw r7, [r10 - 0x178]
   15fa0: 79 77 18 00 00 00 00 00      	ldxdw r7, [r7 + 0x18]
   15fa8: 79 09 10 00 00 00 00 00      	ldxdw r9, [r0 + 0x10]
   15fb0: 5d 79 ee ff 00 00 00 00      	jne r9, r7, -0x12 <entrypoint+0x15700>
   15fb8: 79 a7 88 fe 00 00 00 00      	ldxdw r7, [r10 - 0x178]
   15fc0: 79 77 20 00 00 00 00 00      	ldxdw r7, [r7 + 0x20]
   15fc8: 79 00 18 00 00 00 00 00      	ldxdw r0, [r0 + 0x18]
   15fd0: 5d 70 ea ff 00 00 00 00      	jne r0, r7, -0x16 <entrypoint+0x15700>
   15fd8: 25 02 18 01 0a 00 00 00      	jgt r2, 0xa, +0x118 <entrypoint+0x16078>
   15fe0: bf a0 00 00 00 00 00 00      	mov64 r0, r10
   15fe8: 07 00 00 00 a8 fe ff ff      	add64 r0, -0x158
   15ff0: 0f 20 00 00 00 00 00 00      	add64 r0, r2
   15ff8: 71 07 00 00 00 00 00 00      	ldxb r7, [r0 + 0x0]
   16000: 55 07 e4 ff 00 00 00 00      	jne r7, 0x0, -0x1c <entrypoint+0x15700>
   16008: 79 a7 88 fe 00 00 00 00      	ldxdw r7, [r10 - 0x178]
   16010: 71 77 01 00 00 00 00 00      	ldxb r7, [r7 + 0x1]
   16018: 55 07 dd ff 00 00 00 00      	jne r7, 0x0, -0x23 <entrypoint+0x156e0>
   16020: 05 00 00 f9 00 00 00 00      	ja -0x700 <entrypoint+0x12000>
   16028: b7 01 00 00 01 00 00 00      	mov64 r1, 0x1
   16030: 79 a2 80 fe 00 00 00 00      	ldxdw r2, [r10 - 0x180]
   16038: 5d 25 c6 ff 00 00 00 00      	jne r5, r2, -0x3a <entrypoint+0x15648>
   16040: b7 01 00 00 00 00 00 00      	mov64 r1, 0x0
   16048: 05 00 c4 ff 00 00 00 00      	ja -0x3c <entrypoint+0x15648>
   16050: 71 60 59 00 00 00 00 00      	ldxb r0, [r6 + 0x59]
   16058: b7 07 00 00 01 00 00 00      	mov64 r7, 0x1
   16060: 7b 0a 70 fe 00 00 00 00      	stxdw [r10 - 0x190], r0
   16068: 55 00 01 00 00 00 00 00      	jne r0, 0x0, +0x1 <entrypoint+0x15850>
   16070: b7 07 00 00 00 00 00 00      	mov64 r7, 0x0
   16078: 79 a0 70 fe 00 00 00 00      	ldxdw r0, [r10 - 0x190]
   16080: 25 00 08 01 0b 00 00 00      	jgt r0, 0xb, +0x108 <entrypoint+0x160a0>
   16088: bf 20 00 00 00 00 00 00      	mov64 r0, r2
   16090: 0f 10 00 00 00 00 00 00      	add64 r0, r1
   16098: 7b 0a 80 fe 00 00 00 00      	stxdw [r10 - 0x180], r0
   160a0: 79 a1 70 fe 00 00 00 00      	ldxdw r1, [r10 - 0x190]
   160a8: 67 01 00 00 05 00 00 00      	lsh64 r1, 0x5
   160b0: 67 07 00 00 05 00 00 00      	lsh64 r7, 0x5
   160b8: bf 60 00 00 00 00 00 00      	mov64 r0, r6
   160c0: 07 00 00 00 5b 00 00 00      	add64 r0, 0x5b
   160c8: 7b 0a 60 fe 00 00 00 00      	stxdw [r10 - 0x1a0], r0
   160d0: 0f 70 00 00 00 00 00 00      	add64 r0, r7
   160d8: 7b 0a 58 fe 00 00 00 00      	stxdw [r10 - 0x1a8], r0
   160e0: 1f 17 00 00 00 00 00 00      	sub64 r7, r1
   160e8: 7b 7a 68 fe 00 00 00 00      	stxdw [r10 - 0x198], r7
   160f0: b7 01 00 00 00 00 00 00      	mov64 r1, 0x0
   160f8: 7b 1a 78 fe 00 00 00 00      	stxdw [r10 - 0x188], r1
   16100: 07 02 00 00 18 00 00 00      	add64 r2, 0x18
   16108: bf 21 00 00 00 00 00 00      	mov64 r1, r2
   16110: 05 00 06 00 00 00 00 00      	ja +0x6 <entrypoint+0x15920>
   16118: 67 01 00 00 03 00 00 00      	lsh64 r1, 0x3
   16120: bf 52 00 00 00 00 00 00      	mov64 r2, r5
   16128: 0f 12 00 00 00 00 00 00      	add64 r2, r1
   16130: bf 21 00 00 00 00 00 00      	mov64 r1, r2
   16138: 79 a2 80 fe 00 00 00 00      	ldxdw r2, [r10 - 0x180]
   16140: 1d 25 15 fe 00 00 00 00      	jeq r5, r2, -0x1eb <entrypoint+0x149c8>
   16148: bf 50 00 00 00 00 00 00      	mov64 r0, r5
   16150: bf 15 00 00 00 00 00 00      	mov64 r5, r1
   16158: 79 a1 70 fe 00 00 00 00      	ldxdw r1, [r10 - 0x190]
   16160: 15 01 2d 00 00 00 00 00      	jeq r1, 0x0, +0x2d <entrypoint+0x15aa8>
   16168: b7 02 00 00 00 00 00 00      	mov64 r2, 0x0
   16170: 79 01 00 00 00 00 00 00      	ldxdw r1, [r0 + 0x0]
   16178: 7b 1a 88 fe 00 00 00 00      	stxdw [r10 - 0x178], r1
   16180: 79 11 08 00 00 00 00 00      	ldxdw r1, [r1 + 0x8]
   16188: 7b 1a 90 fe 00 00 00 00      	stxdw [r10 - 0x170], r1
   16190: 79 a9 58 fe 00 00 00 00      	ldxdw r9, [r10 - 0x1a8]
   16198: 79 a1 68 fe 00 00 00 00      	ldxdw r1, [r10 - 0x198]
   161a0: 79 a8 60 fe 00 00 00 00      	ldxdw r8, [r10 - 0x1a0]
   161a8: 05 00 05 00 00 00 00 00      	ja +0x5 <entrypoint+0x159b0>
   161b0: bf 89 00 00 00 00 00 00      	mov64 r9, r8
   161b8: 07 09 00 00 20 00 00 00      	add64 r9, 0x20
   161c0: 07 02 00 00 01 00 00 00      	add64 r2, 0x1
   161c8: 07 01 00 00 20 00 00 00      	add64 r1, 0x20
   161d0: 15 01 1f 00 20 00 00 00      	jeq r1, 0x20, +0x1f <entrypoint+0x15aa8>
   161d8: bf 80 00 00 00 00 00 00      	mov64 r0, r8
   161e0: bf 98 00 00 00 00 00 00      	mov64 r8, r9
   161e8: 79 07 00 00 00 00 00 00      	ldxdw r7, [r0 + 0x0]
   161f0: 79 a9 90 fe 00 00 00 00      	ldxdw r9, [r10 - 0x170]
   161f8: 5d 97 f6 ff 00 00 00 00      	jne r7, r9, -0xa <entrypoint+0x15988>
   16200: 79 a7 88 fe 00 00 00 00      	ldxdw r7, [r10 - 0x178]
   16208: 79 77 10 00 00 00 00 00      	ldxdw r7, [r7 + 0x10]
   16210: 79 09 08 00 00 00 00 00      	ldxdw r9, [r0 + 0x8]
   16218: 5d 79 f2 ff 00 00 00 00      	jne r9, r7, -0xe <entrypoint+0x15988>
   16220: 79 a7 88 fe 00 00 00 00      	ldxdw r7, [r10 - 0x178]
   16228: 79 77 18 00 00 00 00 00      	ldxdw r7, [r7 + 0x18]
   16230: 79 09 10 00 00 00 00 00      	ldxdw r9, [r0 + 0x10]
   16238: 5d 79 ee ff 00 00 00 00      	jne r9, r7, -0x12 <entrypoint+0x15988>
   16240: 79 a7 88 fe 00 00 00 00      	ldxdw r7, [r10 - 0x178]
   16248: 79 77 20 00 00 00 00 00      	ldxdw r7, [r7 + 0x20]
   16250: 79 00 18 00 00 00 00 00      	ldxdw r0, [r0 + 0x18]
   16258: 5d 70 ea ff 00 00 00 00      	jne r0, r7, -0x16 <entrypoint+0x15988>
   16260: 25 02 c7 00 0a 00 00 00      	jgt r2, 0xa, +0xc7 <entrypoint+0x16078>
   16268: bf a0 00 00 00 00 00 00      	mov64 r0, r10
   16270: 07 00 00 00 a8 fe ff ff      	add64 r0, -0x158
   16278: 0f 20 00 00 00 00 00 00      	add64 r0, r2
   16280: 71 07 00 00 00 00 00 00      	ldxb r7, [r0 + 0x0]
   16288: 55 07 e4 ff 00 00 00 00      	jne r7, 0x0, -0x1c <entrypoint+0x15988>
   16290: 79 a7 88 fe 00 00 00 00      	ldxdw r7, [r10 - 0x178]
   16298: 71 77 01 00 00 00 00 00      	ldxb r7, [r7 + 0x1]
   162a0: 15 07 b0 f8 00 00 00 00      	jeq r7, 0x0, -0x750 <entrypoint+0x12000>
   162a8: 72 00 00 00 01 00 00 00      	stb [r0 + 0x0], 0x1
   162b0: 79 a0 78 fe 00 00 00 00      	ldxdw r0, [r10 - 0x188]
   162b8: 07 00 00 00 01 00 00 00      	add64 r0, 0x1
   162c0: 7b 0a 78 fe 00 00 00 00      	stxdw [r10 - 0x188], r0
   162c8: 05 00 dc ff 00 00 00 00      	ja -0x24 <entrypoint+0x15988>
   162d0: b7 01 00 00 01 00 00 00      	mov64 r1, 0x1
   162d8: 79 a2 80 fe 00 00 00 00      	ldxdw r2, [r10 - 0x180]
   162e0: 5d 25 c6 ff 00 00 00 00      	jne r5, r2, -0x3a <entrypoint+0x158f0>
   162e8: b7 01 00 00 00 00 00 00      	mov64 r1, 0x0
   162f0: 05 00 c4 ff 00 00 00 00      	ja -0x3c <entrypoint+0x158f0>
   162f8: b7 00 00 00 06 00 00 00      	mov64 r0, 0x6
   16300: 05 00 86 fa 00 00 00 00      	ja -0x57a <entrypoint+0x12f10>
   16308: 71 42 59 00 00 00 00 00      	ldxb r2, [r4 + 0x59]
   16310: b7 05 00 00 01 00 00 00      	mov64 r5, 0x1
   16318: 7b 2a 88 fe 00 00 00 00      	stxdw [r10 - 0x178], r2
   16320: 55 02 01 00 00 00 00 00      	jne r2, 0x0, +0x1 <entrypoint+0x15b08>
   16328: b7 05 00 00 00 00 00 00      	mov64 r5, 0x0
   16330: 79 a2 88 fe 00 00 00 00      	ldxdw r2, [r10 - 0x178]
   16338: 25 02 a7 00 0b 00 00 00      	jgt r2, 0xb, +0xa7 <entrypoint+0x16050>
   16340: bf 62 00 00 00 00 00 00      	mov64 r2, r6
   16348: 07 02 00 00 18 00 00 00      	add64 r2, 0x18
   16350: 7b 2a a0 fe 00 00 00 00      	stxdw [r10 - 0x160], r2
   16358: bf 62 00 00 00 00 00 00      	mov64 r2, r6
   16360: 0f 12 00 00 00 00 00 00      	add64 r2, r1
   16368: 7b 2a 98 fe 00 00 00 00      	stxdw [r10 - 0x168], r2
   16370: 79 a1 88 fe 00 00 00 00      	ldxdw r1, [r10 - 0x178]
   16378: 67 01 00 00 05 00 00 00      	lsh64 r1, 0x5
   16380: 67 05 00 00 05 00 00 00      	lsh64 r5, 0x5
   16388: bf 42 00 00 00 00 00 00      	mov64 r2, r4
   16390: 07 02 00 00 5b 00 00 00      	add64 r2, 0x5b
   16398: 7b 2a 78 fe 00 00 00 00      	stxdw [r10 - 0x188], r2
   163a0: 0f 52 00 00 00 00 00 00      	add64 r2, r5
   163a8: 7b 2a 70 fe 00 00 00 00      	stxdw [r10 - 0x190], r2
   163b0: 1f 15 00 00 00 00 00 00      	sub64 r5, r1
   163b8: 7b 5a 80 fe 00 00 00 00      	stxdw [r10 - 0x180], r5
   163c0: b7 01 00 00 00 00 00 00      	mov64 r1, 0x0
   163c8: 7b 1a 90 fe 00 00 00 00      	stxdw [r10 - 0x170], r1
   163d0: 07 06 00 00 20 00 00 00      	add64 r6, 0x20
   163d8: 05 00 06 00 00 00 00 00      	ja +0x6 <entrypoint+0x15be8>
   163e0: 67 01 00 00 03 00 00 00      	lsh64 r1, 0x3
   163e8: 79 a5 a0 fe 00 00 00 00      	ldxdw r5, [r10 - 0x160]
   163f0: bf 56 00 00 00 00 00 00      	mov64 r6, r5
   163f8: 0f 16 00 00 00 00 00 00      	add64 r6, r1
   16400: 79 a2 98 fe 00 00 00 00      	ldxdw r2, [r10 - 0x168]
   16408: 1d 25 81 fe 00 00 00 00      	jeq r5, r2, -0x17f <entrypoint+0x14ff0>
   16410: 79 a5 a0 fe 00 00 00 00      	ldxdw r5, [r10 - 0x160]
   16418: 7b 6a a0 fe 00 00 00 00      	stxdw [r10 - 0x160], r6
   16420: 79 a1 88 fe 00 00 00 00      	ldxdw r1, [r10 - 0x178]
   16428: 15 01 26 00 00 00 00 00      	jeq r1, 0x0, +0x26 <entrypoint+0x15d38>
   16430: b7 02 00 00 00 00 00 00      	mov64 r2, 0x0
   16438: 79 59 00 00 00 00 00 00      	ldxdw r9, [r5 + 0x0]
   16440: 79 98 08 00 00 00 00 00      	ldxdw r8, [r9 + 0x8]
   16448: 79 a0 70 fe 00 00 00 00      	ldxdw r0, [r10 - 0x190]
   16450: 79 a5 80 fe 00 00 00 00      	ldxdw r5, [r10 - 0x180]
   16458: 79 a6 78 fe 00 00 00 00      	ldxdw r6, [r10 - 0x188]
   16460: 05 00 09 00 00 00 00 00      	ja +0x9 <entrypoint+0x15c88>
   16468: 72 01 00 00 01 00 00 00      	stb [r1 + 0x0], 0x1
   16470: 79 a1 90 fe 00 00 00 00      	ldxdw r1, [r10 - 0x170]
   16478: 07 01 00 00 01 00 00 00      	add64 r1, 0x1
   16480: 7b 1a 90 fe 00 00 00 00      	stxdw [r10 - 0x170], r1
   16488: bf 60 00 00 00 00 00 00      	mov64 r0, r6
   16490: 07 00 00 00 20 00 00 00      	add64 r0, 0x20
   16498: 07 02 00 00 01 00 00 00      	add64 r2, 0x1
   164a0: 07 05 00 00 20 00 00 00      	add64 r5, 0x20
   164a8: 15 05 16 00 20 00 00 00      	jeq r5, 0x20, +0x16 <entrypoint+0x15d38>
   164b0: bf 61 00 00 00 00 00 00      	mov64 r1, r6
   164b8: bf 06 00 00 00 00 00 00      	mov64 r6, r0
   164c0: 79 10 00 00 00 00 00 00      	ldxdw r0, [r1 + 0x0]
   164c8: 5d 80 f7 ff 00 00 00 00      	jne r0, r8, -0x9 <entrypoint+0x15c60>
   164d0: 79 90 10 00 00 00 00 00      	ldxdw r0, [r9 + 0x10]
   164d8: 79 17 08 00 00 00 00 00      	ldxdw r7, [r1 + 0x8]
   164e0: 5d 07 f4 ff 00 00 00 00      	jne r7, r0, -0xc <entrypoint+0x15c60>
   164e8: 79 90 18 00 00 00 00 00      	ldxdw r0, [r9 + 0x18]
   164f0: 79 17 10 00 00 00 00 00      	ldxdw r7, [r1 + 0x10]
   164f8: 5d 07 f1 ff 00 00 00 00      	jne r7, r0, -0xf <entrypoint+0x15c60>
   16500: 79 90 20 00 00 00 00 00      	ldxdw r0, [r9 + 0x20]
   16508: 79 11 18 00 00 00 00 00      	ldxdw r1, [r1 + 0x18]
   16510: 5d 01 ee ff 00 00 00 00      	jne r1, r0, -0x12 <entrypoint+0x15c60>
   16518: 25 02 70 00 0a 00 00 00      	jgt r2, 0xa, +0x70 <entrypoint+0x16078>
   16520: bf a1 00 00 00 00 00 00      	mov64 r1, r10
   16528: 07 01 00 00 a8 fe ff ff      	add64 r1, -0x158
   16530: 0f 21 00 00 00 00 00 00      	add64 r1, r2
   16538: 71 10 00 00 00 00 00 00      	ldxb r0, [r1 + 0x0]
   16540: 55 00 e8 ff 00 00 00 00      	jne r0, 0x0, -0x18 <entrypoint+0x15c60>
   16548: 71 90 01 00 00 00 00 00      	ldxb r0, [r9 + 0x1]
   16550: 55 00 e2 ff 00 00 00 00      	jne r0, 0x0, -0x1e <entrypoint+0x15c40>
   16558: 05 00 59 f8 00 00 00 00      	ja -0x7a7 <entrypoint+0x12000>
   16560: b7 01 00 00 01 00 00 00      	mov64 r1, 0x1
   16568: 79 a2 98 fe 00 00 00 00      	ldxdw r2, [r10 - 0x168]
   16570: 79 a5 a0 fe 00 00 00 00      	ldxdw r5, [r10 - 0x160]
   16578: 5d 25 cc ff 00 00 00 00      	jne r5, r2, -0x34 <entrypoint+0x15bb8>
   16580: b7 01 00 00 00 00 00 00      	mov64 r1, 0x0
   16588: 05 00 ca ff 00 00 00 00      	ja -0x36 <entrypoint+0x15bb8>
   16590: 71 42 59 00 00 00 00 00      	ldxb r2, [r4 + 0x59]
   16598: b7 05 00 00 01 00 00 00      	mov64 r5, 0x1
   165a0: 7b 2a 88 fe 00 00 00 00      	stxdw [r10 - 0x178], r2
   165a8: 55 02 01 00 00 00 00 00      	jne r2, 0x0, +0x1 <entrypoint+0x15d90>
   165b0: b7 05 00 00 00 00 00 00      	mov64 r5, 0x0
   165b8: 79 a2 88 fe 00 00 00 00      	ldxdw r2, [r10 - 0x178]
   165c0: 25 02 56 00 0b 00 00 00      	jgt r2, 0xb, +0x56 <entrypoint+0x16050>
   165c8: bf 62 00 00 00 00 00 00      	mov64 r2, r6
   165d0: 07 02 00 00 18 00 00 00      	add64 r2, 0x18
   165d8: 7b 2a a0 fe 00 00 00 00      	stxdw [r10 - 0x160], r2
   165e0: bf 62 00 00 00 00 00 00      	mov64 r2, r6
   165e8: 0f 12 00 00 00 00 00 00      	add64 r2, r1
   165f0: 7b 2a 98 fe 00 00 00 00      	stxdw [r10 - 0x168], r2
   165f8: 79 a1 88 fe 00 00 00 00      	ldxdw r1, [r10 - 0x178]
   16600: 67 01 00 00 05 00 00 00      	lsh64 r1, 0x5
   16608: 67 05 00 00 05 00 00 00      	lsh64 r5, 0x5
   16610: bf 42 00 00 00 00 00 00      	mov64 r2, r4
   16618: 07 02 00 00 5b 00 00 00      	add64 r2, 0x5b
   16620: 7b 2a 78 fe 00 00 00 00      	stxdw [r10 - 0x188], r2
   16628: 0f 52 00 00 00 00 00 00      	add64 r2, r5
   16630: 7b 2a 70 fe 00 00 00 00      	stxdw [r10 - 0x190], r2
   16638: 1f 15 00 00 00 00 00 00      	sub64 r5, r1
   16640: 7b 5a 80 fe 00 00 00 00      	stxdw [r10 - 0x180], r5
   16648: b7 01 00 00 00 00 00 00      	mov64 r1, 0x0
   16650: 7b 1a 90 fe 00 00 00 00      	stxdw [r10 - 0x170], r1
   16658: 07 06 00 00 20 00 00 00      	add64 r6, 0x20
   16660: 05 00 06 00 00 00 00 00      	ja +0x6 <entrypoint+0x15e70>
   16668: 67 01 00 00 03 00 00 00      	lsh64 r1, 0x3
   16670: 79 a5 a0 fe 00 00 00 00      	ldxdw r5, [r10 - 0x160]
   16678: bf 56 00 00 00 00 00 00      	mov64 r6, r5
   16680: 0f 16 00 00 00 00 00 00      	add64 r6, r1
   16688: 79 a2 98 fe 00 00 00 00      	ldxdw r2, [r10 - 0x168]
   16690: 1d 25 3e fe 00 00 00 00      	jeq r5, r2, -0x1c2 <entrypoint+0x15060>
   16698: 79 a5 a0 fe 00 00 00 00      	ldxdw r5, [r10 - 0x160]
   166a0: 7b 6a a0 fe 00 00 00 00      	stxdw [r10 - 0x160], r6
   166a8: 79 a1 88 fe 00 00 00 00      	ldxdw r1, [r10 - 0x178]
   166b0: 15 01 26 00 00 00 00 00      	jeq r1, 0x0, +0x26 <entrypoint+0x15fc0>
   166b8: b7 02 00 00 00 00 00 00      	mov64 r2, 0x0
   166c0: 79 59 00 00 00 00 00 00      	ldxdw r9, [r5 + 0x0]
   166c8: 79 98 08 00 00 00 00 00      	ldxdw r8, [r9 + 0x8]
   166d0: 79 a0 70 fe 00 00 00 00      	ldxdw r0, [r10 - 0x190]
   166d8: 79 a5 80 fe 00 00 00 00      	ldxdw r5, [r10 - 0x180]
   166e0: 79 a6 78 fe 00 00 00 00      	ldxdw r6, [r10 - 0x188]
   166e8: 05 00 09 00 00 00 00 00      	ja +0x9 <entrypoint+0x15f10>
   166f0: 72 01 00 00 01 00 00 00      	stb [r1 + 0x0], 0x1
   166f8: 79 a1 90 fe 00 00 00 00      	ldxdw r1, [r10 - 0x170]
   16700: 07 01 00 00 01 00 00 00      	add64 r1, 0x1
   16708: 7b 1a 90 fe 00 00 00 00      	stxdw [r10 - 0x170], r1
   16710: bf 60 00 00 00 00 00 00      	mov64 r0, r6
   16718: 07 00 00 00 20 00 00 00      	add64 r0, 0x20
   16720: 07 02 00 00 01 00 00 00      	add64 r2, 0x1
   16728: 07 05 00 00 20 00 00 00      	add64 r5, 0x20
   16730: 15 05 16 00 20 00 00 00      	jeq r5, 0x20, +0x16 <entrypoint+0x15fc0>
   16738: bf 61 00 00 00 00 00 00      	mov64 r1, r6
   16740: bf 06 00 00 00 00 00 00      	mov64 r6, r0
   16748: 79 10 00 00 00 00 00 00      	ldxdw r0, [r1 + 0x0]
   16750: 5d 80 f7 ff 00 00 00 00      	jne r0, r8, -0x9 <entrypoint+0x15ee8>
   16758: 79 90 10 00 00 00 00 00      	ldxdw r0, [r9 + 0x10]
   16760: 79 17 08 00 00 00 00 00      	ldxdw r7, [r1 + 0x8]
   16768: 5d 07 f4 ff 00 00 00 00      	jne r7, r0, -0xc <entrypoint+0x15ee8>
   16770: 79 90 18 00 00 00 00 00      	ldxdw r0, [r9 + 0x18]
   16778: 79 17 10 00 00 00 00 00      	ldxdw r7, [r1 + 0x10]
   16780: 5d 07 f1 ff 00 00 00 00      	jne r7, r0, -0xf <entrypoint+0x15ee8>
   16788: 79 90 20 00 00 00 00 00      	ldxdw r0, [r9 + 0x20]
   16790: 79 11 18 00 00 00 00 00      	ldxdw r1, [r1 + 0x18]
   16798: 5d 01 ee ff 00 00 00 00      	jne r1, r0, -0x12 <entrypoint+0x15ee8>
   167a0: 25 02 1f 00 0a 00 00 00      	jgt r2, 0xa, +0x1f <entrypoint+0x16078>
   167a8: bf a1 00 00 00 00 00 00      	mov64 r1, r10
   167b0: 07 01 00 00 a8 fe ff ff      	add64 r1, -0x158
   167b8: 0f 21 00 00 00 00 00 00      	add64 r1, r2
   167c0: 71 10 00 00 00 00 00 00      	ldxb r0, [r1 + 0x0]
   167c8: 55 00 e8 ff 00 00 00 00      	jne r0, 0x0, -0x18 <entrypoint+0x15ee8>
   167d0: 71 90 01 00 00 00 00 00      	ldxb r0, [r9 + 0x1]
   167d8: 55 00 e2 ff 00 00 00 00      	jne r0, 0x0, -0x1e <entrypoint+0x15ec8>
   167e0: 05 00 08 f8 00 00 00 00      	ja -0x7f8 <entrypoint+0x12000>
   167e8: b7 01 00 00 01 00 00 00      	mov64 r1, 0x1
   167f0: 79 a2 98 fe 00 00 00 00      	ldxdw r2, [r10 - 0x168]
   167f8: 79 a5 a0 fe 00 00 00 00      	ldxdw r5, [r10 - 0x160]
   16800: 5d 25 cc ff 00 00 00 00      	jne r5, r2, -0x34 <entrypoint+0x15e40>
   16808: b7 01 00 00 00 00 00 00      	mov64 r1, 0x0
   16810: 05 00 ca ff 00 00 00 00      	ja -0x36 <entrypoint+0x15e40>
   16818: b7 01 00 00 00 00 00 00      	mov64 r1, 0x0
   16820: 7b 1a 80 fe 00 00 00 00      	stxdw [r10 - 0x180], r1
   16828: 71 71 58 00 00 00 00 00      	ldxb r1, [r7 + 0x58]
   16830: 79 a2 80 fe 00 00 00 00      	ldxdw r2, [r10 - 0x180]
   16838: 57 02 00 00 ff 00 00 00      	and64 r2, 0xff
   16840: 3d 12 24 fa 00 00 00 00      	jge r2, r1, -0x5dc <entrypoint+0x13140>
   16848: 05 00 fb f7 00 00 00 00      	ja -0x805 <entrypoint+0x12000>
   16850: 79 a1 78 fe 00 00 00 00      	ldxdw r1, [r10 - 0x188]
   16858: b7 02 00 00 0b 00 00 00      	mov64 r2, 0xb
   16860: 18 03 00 00 e8 9b 01 00 00 00 00 00 00 00 00 00      	lddw r3, 0x19be8
   16870: 85 10 00 00 84 01 00 00      	call 0x184
   16878: 79 a1 88 fe 00 00 00 00      	ldxdw r1, [r10 - 0x178]
   16880: b7 02 00 00 0b 00 00 00      	mov64 r2, 0xb
   16888: 18 03 00 00 e8 9b 01 00 00 00 00 00 00 00 00 00      	lddw r3, 0x19be8
   16898: 85 10 00 00 7f 01 00 00      	call 0x17f
   168a0: bf 21 00 00 00 00 00 00      	mov64 r1, r2
   168a8: b7 02 00 00 0b 00 00 00      	mov64 r2, 0xb
   168b0: 18 03 00 00 00 9c 01 00 00 00 00 00 00 00 00 00      	lddw r3, 0x19c00
   168c0: 85 10 00 00 4b 00 00 00      	call 0x4b
   168c8: 79 a1 70 fe 00 00 00 00      	ldxdw r1, [r10 - 0x190]
   168d0: b7 02 00 00 0b 00 00 00      	mov64 r2, 0xb
   168d8: 18 03 00 00 e8 9b 01 00 00 00 00 00 00 00 00 00      	lddw r3, 0x19be8
   168e8: 85 10 00 00 75 01 00 00      	call 0x175
   168f0: 79 a1 80 fe 00 00 00 00      	ldxdw r1, [r10 - 0x180]
   168f8: b7 02 00 00 0b 00 00 00      	mov64 r2, 0xb
   16900: 18 03 00 00 e8 9b 01 00 00 00 00 00 00 00 00 00      	lddw r3, 0x19be8
   16910: 85 10 00 00 70 01 00 00      	call 0x170
   16918: b7 01 00 00 0b 00 00 00      	mov64 r1, 0xb
   16920: b7 02 00 00 0b 00 00 00      	mov64 r2, 0xb
   16928: 18 03 00 00 d0 9b 01 00 00 00 00 00 00 00 00 00      	lddw r3, 0x19bd0
   16938: 85 10 00 00 3c 00 00 00      	call 0x3c
   16940: 79 12 08 00 00 00 00 00      	ldxdw r2, [r1 + 0x8]
   16948: 61 24 14 00 00 00 00 00      	ldxw r4, [r2 + 0x14]
   16950: 61 23 10 00 00 00 00 00      	ldxw r3, [r2 + 0x10]
   16958: 79 21 00 00 00 00 00 00      	ldxdw r1, [r2 + 0x0]
   16960: 79 22 08 00 00 00 00 00      	ldxdw r2, [r2 + 0x8]
   16968: 07 02 00 00 ff ff ff ff      	add64 r2, -0x1
   16970: 85 10 00 00 ff ff ff ff      	call -0x1
   16978: 07 01 00 00 ff ff ff ff      	add64 r1, -0x1
   16980: 57 01 00 00 ff 00 00 00      	and64 r1, 0xff
   16988: b7 00 00 00 01 00 00 00      	mov64 r0, 0x1
   16990: a5 01 01 00 0b 00 00 00      	jlt r1, 0xb, +0x1 <entrypoint+0x16178>
   16998: b7 00 00 00 00 00 00 00      	mov64 r0, 0x0
   169a0: 95 00 00 00 00 00 00 00      	exit
   169a8: bf 16 00 00 00 00 00 00      	mov64 r6, r1
   169b0: 62 0a fc ff 00 00 00 00      	stw [r10 - 0x4], 0x0
   169b8: 62 0a f9 ff 00 00 00 00      	stw [r10 - 0x7], 0x0
   169c0: bf a2 00 00 00 00 00 00      	mov64 r2, r10
   169c8: 07 02 00 00 e8 ff ff ff      	add64 r2, -0x18
   169d0: b7 07 00 00 00 00 00 00      	mov64 r7, 0x0
   169d8: 18 01 00 00 d8 93 01 00 00 00 00 00 00 00 00 00      	lddw r1, 0x193d8
   169e8: b7 03 00 00 00 00 00 00      	mov64 r3, 0x0
   169f0: b7 04 00 00 11 00 00 00      	mov64 r4, 0x11
   169f8: 85 10 00 00 ff ff ff ff      	call -0x1
   16a00: 15 00 03 00 00 00 00 00      	jeq r0, 0x0, +0x3 <entrypoint+0x161f8>
   16a08: 62 06 04 00 10 00 00 00      	stw [r6 + 0x4], 0x10
   16a10: b7 07 00 00 01 00 00 00      	mov64 r7, 0x1
   16a18: 05 00 06 00 00 00 00 00      	ja +0x6 <entrypoint+0x16228>
   16a20: 79 a1 f8 ff 00 00 00 00      	ldxdw r1, [r10 - 0x8]
   16a28: 7b 16 18 00 00 00 00 00      	stxdw [r6 + 0x18], r1
   16a30: 79 a1 f0 ff 00 00 00 00      	ldxdw r1, [r10 - 0x10]
   16a38: 7b 16 10 00 00 00 00 00      	stxdw [r6 + 0x10], r1
   16a40: 79 a1 e8 ff 00 00 00 00      	ldxdw r1, [r10 - 0x18]
   16a48: 7b 16 08 00 00 00 00 00      	stxdw [r6 + 0x8], r1
   16a50: 63 76 00 00 00 00 00 00      	stxw [r6 + 0x0], r7
   16a58: 95 00 00 00 00 00 00 00      	exit
   16a60: bf 13 00 00 00 00 00 00      	mov64 r3, r1
   16a68: 18 01 00 00 90 99 01 00 00 00 00 00 00 00 00 00      	lddw r1, 0x19990
   16a78: b7 02 00 00 2b 00 00 00      	mov64 r2, 0x2b
   16a80: 85 10 00 00 06 00 00 00      	call 0x6
   16a88: 7b 2a f0 ff 00 00 00 00      	stxdw [r10 - 0x10], r2
   16a90: 7b 1a e8 ff 00 00 00 00      	stxdw [r10 - 0x18], r1
   16a98: 6a 0a f8 ff 01 00 00 00      	sth [r10 - 0x8], 0x1
   16aa0: bf a1 00 00 00 00 00 00      	mov64 r1, r10
   16aa8: 07 01 00 00 e8 ff ff ff      	add64 r1, -0x18
   16ab0: 85 10 00 00 d1 ff ff ff      	call -0x2f
   16ab8: bf a4 00 00 00 00 00 00      	mov64 r4, r10
   16ac0: 07 04 00 00 f0 ff ff ff      	add64 r4, -0x10
   16ac8: 7b 4a c0 ff 00 00 00 00      	stxdw [r10 - 0x40], r4
   16ad0: 7b 2a f8 ff 00 00 00 00      	stxdw [r10 - 0x8], r2
   16ad8: 7b 1a f0 ff 00 00 00 00      	stxdw [r10 - 0x10], r1
   16ae0: 7a 0a e0 ff 00 00 00 00      	stdw [r10 - 0x20], 0x0
   16ae8: 7a 0a c8 ff 01 00 00 00      	stdw [r10 - 0x38], 0x1
   16af0: 7a 0a d8 ff 00 00 00 00      	stdw [r10 - 0x28], 0x0
   16af8: 7a 0a d0 ff 08 00 00 00      	stdw [r10 - 0x30], 0x8
   16b00: bf a1 00 00 00 00 00 00      	mov64 r1, r10
   16b08: 07 01 00 00 c0 ff ff ff      	add64 r1, -0x40
   16b10: bf 32 00 00 00 00 00 00      	mov64 r2, r3
   16b18: 85 10 00 00 ed ff ff ff      	call -0x13
   16b20: 7b 2a a8 ff 00 00 00 00      	stxdw [r10 - 0x58], r2
   16b28: 7b 1a a0 ff 00 00 00 00      	stxdw [r10 - 0x60], r1
   16b30: 18 01 00 00 d0 9c 01 00 00 00 00 00 00 00 00 00      	lddw r1, 0x19cd0
   16b40: 7b 1a b0 ff 00 00 00 00      	stxdw [r10 - 0x50], r1
   16b48: bf a1 00 00 00 00 00 00      	mov64 r1, r10
   16b50: 07 01 00 00 e0 ff ff ff      	add64 r1, -0x20
   16b58: 7b 1a c0 ff 00 00 00 00      	stxdw [r10 - 0x40], r1
   16b60: bf a1 00 00 00 00 00 00      	mov64 r1, r10
   16b68: 07 01 00 00 a0 ff ff ff      	add64 r1, -0x60
   16b70: 7b 1a f0 ff 00 00 00 00      	stxdw [r10 - 0x10], r1
   16b78: 18 01 00 00 c0 7f 01 00 00 00 00 00 00 00 00 00      	lddw r1, 0x17fc0
   16b88: 7b 1a f8 ff 00 00 00 00      	stxdw [r10 - 0x8], r1
   16b90: 7b 1a e8 ff 00 00 00 00      	stxdw [r10 - 0x18], r1
   16b98: bf a1 00 00 00 00 00 00      	mov64 r1, r10
   16ba0: 07 01 00 00 a8 ff ff ff      	add64 r1, -0x58
   16ba8: 7b 1a e0 ff 00 00 00 00      	stxdw [r10 - 0x20], r1
   16bb0: 7a 0a d0 ff 00 00 00 00      	stdw [r10 - 0x30], 0x0
   16bb8: 7a 0a b8 ff 02 00 00 00      	stdw [r10 - 0x48], 0x2
   16bc0: 7a 0a c8 ff 02 00 00 00      	stdw [r10 - 0x38], 0x2
   16bc8: bf a1 00 00 00 00 00 00      	mov64 r1, r10
   16bd0: 07 01 00 00 b0 ff ff ff      	add64 r1, -0x50
   16bd8: bf 32 00 00 00 00 00 00      	mov64 r2, r3
   16be0: 85 10 00 00 d4 ff ff ff      	call -0x2c
   16be8: 79 56 08 f0 00 00 00 00      	ldxdw r6, [r5 - 0xff8]
   16bf0: 15 02 07 00 00 00 00 00      	jeq r2, 0x0, +0x7 <entrypoint+0x16408>
   16bf8: b7 07 00 00 00 00 11 00      	mov64 r7, 0x110000
   16c00: 61 10 10 00 00 00 00 00      	ldxw r0, [r1 + 0x10]
   16c08: bf 02 00 00 00 00 00 00      	mov64 r2, r0
   16c10: 57 02 00 00 00 00 20 00      	and64 r2, 0x200000
   16c18: 55 02 05 00 00 00 00 00      	jne r2, 0x0, +0x5 <entrypoint+0x16420>
   16c20: bf 69 00 00 00 00 00 00      	mov64 r9, r6
   16c28: 05 00 06 00 00 00 00 00      	ja +0x6 <entrypoint+0x16438>
   16c30: b7 07 00 00 2d 00 00 00      	mov64 r7, 0x2d
   16c38: 61 10 10 00 00 00 00 00      	ldxw r0, [r1 + 0x10]
   16c40: 05 00 01 00 00 00 00 00      	ja +0x1 <entrypoint+0x16428>
   16c48: b7 07 00 00 2b 00 00 00      	mov64 r7, 0x2b
   16c50: bf 69 00 00 00 00 00 00      	mov64 r9, r6
   16c58: 07 09 00 00 01 00 00 00      	add64 r9, 0x1
   16c60: 79 58 00 f0 00 00 00 00      	ldxdw r8, [r5 - 0x1000]
   16c68: bf 02 00 00 00 00 00 00      	mov64 r2, r0
   16c70: 57 02 00 00 00 00 80 00      	and64 r2, 0x800000
   16c78: 7b 4a e8 ff 00 00 00 00      	stxdw [r10 - 0x18], r4
   16c80: 7b 7a e0 ff 00 00 00 00      	stxdw [r10 - 0x20], r7
   16c88: 55 02 18 00 00 00 00 00      	jne r2, 0x0, +0x18 <entrypoint+0x16528>
   16c90: b7 02 00 00 00 00 00 00      	mov64 r2, 0x0
   16c98: 7b 2a f0 ff 00 00 00 00      	stxdw [r10 - 0x10], r2
   16ca0: bf 97 00 00 00 00 00 00      	mov64 r7, r9
   16ca8: 69 13 14 00 00 00 00 00      	ldxh r3, [r1 + 0x14]
   16cb0: 7b 6a d8 ff 00 00 00 00      	stxdw [r10 - 0x28], r6
   16cb8: ad 37 30 00 00 00 00 00      	jlt r7, r3, +0x30 <entrypoint+0x16618>
   16cc0: bf 89 00 00 00 00 00 00      	mov64 r9, r8
   16cc8: 79 18 08 00 00 00 00 00      	ldxdw r8, [r1 + 0x8]
   16cd0: 79 17 00 00 00 00 00 00      	ldxdw r7, [r1 + 0x0]
   16cd8: bf 71 00 00 00 00 00 00      	mov64 r1, r7
   16ce0: bf 82 00 00 00 00 00 00      	mov64 r2, r8
   16ce8: 79 a3 e0 ff 00 00 00 00      	ldxdw r3, [r10 - 0x20]
   16cf0: 79 a4 f0 ff 00 00 00 00      	ldxdw r4, [r10 - 0x10]
   16cf8: 79 a5 e8 ff 00 00 00 00      	ldxdw r5, [r10 - 0x18]
   16d00: 85 10 00 00 9d 00 00 00      	call 0x9d
   16d08: b7 06 00 00 01 00 00 00      	mov64 r6, 0x1
   16d10: 55 00 98 00 00 00 00 00      	jne r0, 0x0, +0x98 <entrypoint+0x169b0>
   16d18: 79 84 18 00 00 00 00 00      	ldxdw r4, [r8 + 0x18]
   16d20: bf 71 00 00 00 00 00 00      	mov64 r1, r7
   16d28: bf 92 00 00 00 00 00 00      	mov64 r2, r9
   16d30: 79 a3 d8 ff 00 00 00 00      	ldxdw r3, [r10 - 0x28]
   16d38: 8d 00 00 00 04 00 00 00      	callx r4
   16d40: bf 06 00 00 00 00 00 00      	mov64 r6, r0
   16d48: 05 00 91 00 00 00 00 00      	ja +0x91 <entrypoint+0x169b0>
   16d50: 7b 1a d0 ff 00 00 00 00      	stxdw [r10 - 0x30], r1
   16d58: 7b 3a f0 ff 00 00 00 00      	stxdw [r10 - 0x10], r3
   16d60: 35 04 10 00 20 00 00 00      	jge r4, 0x20, +0x10 <entrypoint+0x165c0>
   16d68: b7 07 00 00 00 00 00 00      	mov64 r7, 0x0
   16d70: 15 04 14 00 00 00 00 00      	jeq r4, 0x0, +0x14 <entrypoint+0x165f0>
   16d78: 79 a1 f0 ff 00 00 00 00      	ldxdw r1, [r10 - 0x10]
   16d80: bf 42 00 00 00 00 00 00      	mov64 r2, r4
   16d88: 05 00 04 00 00 00 00 00      	ja +0x4 <entrypoint+0x16588>
   16d90: 0f 37 00 00 00 00 00 00      	add64 r7, r3
   16d98: 07 01 00 00 01 00 00 00      	add64 r1, 0x1
   16da0: 07 02 00 00 ff ff ff ff      	add64 r2, -0x1
   16da8: 15 02 0d 00 00 00 00 00      	jeq r2, 0x0, +0xd <entrypoint+0x165f0>
   16db0: 71 14 00 00 00 00 00 00      	ldxb r4, [r1 + 0x0]
   16db8: 67 04 00 00 38 00 00 00      	lsh64 r4, 0x38
   16dc0: c7 04 00 00 38 00 00 00      	arsh64 r4, 0x38
   16dc8: b7 03 00 00 01 00 00 00      	mov64 r3, 0x1
   16dd0: 65 04 f7 ff bf ff ff ff      	jsgt r4, -0x41, -0x9 <entrypoint+0x16568>
   16dd8: b7 03 00 00 00 00 00 00      	mov64 r3, 0x0
   16de0: 05 00 f5 ff 00 00 00 00      	ja -0xb <entrypoint+0x16568>
   16de8: bf 31 00 00 00 00 00 00      	mov64 r1, r3
   16df0: bf 42 00 00 00 00 00 00      	mov64 r2, r4
   16df8: 7b 0a f8 ff 00 00 00 00      	stxdw [r10 - 0x8], r0
   16e00: 85 10 00 00 7e 01 00 00      	call 0x17e
   16e08: bf 07 00 00 00 00 00 00      	mov64 r7, r0
   16e10: 79 a0 f8 ff 00 00 00 00      	ldxdw r0, [r10 - 0x8]
   16e18: 0f 97 00 00 00 00 00 00      	add64 r7, r9
   16e20: 79 a1 d0 ff 00 00 00 00      	ldxdw r1, [r10 - 0x30]
   16e28: 69 13 14 00 00 00 00 00      	ldxh r3, [r1 + 0x14]
   16e30: 7b 6a d8 ff 00 00 00 00      	stxdw [r10 - 0x28], r6
   16e38: 3d 37 d0 ff 00 00 00 00      	jge r7, r3, -0x30 <entrypoint+0x16498>
   16e40: bf 02 00 00 00 00 00 00      	mov64 r2, r0
   16e48: 57 02 00 00 00 00 00 01      	and64 r2, 0x1000000
   16e50: 7b 8a c0 ff 00 00 00 00      	stxdw [r10 - 0x40], r8
   16e58: 55 02 09 00 00 00 00 00      	jne r2, 0x0, +0x9 <entrypoint+0x16680>
   16e60: 1f 73 00 00 00 00 00 00      	sub64 r3, r7
   16e68: bf 02 00 00 00 00 00 00      	mov64 r2, r0
   16e70: 77 02 00 00 1d 00 00 00      	rsh64 r2, 0x1d
   16e78: 57 02 00 00 03 00 00 00      	and64 r2, 0x3
   16e80: 65 02 26 00 01 00 00 00      	jsgt r2, 0x1, +0x26 <entrypoint+0x16790>
   16e88: b7 06 00 00 00 00 00 00      	mov64 r6, 0x0
   16e90: 15 02 29 00 00 00 00 00      	jeq r2, 0x0, +0x29 <entrypoint+0x167b8>
   16e98: bf 36 00 00 00 00 00 00      	mov64 r6, r3
   16ea0: 05 00 27 00 00 00 00 00      	ja +0x27 <entrypoint+0x167b8>
   16ea8: 7b 3a c8 ff 00 00 00 00      	stxdw [r10 - 0x38], r3
   16eb0: 79 12 10 00 00 00 00 00      	ldxdw r2, [r1 + 0x10]
   16eb8: 18 03 00 00 00 00 e0 9f 00 00 00 00 00 00 00 00      	lddw r3, 0x9fe00000
   16ec8: 7b 2a b8 ff 00 00 00 00      	stxdw [r10 - 0x48], r2
   16ed0: 5f 32 00 00 00 00 00 00      	and64 r2, r3
   16ed8: 47 02 00 00 30 00 00 20      	or64 r2, 0x20000030
   16ee0: 63 21 10 00 00 00 00 00      	stxw [r1 + 0x10], r2
   16ee8: 79 12 00 00 00 00 00 00      	ldxdw r2, [r1 + 0x0]
   16ef0: 7b 1a d0 ff 00 00 00 00      	stxdw [r10 - 0x30], r1
   16ef8: 79 19 08 00 00 00 00 00      	ldxdw r9, [r1 + 0x8]
   16f00: 7b 2a f8 ff 00 00 00 00      	stxdw [r10 - 0x8], r2
   16f08: bf 21 00 00 00 00 00 00      	mov64 r1, r2
   16f10: bf 92 00 00 00 00 00 00      	mov64 r2, r9
   16f18: 79 a3 e0 ff 00 00 00 00      	ldxdw r3, [r10 - 0x20]
   16f20: 79 a4 f0 ff 00 00 00 00      	ldxdw r4, [r10 - 0x10]
   16f28: 79 a5 e8 ff 00 00 00 00      	ldxdw r5, [r10 - 0x18]
   16f30: 85 10 00 00 57 00 00 00      	call 0x57
   16f38: b7 06 00 00 01 00 00 00      	mov64 r6, 0x1
   16f40: 55 00 52 00 00 00 00 00      	jne r0, 0x0, +0x52 <entrypoint+0x169b0>
   16f48: 79 a8 c8 ff 00 00 00 00      	ldxdw r8, [r10 - 0x38]
   16f50: 1f 78 00 00 00 00 00 00      	sub64 r8, r7
   16f58: b7 07 00 00 00 00 00 00      	mov64 r7, 0x0
   16f60: 57 08 00 00 ff ff 00 00      	and64 r8, 0xffff
   16f68: bf 71 00 00 00 00 00 00      	mov64 r1, r7
   16f70: 57 01 00 00 ff ff 00 00      	and64 r1, 0xffff
   16f78: 3d 81 41 00 00 00 00 00      	jge r1, r8, +0x41 <entrypoint+0x16960>
   16f80: 79 93 20 00 00 00 00 00      	ldxdw r3, [r9 + 0x20]
   16f88: 79 a1 f8 ff 00 00 00 00      	ldxdw r1, [r10 - 0x8]
   16f90: b7 02 00 00 30 00 00 00      	mov64 r2, 0x30
   16f98: 8d 00 00 00 03 00 00 00      	callx r3
   16fa0: 07 07 00 00 01 00 00 00      	add64 r7, 0x1
   16fa8: 15 00 f7 ff 00 00 00 00      	jeq r0, 0x0, -0x9 <entrypoint+0x16740>
   16fb0: 05 00 44 00 00 00 00 00      	ja +0x44 <entrypoint+0x169b0>
   16fb8: bf 36 00 00 00 00 00 00      	mov64 r6, r3
   16fc0: 55 02 03 00 02 00 00 00      	jne r2, 0x2, +0x3 <entrypoint+0x167b8>
   16fc8: bf 36 00 00 00 00 00 00      	mov64 r6, r3
   16fd0: 57 06 00 00 fe ff 00 00      	and64 r6, 0xfffe
   16fd8: 77 06 00 00 01 00 00 00      	rsh64 r6, 0x1
   16fe0: 7b 3a c8 ff 00 00 00 00      	stxdw [r10 - 0x38], r3
   16fe8: 57 00 00 00 ff ff 1f 00      	and64 r0, 0x1fffff
   16ff0: 7b 0a f8 ff 00 00 00 00      	stxdw [r10 - 0x8], r0
   16ff8: b7 08 00 00 00 00 00 00      	mov64 r8, 0x0
   17000: 79 17 08 00 00 00 00 00      	ldxdw r7, [r1 + 0x8]
   17008: 79 19 00 00 00 00 00 00      	ldxdw r9, [r1 + 0x0]
   17010: 7b 6a d0 ff 00 00 00 00      	stxdw [r10 - 0x30], r6
   17018: 57 06 00 00 ff ff 00 00      	and64 r6, 0xffff
   17020: bf 81 00 00 00 00 00 00      	mov64 r1, r8
   17028: 57 01 00 00 ff ff 00 00      	and64 r1, 0xffff
   17030: 3d 61 08 00 00 00 00 00      	jge r1, r6, +0x8 <entrypoint+0x16850>
   17038: 79 73 20 00 00 00 00 00      	ldxdw r3, [r7 + 0x20]
   17040: bf 91 00 00 00 00 00 00      	mov64 r1, r9
   17048: 79 a2 f8 ff 00 00 00 00      	ldxdw r2, [r10 - 0x8]
   17050: 8d 00 00 00 03 00 00 00      	callx r3
   17058: 07 08 00 00 01 00 00 00      	add64 r8, 0x1
   17060: 15 00 f7 ff 00 00 00 00      	jeq r0, 0x0, -0x9 <entrypoint+0x167f8>
   17068: b7 06 00 00 01 00 00 00      	mov64 r6, 0x1
   17070: 05 00 2c 00 00 00 00 00      	ja +0x2c <entrypoint+0x169b0>
   17078: bf 91 00 00 00 00 00 00      	mov64 r1, r9
   17080: bf 72 00 00 00 00 00 00      	mov64 r2, r7
   17088: 79 a3 e0 ff 00 00 00 00      	ldxdw r3, [r10 - 0x20]
   17090: 79 a4 f0 ff 00 00 00 00      	ldxdw r4, [r10 - 0x10]
   17098: 79 a5 e8 ff 00 00 00 00      	ldxdw r5, [r10 - 0x18]
   170a0: 85 10 00 00 29 00 00 00      	call 0x29
   170a8: b7 06 00 00 01 00 00 00      	mov64 r6, 0x1
   170b0: 55 00 24 00 00 00 00 00      	jne r0, 0x0, +0x24 <entrypoint+0x169b0>
   170b8: 79 74 18 00 00 00 00 00      	ldxdw r4, [r7 + 0x18]
   170c0: bf 91 00 00 00 00 00 00      	mov64 r1, r9
   170c8: 79 a2 c0 ff 00 00 00 00      	ldxdw r2, [r10 - 0x40]
   170d0: 79 a3 d8 ff 00 00 00 00      	ldxdw r3, [r10 - 0x28]
   170d8: 8d 00 00 00 04 00 00 00      	callx r4
   170e0: 79 a3 c8 ff 00 00 00 00      	ldxdw r3, [r10 - 0x38]
   170e8: 55 00 1d 00 00 00 00 00      	jne r0, 0x0, +0x1d <entrypoint+0x169b0>
   170f0: 79 a1 d0 ff 00 00 00 00      	ldxdw r1, [r10 - 0x30]
   170f8: 1f 13 00 00 00 00 00 00      	sub64 r3, r1
   17100: b7 08 00 00 00 00 00 00      	mov64 r8, 0x0
   17108: 57 03 00 00 ff ff 00 00      	and64 r3, 0xffff
   17110: 7b 3a c8 ff 00 00 00 00      	stxdw [r10 - 0x38], r3
   17118: bf 81 00 00 00 00 00 00      	mov64 r1, r8
   17120: 57 01 00 00 ff ff 00 00      	and64 r1, 0xffff
   17128: b7 06 00 00 01 00 00 00      	mov64 r6, 0x1
   17130: ad 31 01 00 00 00 00 00      	jlt r1, r3, +0x1 <entrypoint+0x16918>
   17138: b7 06 00 00 00 00 00 00      	mov64 r6, 0x0
   17140: 79 a2 f8 ff 00 00 00 00      	ldxdw r2, [r10 - 0x8]
   17148: 3d 31 11 00 00 00 00 00      	jge r1, r3, +0x11 <entrypoint+0x169b0>
   17150: 79 73 20 00 00 00 00 00      	ldxdw r3, [r7 + 0x20]
   17158: bf 91 00 00 00 00 00 00      	mov64 r1, r9
   17160: 8d 00 00 00 03 00 00 00      	callx r3
   17168: 79 a3 c8 ff 00 00 00 00      	ldxdw r3, [r10 - 0x38]
   17170: 07 08 00 00 01 00 00 00      	add64 r8, 0x1
   17178: 15 00 f3 ff 00 00 00 00      	jeq r0, 0x0, -0xd <entrypoint+0x168f0>
   17180: 05 00 0a 00 00 00 00 00      	ja +0xa <entrypoint+0x169b0>
   17188: 79 94 18 00 00 00 00 00      	ldxdw r4, [r9 + 0x18]
   17190: 79 a1 f8 ff 00 00 00 00      	ldxdw r1, [r10 - 0x8]
   17198: 79 a2 c0 ff 00 00 00 00      	ldxdw r2, [r10 - 0x40]
   171a0: 79 a3 d8 ff 00 00 00 00      	ldxdw r3, [r10 - 0x28]
   171a8: 8d 00 00 00 04 00 00 00      	callx r4
   171b0: 55 00 04 00 00 00 00 00      	jne r0, 0x0, +0x4 <entrypoint+0x169b0>
   171b8: 79 a1 d0 ff 00 00 00 00      	ldxdw r1, [r10 - 0x30]
   171c0: 79 a2 b8 ff 00 00 00 00      	ldxdw r2, [r10 - 0x48]
   171c8: 7b 21 10 00 00 00 00 00      	stxdw [r1 + 0x10], r2
   171d0: b7 06 00 00 00 00 00 00      	mov64 r6, 0x0
   171d8: 57 06 00 00 01 00 00 00      	and64 r6, 0x1
   171e0: bf 60 00 00 00 00 00 00      	mov64 r0, r6
   171e8: 95 00 00 00 00 00 00 00      	exit
   171f0: bf 56 00 00 00 00 00 00      	mov64 r6, r5
   171f8: bf 47 00 00 00 00 00 00      	mov64 r7, r4
   17200: bf 28 00 00 00 00 00 00      	mov64 r8, r2
   17208: bf 32 00 00 00 00 00 00      	mov64 r2, r3
   17210: 67 02 00 00 20 00 00 00      	lsh64 r2, 0x20
   17218: 77 02 00 00 20 00 00 00      	rsh64 r2, 0x20
   17220: 15 02 08 00 00 00 11 00      	jeq r2, 0x110000, +0x8 <entrypoint+0x16a40>
   17228: 79 84 20 00 00 00 00 00      	ldxdw r4, [r8 + 0x20]
   17230: bf 19 00 00 00 00 00 00      	mov64 r9, r1
   17238: bf 32 00 00 00 00 00 00      	mov64 r2, r3
   17240: 8d 00 00 00 04 00 00 00      	callx r4
   17248: bf 91 00 00 00 00 00 00      	mov64 r1, r9
   17250: bf 02 00 00 00 00 00 00      	mov64 r2, r0
   17258: b7 00 00 00 01 00 00 00      	mov64 r0, 0x1
   17260: 55 02 07 00 00 00 00 00      	jne r2, 0x0, +0x7 <entrypoint+0x16a78>
   17268: 15 07 05 00 00 00 00 00      	jeq r7, 0x0, +0x5 <entrypoint+0x16a70>
   17270: 79 84 18 00 00 00 00 00      	ldxdw r4, [r8 + 0x18]
   17278: bf 72 00 00 00 00 00 00      	mov64 r2, r7
   17280: bf 63 00 00 00 00 00 00      	mov64 r3, r6
   17288: 8d 00 00 00 04 00 00 00      	callx r4
   17290: 05 00 01 00 00 00 00 00      	ja +0x1 <entrypoint+0x16a78>
   17298: b7 00 00 00 00 00 00 00      	mov64 r0, 0x0
   172a0: 95 00 00 00 00 00 00 00      	exit
   172a8: bf 14 00 00 00 00 00 00      	mov64 r4, r1
   172b0: b7 01 00 00 00 00 00 00      	mov64 r1, 0x0
   172b8: bf 20 00 00 00 00 00 00      	mov64 r0, r2
   172c0: 07 00 00 00 07 00 00 00      	add64 r0, 0x7
   172c8: 57 00 00 00 f8 ff ff ff      	and64 r0, -0x8
   172d0: 57 04 00 00 ff 00 00 00      	and64 r4, 0xff
   172d8: 1d 20 0c 00 00 00 00 00      	jeq r0, r2, +0xc <entrypoint+0x16b18>
   172e0: 1f 20 00 00 00 00 00 00      	sub64 r0, r2
   172e8: bf 35 00 00 00 00 00 00      	mov64 r5, r3
   172f0: ad 03 01 00 00 00 00 00      	jlt r3, r0, +0x1 <entrypoint+0x16ad8>
   172f8: bf 05 00 00 00 00 00 00      	mov64 r5, r0
   17300: 15 05 07 00 00 00 00 00      	jeq r5, 0x0, +0x7 <entrypoint+0x16b18>
   17308: bf 20 00 00 00 00 00 00      	mov64 r0, r2
   17310: 0f 10 00 00 00 00 00 00      	add64 r0, r1
   17318: 71 00 00 00 00 00 00 00      	ldxb r0, [r0 + 0x0]
   17320: 1d 40 2c 00 00 00 00 00      	jeq r0, r4, +0x2c <entrypoint+0x16c60>
   17328: 07 01 00 00 01 00 00 00      	add64 r1, 0x1
   17330: ad 51 fa ff 00 00 00 00      	jlt r1, r5, -0x6 <entrypoint+0x16ae0>
   17338: bf 51 00 00 00 00 00 00      	mov64 r1, r5
   17340: bf 35 00 00 00 00 00 00      	mov64 r5, r3
   17348: 07 05 00 00 f0 ff ff ff      	add64 r5, -0x10
   17350: 2d 51 19 00 00 00 00 00      	jgt r1, r5, +0x19 <entrypoint+0x16bf8>
   17358: 18 06 00 00 01 01 01 01 00 00 00 00 01 01 01 01      	lddw r6, 0x101010101010101
   17368: bf 40 00 00 00 00 00 00      	mov64 r0, r4
   17370: 2f 60 00 00 00 00 00 00      	mul64 r0, r6
   17378: 18 06 00 00 80 80 80 80 00 00 00 00 80 80 80 80      	lddw r6, -0x7f7f7f7f7f7f7f80
   17388: bf 27 00 00 00 00 00 00      	mov64 r7, r2
   17390: 0f 17 00 00 00 00 00 00      	add64 r7, r1
   17398: 79 78 08 00 00 00 00 00      	ldxdw r8, [r7 + 0x8]
   173a0: af 08 00 00 00 00 00 00      	xor64 r8, r0
   173a8: 18 09 00 00 00 01 01 01 00 00 00 00 01 01 01 01      	lddw r9, 0x101010101010100
   173b8: 1f 89 00 00 00 00 00 00      	sub64 r9, r8
   173c0: 4f 89 00 00 00 00 00 00      	or64 r9, r8
   173c8: 79 77 00 00 00 00 00 00      	ldxdw r7, [r7 + 0x0]
   173d0: af 07 00 00 00 00 00 00      	xor64 r7, r0
   173d8: 18 08 00 00 00 01 01 01 00 00 00 00 01 01 01 01      	lddw r8, 0x101010101010100
   173e8: 1f 78 00 00 00 00 00 00      	sub64 r8, r7
   173f0: 4f 78 00 00 00 00 00 00      	or64 r8, r7
   173f8: 5f 98 00 00 00 00 00 00      	and64 r8, r9
   17400: 5f 68 00 00 00 00 00 00      	and64 r8, r6
   17408: 5d 68 02 00 00 00 00 00      	jne r8, r6, +0x2 <entrypoint+0x16bf8>
   17410: 07 01 00 00 10 00 00 00      	add64 r1, 0x10
   17418: bd 51 ed ff 00 00 00 00      	jle r1, r5, -0x13 <entrypoint+0x16b60>
   17420: 1d 13 09 00 00 00 00 00      	jeq r3, r1, +0x9 <entrypoint+0x16c48>
   17428: 1f 13 00 00 00 00 00 00      	sub64 r3, r1
   17430: 0f 12 00 00 00 00 00 00      	add64 r2, r1
   17438: b7 05 00 00 00 00 00 00      	mov64 r5, 0x0
   17440: bf 20 00 00 00 00 00 00      	mov64 r0, r2
   17448: 0f 50 00 00 00 00 00 00      	add64 r0, r5
   17450: 71 00 00 00 00 00 00 00      	ldxb r0, [r0 + 0x0]
   17458: 1d 40 04 00 00 00 00 00      	jeq r0, r4, +0x4 <entrypoint+0x16c58>
   17460: 07 05 00 00 01 00 00 00      	add64 r5, 0x1
   17468: ad 35 fa ff 00 00 00 00      	jlt r5, r3, -0x6 <entrypoint+0x16c18>
   17470: b7 00 00 00 00 00 00 00      	mov64 r0, 0x0
   17478: 05 00 02 00 00 00 00 00      	ja +0x2 <entrypoint+0x16c68>
   17480: 0f 51 00 00 00 00 00 00      	add64 r1, r5
   17488: b7 00 00 00 01 00 00 00      	mov64 r0, 0x1
   17490: 95 00 00 00 00 00 00 00      	exit
   17498: 85 10 00 00 c5 01 00 00      	call 0x1c5
   174a0: bf 20 00 00 00 00 00 00      	mov64 r0, r2
   174a8: 7b 1a f8 ff 00 00 00 00      	stxdw [r10 - 0x8], r1
   174b0: bf 31 00 00 00 00 00 00      	mov64 r1, r3
   174b8: 07 01 00 00 f1 ff ff ff      	add64 r1, -0xf
   174c0: b7 05 00 00 00 00 00 00      	mov64 r5, 0x0
   174c8: b7 04 00 00 01 00 00 00      	mov64 r4, 0x1
   174d0: 2d 31 04 00 00 00 00 00      	jgt r1, r3, +0x4 <entrypoint+0x16cd0>
   174d8: b7 04 00 00 00 00 00 00      	mov64 r4, 0x0
   174e0: 15 04 03 00 00 00 00 00      	jeq r4, 0x0, +0x3 <entrypoint+0x16cd8>
   174e8: 55 03 04 00 00 00 00 00      	jne r3, 0x0, +0x4 <entrypoint+0x16ce8>
   174f0: 05 00 90 00 00 00 00 00      	ja +0x90 <entrypoint+0x17150>
   174f8: 55 04 fd ff 00 00 00 00      	jne r4, 0x0, -0x3 <entrypoint+0x16cc0>
   17500: bf 15 00 00 00 00 00 00      	mov64 r5, r1
   17508: 15 03 8d 00 00 00 00 00      	jeq r3, 0x0, +0x8d <entrypoint+0x17150>
   17510: bf 01 00 00 00 00 00 00      	mov64 r1, r0
   17518: 07 01 00 00 07 00 00 00      	add64 r1, 0x7
   17520: 57 01 00 00 f8 ff ff ff      	and64 r1, -0x8
   17528: 1f 01 00 00 00 00 00 00      	sub64 r1, r0
   17530: b7 04 00 00 00 00 00 00      	mov64 r4, 0x0
   17538: 18 02 00 00 80 80 80 80 00 00 00 00 80 80 80 80      	lddw r2, -0x7f7f7f7f7f7f7f80
   17548: 05 00 05 00 00 00 00 00      	ja +0x5 <entrypoint+0x16d50>
   17550: 07 09 00 00 01 00 00 00      	add64 r9, 0x1
   17558: bf 94 00 00 00 00 00 00      	mov64 r4, r9
   17560: 18 02 00 00 80 80 80 80 00 00 00 00 80 80 80 80      	lddw r2, -0x7f7f7f7f7f7f7f80
   17570: 3d 34 80 00 00 00 00 00      	jge r4, r3, +0x80 <entrypoint+0x17150>
   17578: bf 06 00 00 00 00 00 00      	mov64 r6, r0
   17580: 0f 46 00 00 00 00 00 00      	add64 r6, r4
   17588: 71 69 00 00 00 00 00 00      	ldxb r9, [r6 + 0x0]
   17590: bf 96 00 00 00 00 00 00      	mov64 r6, r9
   17598: 67 06 00 00 38 00 00 00      	lsh64 r6, 0x38
   175a0: c7 06 00 00 38 00 00 00      	arsh64 r6, 0x38
   175a8: c5 06 06 00 00 00 00 00      	jslt r6, 0x0, +0x6 <entrypoint+0x16db8>
   175b0: bf 16 00 00 00 00 00 00      	mov64 r6, r1
   175b8: 1f 46 00 00 00 00 00 00      	sub64 r6, r4
   175c0: 57 06 00 00 07 00 00 00      	and64 r6, 0x7
   175c8: 15 06 15 00 00 00 00 00      	jeq r6, 0x0, +0x15 <entrypoint+0x16e50>
   175d0: 07 04 00 00 01 00 00 00      	add64 r4, 0x1
   175d8: 05 00 27 00 00 00 00 00      	ja +0x27 <entrypoint+0x16ef0>
   175e0: 18 06 00 00 95 9a 01 00 00 00 00 00 00 00 00 00      	lddw r6, 0x19a95
   175f0: 0f 96 00 00 00 00 00 00      	add64 r6, r9
   175f8: b7 07 00 00 01 00 00 00      	mov64 r7, 0x1
   17600: 71 66 00 00 00 00 00 00      	ldxb r6, [r6 + 0x0]
   17608: 15 06 30 00 04 00 00 00      	jeq r6, 0x4, +0x30 <entrypoint+0x16f68>
   17610: 15 06 22 00 03 00 00 00      	jeq r6, 0x3, +0x22 <entrypoint+0x16f00>
   17618: 55 06 71 00 02 00 00 00      	jne r6, 0x2, +0x71 <entrypoint+0x17180>
   17620: bf 49 00 00 00 00 00 00      	mov64 r9, r4
   17628: 07 09 00 00 01 00 00 00      	add64 r9, 0x1
   17630: 3d 39 70 00 00 00 00 00      	jge r9, r3, +0x70 <entrypoint+0x17190>
   17638: bf 06 00 00 00 00 00 00      	mov64 r6, r0
   17640: 0f 96 00 00 00 00 00 00      	add64 r6, r9
   17648: 71 66 00 00 00 00 00 00      	ldxb r6, [r6 + 0x0]
   17650: 67 06 00 00 38 00 00 00      	lsh64 r6, 0x38
   17658: c7 06 00 00 38 00 00 00      	arsh64 r6, 0x38
   17660: b7 08 00 00 01 00 00 00      	mov64 r8, 0x1
   17668: d5 06 dc ff bf ff ff ff      	jsle r6, -0x41, -0x24 <entrypoint+0x16d28>
   17670: 05 00 69 00 00 00 00 00      	ja +0x69 <entrypoint+0x17198>
   17678: 3d 54 09 00 00 00 00 00      	jge r4, r5, +0x9 <entrypoint+0x16ea0>
   17680: bf 06 00 00 00 00 00 00      	mov64 r6, r0
   17688: 0f 46 00 00 00 00 00 00      	add64 r6, r4
   17690: 79 67 00 00 00 00 00 00      	ldxdw r7, [r6 + 0x0]
   17698: 79 66 08 00 00 00 00 00      	ldxdw r6, [r6 + 0x8]
   176a0: 4f 76 00 00 00 00 00 00      	or64 r6, r7
   176a8: 5f 26 00 00 00 00 00 00      	and64 r6, r2
   176b0: 55 06 02 00 00 00 00 00      	jne r6, 0x0, +0x2 <entrypoint+0x16ea0>
   176b8: 07 04 00 00 10 00 00 00      	add64 r4, 0x10
   176c0: ad 54 f7 ff 00 00 00 00      	jlt r4, r5, -0x9 <entrypoint+0x16e58>
   176c8: 3d 34 09 00 00 00 00 00      	jge r4, r3, +0x9 <entrypoint+0x16ef0>
   176d0: bf 06 00 00 00 00 00 00      	mov64 r6, r0
   176d8: 0f 46 00 00 00 00 00 00      	add64 r6, r4
   176e0: 71 66 00 00 00 00 00 00      	ldxb r6, [r6 + 0x0]
   176e8: 67 06 00 00 38 00 00 00      	lsh64 r6, 0x38
   176f0: c7 06 00 00 38 00 00 00      	arsh64 r6, 0x38
   176f8: c5 06 03 00 00 00 00 00      	jslt r6, 0x0, +0x3 <entrypoint+0x16ef0>
   17700: 07 04 00 00 01 00 00 00      	add64 r4, 0x1
   17708: ad 34 f8 ff 00 00 00 00      	jlt r4, r3, -0x8 <entrypoint+0x16ea8>
   17710: 05 00 4c 00 00 00 00 00      	ja +0x4c <entrypoint+0x17150>
   17718: ad 34 cb ff 00 00 00 00      	jlt r4, r3, -0x35 <entrypoint+0x16d50>
   17720: 05 00 4a 00 00 00 00 00      	ja +0x4a <entrypoint+0x17150>
   17728: b7 08 00 00 00 00 00 00      	mov64 r8, 0x0
   17730: bf 46 00 00 00 00 00 00      	mov64 r6, r4
   17738: 07 06 00 00 01 00 00 00      	add64 r6, 0x1
   17740: 3d 36 4f 00 00 00 00 00      	jge r6, r3, +0x4f <entrypoint+0x17198>
   17748: bf 02 00 00 00 00 00 00      	mov64 r2, r0
   17750: 0f 62 00 00 00 00 00 00      	add64 r2, r6
   17758: 71 26 00 00 00 00 00 00      	ldxb r6, [r2 + 0x0]
   17760: 67 06 00 00 38 00 00 00      	lsh64 r6, 0x38
   17768: c7 06 00 00 38 00 00 00      	arsh64 r6, 0x38
   17770: 15 09 10 00 e0 00 00 00      	jeq r9, 0xe0, +0x10 <entrypoint+0x16fd0>
   17778: 55 09 16 00 ed 00 00 00      	jne r9, 0xed, +0x16 <entrypoint+0x17008>
   17780: d5 06 1c 00 9f ff ff ff      	jsle r6, -0x61, +0x1c <entrypoint+0x17040>
   17788: 05 00 43 00 00 00 00 00      	ja +0x43 <entrypoint+0x17180>
   17790: b7 08 00 00 00 00 00 00      	mov64 r8, 0x0
   17798: bf 46 00 00 00 00 00 00      	mov64 r6, r4
   177a0: 07 06 00 00 01 00 00 00      	add64 r6, 0x1
   177a8: 3d 36 42 00 00 00 00 00      	jge r6, r3, +0x42 <entrypoint+0x17198>
   177b0: bf 02 00 00 00 00 00 00      	mov64 r2, r0
   177b8: 0f 62 00 00 00 00 00 00      	add64 r2, r6
   177c0: 71 26 00 00 00 00 00 00      	ldxb r6, [r2 + 0x0]
   177c8: 67 06 00 00 38 00 00 00      	lsh64 r6, 0x38
   177d0: c7 06 00 00 38 00 00 00      	arsh64 r6, 0x38
   177d8: 15 09 06 00 f0 00 00 00      	jeq r9, 0xf0, +0x6 <entrypoint+0x16fe8>
   177e0: 55 09 1a 00 f4 00 00 00      	jne r9, 0xf4, +0x1a <entrypoint+0x17090>
   177e8: d5 06 1d 00 8f ff ff ff      	jsle r6, -0x71, +0x1d <entrypoint+0x170b0>
   177f0: 05 00 36 00 00 00 00 00      	ja +0x36 <entrypoint+0x17180>
   177f8: 57 06 00 00 e0 ff ff ff      	and64 r6, -0x20
   17800: 15 06 0c 00 a0 ff ff ff      	jeq r6, -0x60, +0xc <entrypoint+0x17040>
   17808: 05 00 33 00 00 00 00 00      	ja +0x33 <entrypoint+0x17180>
   17810: 07 06 00 00 70 00 00 00      	add64 r6, 0x70
   17818: 57 06 00 00 ff 00 00 00      	and64 r6, 0xff
   17820: a5 06 16 00 30 00 00 00      	jlt r6, 0x30, +0x16 <entrypoint+0x170b0>
   17828: 05 00 2f 00 00 00 00 00      	ja +0x2f <entrypoint+0x17180>
   17830: bf 92 00 00 00 00 00 00      	mov64 r2, r9
   17838: 07 02 00 00 1f 00 00 00      	add64 r2, 0x1f
   17840: 57 02 00 00 ff 00 00 00      	and64 r2, 0xff
   17848: a5 02 02 00 0c 00 00 00      	jlt r2, 0xc, +0x2 <entrypoint+0x17038>
   17850: 57 09 00 00 fe 00 00 00      	and64 r9, 0xfe
   17858: 55 09 29 00 ee 00 00 00      	jne r9, 0xee, +0x29 <entrypoint+0x17180>
   17860: 75 06 28 00 c0 ff ff ff      	jsge r6, -0x40, +0x28 <entrypoint+0x17180>
   17868: bf 49 00 00 00 00 00 00      	mov64 r9, r4
   17870: 07 09 00 00 02 00 00 00      	add64 r9, 0x2
   17878: 3d 39 28 00 00 00 00 00      	jge r9, r3, +0x28 <entrypoint+0x17198>
   17880: bf 02 00 00 00 00 00 00      	mov64 r2, r0
   17888: 0f 92 00 00 00 00 00 00      	add64 r2, r9
   17890: 71 22 00 00 00 00 00 00      	ldxb r2, [r2 + 0x0]
   17898: 67 02 00 00 38 00 00 00      	lsh64 r2, 0x38
   178a0: c7 02 00 00 38 00 00 00      	arsh64 r2, 0x38
   178a8: d5 02 94 ff bf ff ff ff      	jsle r2, -0x41, -0x6c <entrypoint+0x16d28>
   178b0: 05 00 1d 00 00 00 00 00      	ja +0x1d <entrypoint+0x17178>
   178b8: 07 09 00 00 0f 00 00 00      	add64 r9, 0xf
   178c0: 57 09 00 00 ff 00 00 00      	and64 r9, 0xff
   178c8: 25 09 1b 00 02 00 00 00      	jgt r9, 0x2, +0x1b <entrypoint+0x17180>
   178d0: 75 06 1a 00 c0 ff ff ff      	jsge r6, -0x40, +0x1a <entrypoint+0x17180>
   178d8: bf 46 00 00 00 00 00 00      	mov64 r6, r4
   178e0: 07 06 00 00 02 00 00 00      	add64 r6, 0x2
   178e8: 3d 36 1a 00 00 00 00 00      	jge r6, r3, +0x1a <entrypoint+0x17198>
   178f0: bf 02 00 00 00 00 00 00      	mov64 r2, r0
   178f8: 0f 62 00 00 00 00 00 00      	add64 r2, r6
   17900: 71 22 00 00 00 00 00 00      	ldxb r2, [r2 + 0x0]
   17908: 67 02 00 00 38 00 00 00      	lsh64 r2, 0x38
   17910: c7 02 00 00 38 00 00 00      	arsh64 r2, 0x38
   17918: 65 02 10 00 bf ff ff ff      	jsgt r2, -0x41, +0x10 <entrypoint+0x17178>
   17920: bf 49 00 00 00 00 00 00      	mov64 r9, r4
   17928: 07 09 00 00 03 00 00 00      	add64 r9, 0x3
   17930: 3d 39 11 00 00 00 00 00      	jge r9, r3, +0x11 <entrypoint+0x17198>
   17938: bf 02 00 00 00 00 00 00      	mov64 r2, r0
   17940: 0f 92 00 00 00 00 00 00      	add64 r2, r9
   17948: 71 22 00 00 00 00 00 00      	ldxb r2, [r2 + 0x0]
   17950: 67 02 00 00 38 00 00 00      	lsh64 r2, 0x38
   17958: c7 02 00 00 38 00 00 00      	arsh64 r2, 0x38
   17960: c5 02 7d ff c0 ff ff ff      	jslt r2, -0x40, -0x83 <entrypoint+0x16d28>
   17968: b7 07 00 00 03 00 00 00      	mov64 r7, 0x3
   17970: 05 00 06 00 00 00 00 00      	ja +0x6 <entrypoint+0x17180>
   17978: 79 a2 f8 ff 00 00 00 00      	ldxdw r2, [r10 - 0x8]
   17980: 7b 32 10 00 00 00 00 00      	stxdw [r2 + 0x10], r3
   17988: 7b 02 08 00 00 00 00 00      	stxdw [r2 + 0x8], r0
   17990: b7 01 00 00 00 00 00 00      	mov64 r1, 0x0
   17998: 05 00 09 00 00 00 00 00      	ja +0x9 <entrypoint+0x171c0>
   179a0: b7 07 00 00 02 00 00 00      	mov64 r7, 0x2
   179a8: b7 08 00 00 01 00 00 00      	mov64 r8, 0x1
   179b0: 05 00 01 00 00 00 00 00      	ja +0x1 <entrypoint+0x17198>
   179b8: b7 08 00 00 00 00 00 00      	mov64 r8, 0x0
   179c0: 79 a2 f8 ff 00 00 00 00      	ldxdw r2, [r10 - 0x8]
   179c8: 73 72 11 00 00 00 00 00      	stxb [r2 + 0x11], r7
   179d0: 73 82 10 00 00 00 00 00      	stxb [r2 + 0x10], r8
   179d8: 7b 42 08 00 00 00 00 00      	stxdw [r2 + 0x8], r4
   179e0: b7 01 00 00 01 00 00 00      	mov64 r1, 0x1
   179e8: 7b 12 00 00 00 00 00 00      	stxdw [r2 + 0x0], r1
   179f0: 95 00 00 00 00 00 00 00      	exit
   179f8: bf 17 00 00 00 00 00 00      	mov64 r7, r1
   17a00: 07 07 00 00 07 00 00 00      	add64 r7, 0x7
   17a08: 57 07 00 00 f8 ff ff ff      	and64 r7, -0x8
   17a10: bf 73 00 00 00 00 00 00      	mov64 r3, r7
   17a18: 1f 13 00 00 00 00 00 00      	sub64 r3, r1
   17a20: 3d 32 0e 00 00 00 00 00      	jge r2, r3, +0xe <entrypoint+0x17270>
   17a28: b7 00 00 00 00 00 00 00      	mov64 r0, 0x0
   17a30: 55 02 05 00 00 00 00 00      	jne r2, 0x0, +0x5 <entrypoint+0x17238>
   17a38: 05 00 af 00 00 00 00 00      	ja +0xaf <entrypoint+0x17790>
   17a40: 0f 30 00 00 00 00 00 00      	add64 r0, r3
   17a48: 07 01 00 00 01 00 00 00      	add64 r1, 0x1
   17a50: 07 02 00 00 ff ff ff ff      	add64 r2, -0x1
   17a58: 15 02 ab 00 00 00 00 00      	jeq r2, 0x0, +0xab <entrypoint+0x17790>
   17a60: 71 14 00 00 00 00 00 00      	ldxb r4, [r1 + 0x0]
   17a68: 67 04 00 00 38 00 00 00      	lsh64 r4, 0x38
   17a70: c7 04 00 00 38 00 00 00      	arsh64 r4, 0x38
   17a78: b7 03 00 00 01 00 00 00      	mov64 r3, 0x1
   17a80: 65 04 f7 ff bf ff ff ff      	jsgt r4, -0x41, -0x9 <entrypoint+0x17218>
   17a88: b7 03 00 00 00 00 00 00      	mov64 r3, 0x0
   17a90: 05 00 f5 ff 00 00 00 00      	ja -0xb <entrypoint+0x17218>
   17a98: bf 25 00 00 00 00 00 00      	mov64 r5, r2
   17aa0: 1f 35 00 00 00 00 00 00      	sub64 r5, r3
   17aa8: a5 05 ef ff 08 00 00 00      	jlt r5, 0x8, -0x11 <entrypoint+0x17200>
   17ab0: 7b 3a f8 ff 00 00 00 00      	stxdw [r10 - 0x8], r3
   17ab8: bf 52 00 00 00 00 00 00      	mov64 r2, r5
   17ac0: 57 02 00 00 07 00 00 00      	and64 r2, 0x7
   17ac8: b7 00 00 00 00 00 00 00      	mov64 r0, 0x0
   17ad0: b7 03 00 00 00 00 00 00      	mov64 r3, 0x0
   17ad8: 5d 17 62 00 00 00 00 00      	jne r7, r1, +0x62 <entrypoint+0x175c8>
   17ae0: 79 a4 f8 ff 00 00 00 00      	ldxdw r4, [r10 - 0x8]
   17ae8: 0f 41 00 00 00 00 00 00      	add64 r1, r4
   17af0: 15 02 11 00 00 00 00 00      	jeq r2, 0x0, +0x11 <entrypoint+0x17358>
   17af8: bf 50 00 00 00 00 00 00      	mov64 r0, r5
   17b00: 57 00 00 00 f8 ff ff ff      	and64 r0, -0x8
   17b08: bf 14 00 00 00 00 00 00      	mov64 r4, r1
   17b10: 0f 04 00 00 00 00 00 00      	add64 r4, r0
   17b18: b7 00 00 00 00 00 00 00      	mov64 r0, 0x0
   17b20: 05 00 04 00 00 00 00 00      	ja +0x4 <entrypoint+0x17320>
   17b28: 0f 60 00 00 00 00 00 00      	add64 r0, r6
   17b30: 07 04 00 00 01 00 00 00      	add64 r4, 0x1
   17b38: 07 02 00 00 ff ff ff ff      	add64 r2, -0x1
   17b40: 15 02 07 00 00 00 00 00      	jeq r2, 0x0, +0x7 <entrypoint+0x17358>
   17b48: 71 47 00 00 00 00 00 00      	ldxb r7, [r4 + 0x0]
   17b50: 67 07 00 00 38 00 00 00      	lsh64 r7, 0x38
   17b58: c7 07 00 00 38 00 00 00      	arsh64 r7, 0x38
   17b60: b7 06 00 00 01 00 00 00      	mov64 r6, 0x1
   17b68: 65 07 f7 ff bf ff ff ff      	jsgt r7, -0x41, -0x9 <entrypoint+0x17300>
   17b70: b7 06 00 00 00 00 00 00      	mov64 r6, 0x0
   17b78: 05 00 f5 ff 00 00 00 00      	ja -0xb <entrypoint+0x17300>
   17b80: 77 05 00 00 03 00 00 00      	rsh64 r5, 0x3
   17b88: 0f 30 00 00 00 00 00 00      	add64 r0, r3
   17b90: 18 09 00 00 01 01 01 01 00 00 00 00 01 01 01 01      	lddw r9, 0x101010101010101
   17ba0: 05 00 16 00 00 00 00 00      	ja +0x16 <entrypoint+0x17430>
   17ba8: bf 71 00 00 00 00 00 00      	mov64 r1, r7
   17bb0: 0f 51 00 00 00 00 00 00      	add64 r1, r5
   17bb8: 79 a2 f8 ff 00 00 00 00      	ldxdw r2, [r10 - 0x8]
   17bc0: 7b 7a f0 ff 00 00 00 00      	stxdw [r10 - 0x10], r7
   17bc8: bf 27 00 00 00 00 00 00      	mov64 r7, r2
   17bd0: 57 07 00 00 03 00 00 00      	and64 r7, 0x3
   17bd8: bf 35 00 00 00 00 00 00      	mov64 r5, r3
   17be0: 1f 25 00 00 00 00 00 00      	sub64 r5, r2
   17be8: bf 46 00 00 00 00 00 00      	mov64 r6, r4
   17bf0: 18 08 00 00 ff 00 ff 00 00 00 00 00 ff 00 ff 00      	lddw r8, 0xff00ff00ff00ff
   17c00: 5f 86 00 00 00 00 00 00      	and64 r6, r8
   17c08: 77 04 00 00 08 00 00 00      	rsh64 r4, 0x8
   17c10: 5f 84 00 00 00 00 00 00      	and64 r4, r8
   17c18: 0f 64 00 00 00 00 00 00      	add64 r4, r6
   17c20: 18 06 00 00 01 00 01 00 00 00 00 00 01 00 01 00      	lddw r6, 0x1000100010001
   17c30: 2f 64 00 00 00 00 00 00      	mul64 r4, r6
   17c38: 77 04 00 00 30 00 00 00      	rsh64 r4, 0x30
   17c40: 0f 04 00 00 00 00 00 00      	add64 r4, r0
   17c48: bf 40 00 00 00 00 00 00      	mov64 r0, r4
   17c50: 55 07 48 00 00 00 00 00      	jne r7, 0x0, +0x48 <entrypoint+0x17670>
   17c58: bf 53 00 00 00 00 00 00      	mov64 r3, r5
   17c60: bf 17 00 00 00 00 00 00      	mov64 r7, r1
   17c68: 15 03 69 00 00 00 00 00      	jeq r3, 0x0, +0x69 <entrypoint+0x17790>
   17c70: bf 31 00 00 00 00 00 00      	mov64 r1, r3
   17c78: a5 03 01 00 c0 00 00 00      	jlt r3, 0xc0, +0x1 <entrypoint+0x17460>
   17c80: b7 01 00 00 c0 00 00 00      	mov64 r1, 0xc0
   17c88: 7b 1a f8 ff 00 00 00 00      	stxdw [r10 - 0x8], r1
   17c90: bf 15 00 00 00 00 00 00      	mov64 r5, r1
   17c98: 67 05 00 00 03 00 00 00      	lsh64 r5, 0x3
   17ca0: b7 04 00 00 00 00 00 00      	mov64 r4, 0x0
   17ca8: a5 03 df ff 04 00 00 00      	jlt r3, 0x4, -0x21 <entrypoint+0x17380>
   17cb0: bf 52 00 00 00 00 00 00      	mov64 r2, r5
   17cb8: 57 02 00 00 e0 07 00 00      	and64 r2, 0x7e0
   17cc0: bf 71 00 00 00 00 00 00      	mov64 r1, r7
   17cc8: 0f 21 00 00 00 00 00 00      	add64 r1, r2
   17cd0: bf 72 00 00 00 00 00 00      	mov64 r2, r7
   17cd8: 79 26 00 00 00 00 00 00      	ldxdw r6, [r2 + 0x0]
   17ce0: bf 68 00 00 00 00 00 00      	mov64 r8, r6
   17ce8: 77 08 00 00 06 00 00 00      	rsh64 r8, 0x6
   17cf0: a7 06 00 00 ff ff ff ff      	xor64 r6, -0x1
   17cf8: 77 06 00 00 07 00 00 00      	rsh64 r6, 0x7
   17d00: 4f 86 00 00 00 00 00 00      	or64 r6, r8
   17d08: 5f 96 00 00 00 00 00 00      	and64 r6, r9
   17d10: 0f 46 00 00 00 00 00 00      	add64 r6, r4
   17d18: 79 24 08 00 00 00 00 00      	ldxdw r4, [r2 + 0x8]
   17d20: bf 48 00 00 00 00 00 00      	mov64 r8, r4
   17d28: 77 08 00 00 06 00 00 00      	rsh64 r8, 0x6
   17d30: a7 04 00 00 ff ff ff ff      	xor64 r4, -0x1
   17d38: 77 04 00 00 07 00 00 00      	rsh64 r4, 0x7
   17d40: 4f 84 00 00 00 00 00 00      	or64 r4, r8
   17d48: 5f 94 00 00 00 00 00 00      	and64 r4, r9
   17d50: 0f 64 00 00 00 00 00 00      	add64 r4, r6
   17d58: 79 26 10 00 00 00 00 00      	ldxdw r6, [r2 + 0x10]
   17d60: bf 68 00 00 00 00 00 00      	mov64 r8, r6
   17d68: 77 08 00 00 06 00 00 00      	rsh64 r8, 0x6
   17d70: a7 06 00 00 ff ff ff ff      	xor64 r6, -0x1
   17d78: 77 06 00 00 07 00 00 00      	rsh64 r6, 0x7
   17d80: 4f 86 00 00 00 00 00 00      	or64 r6, r8
   17d88: 5f 96 00 00 00 00 00 00      	and64 r6, r9
   17d90: 0f 46 00 00 00 00 00 00      	add64 r6, r4
   17d98: 79 24 18 00 00 00 00 00      	ldxdw r4, [r2 + 0x18]
   17da0: bf 48 00 00 00 00 00 00      	mov64 r8, r4
   17da8: 77 08 00 00 06 00 00 00      	rsh64 r8, 0x6
   17db0: a7 04 00 00 ff ff ff ff      	xor64 r4, -0x1
   17db8: 77 04 00 00 07 00 00 00      	rsh64 r4, 0x7
   17dc0: 4f 84 00 00 00 00 00 00      	or64 r4, r8
   17dc8: 5f 94 00 00 00 00 00 00      	and64 r4, r9
   17dd0: 0f 64 00 00 00 00 00 00      	add64 r4, r6
   17dd8: 07 02 00 00 20 00 00 00      	add64 r2, 0x20
   17de0: 5d 12 de ff 00 00 00 00      	jne r2, r1, -0x22 <entrypoint+0x174b0>
   17de8: 05 00 b7 ff 00 00 00 00      	ja -0x49 <entrypoint+0x17380>
   17df0: bf 16 00 00 00 00 00 00      	mov64 r6, r1
   17df8: 1f 76 00 00 00 00 00 00      	sub64 r6, r7
   17e00: bf 17 00 00 00 00 00 00      	mov64 r7, r1
   17e08: 05 00 03 00 00 00 00 00      	ja +0x3 <entrypoint+0x17600>
   17e10: 0f 93 00 00 00 00 00 00      	add64 r3, r9
   17e18: 07 07 00 00 01 00 00 00      	add64 r7, 0x1
   17e20: 15 08 97 ff 01 00 00 00      	jeq r8, 0x1, -0x69 <entrypoint+0x172b8>
   17e28: 71 74 00 00 00 00 00 00      	ldxb r4, [r7 + 0x0]
   17e30: 67 04 00 00 38 00 00 00      	lsh64 r4, 0x38
   17e38: c7 04 00 00 38 00 00 00      	arsh64 r4, 0x38
   17e40: b7 08 00 00 01 00 00 00      	mov64 r8, 0x1
   17e48: b7 09 00 00 01 00 00 00      	mov64 r9, 0x1
   17e50: d5 04 03 00 bf ff ff ff      	jsle r4, -0x41, +0x3 <entrypoint+0x17648>
   17e58: 07 06 00 00 01 00 00 00      	add64 r6, 0x1
   17e60: 15 06 f5 ff 00 00 00 00      	jeq r6, 0x0, -0xb <entrypoint+0x175e8>
   17e68: 05 00 03 00 00 00 00 00      	ja +0x3 <entrypoint+0x17660>
   17e70: b7 09 00 00 00 00 00 00      	mov64 r9, 0x0
   17e78: 07 06 00 00 01 00 00 00      	add64 r6, 0x1
   17e80: 15 06 f1 ff 00 00 00 00      	jeq r6, 0x0, -0xf <entrypoint+0x175e8>
   17e88: b7 08 00 00 00 00 00 00      	mov64 r8, 0x0
   17e90: 05 00 ef ff 00 00 00 00      	ja -0x11 <entrypoint+0x175e8>
   17e98: 79 a8 f0 ff 00 00 00 00      	ldxdw r8, [r10 - 0x10]
   17ea0: 57 02 00 00 fc 00 00 00      	and64 r2, 0xfc
   17ea8: 67 02 00 00 03 00 00 00      	lsh64 r2, 0x3
   17eb0: a5 03 01 00 c0 00 00 00      	jlt r3, 0xc0, +0x1 <entrypoint+0x17698>
   17eb8: b7 03 00 00 c0 00 00 00      	mov64 r3, 0xc0
   17ec0: bf 86 00 00 00 00 00 00      	mov64 r6, r8
   17ec8: 0f 26 00 00 00 00 00 00      	add64 r6, r2
   17ed0: b7 02 00 00 00 00 00 00      	mov64 r2, 0x0
   17ed8: 57 03 00 00 03 00 00 00      	and64 r3, 0x3
   17ee0: 67 03 00 00 03 00 00 00      	lsh64 r3, 0x3
   17ee8: 18 01 00 00 01 01 01 01 00 00 00 00 01 01 01 01      	lddw r1, 0x101010101010101
   17ef8: 79 60 00 00 00 00 00 00      	ldxdw r0, [r6 + 0x0]
   17f00: bf 05 00 00 00 00 00 00      	mov64 r5, r0
   17f08: 77 05 00 00 06 00 00 00      	rsh64 r5, 0x6
   17f10: a7 00 00 00 ff ff ff ff      	xor64 r0, -0x1
   17f18: 77 00 00 00 07 00 00 00      	rsh64 r0, 0x7
   17f20: 4f 50 00 00 00 00 00 00      	or64 r0, r5
   17f28: 5f 10 00 00 00 00 00 00      	and64 r0, r1
   17f30: 0f 20 00 00 00 00 00 00      	add64 r0, r2
   17f38: 07 06 00 00 08 00 00 00      	add64 r6, 0x8
   17f40: 07 03 00 00 f8 ff ff ff      	add64 r3, -0x8
   17f48: bf 02 00 00 00 00 00 00      	mov64 r2, r0
   17f50: 55 03 f4 ff 00 00 00 00      	jne r3, 0x0, -0xc <entrypoint+0x176d0>
   17f58: 18 01 00 00 ff 00 ff 00 00 00 00 00 ff 00 ff 00      	lddw r1, 0xff00ff00ff00ff
   17f68: bf 02 00 00 00 00 00 00      	mov64 r2, r0
   17f70: 5f 12 00 00 00 00 00 00      	and64 r2, r1
   17f78: 77 00 00 00 08 00 00 00      	rsh64 r0, 0x8
   17f80: 5f 10 00 00 00 00 00 00      	and64 r0, r1
   17f88: 0f 20 00 00 00 00 00 00      	add64 r0, r2
   17f90: 18 01 00 00 01 00 01 00 00 00 00 00 01 00 01 00      	lddw r1, 0x1000100010001
   17fa0: 2f 10 00 00 00 00 00 00      	mul64 r0, r1
   17fa8: 77 00 00 00 30 00 00 00      	rsh64 r0, 0x30
   17fb0: 0f 40 00 00 00 00 00 00      	add64 r0, r4
   17fb8: 95 00 00 00 00 00 00 00      	exit
   17fc0: bf 26 00 00 00 00 00 00      	mov64 r6, r2
   17fc8: 79 11 00 00 00 00 00 00      	ldxdw r1, [r1 + 0x0]
   17fd0: bf a2 00 00 00 00 00 00      	mov64 r2, r10
   17fd8: 07 02 00 00 ec ff ff ff      	add64 r2, -0x14
   17fe0: b7 03 00 00 14 00 00 00      	mov64 r3, 0x14
   17fe8: 85 10 00 00 09 00 00 00      	call 0x9
   17ff0: 7b 1a 08 f0 00 00 00 00      	stxdw [r10 - 0xff8], r1
   17ff8: 7b 0a 00 f0 00 00 00 00      	stxdw [r10 - 0x1000], r0
   18000: bf a5 00 00 00 00 00 00      	mov64 r5, r10
   18008: bf 61 00 00 00 00 00 00      	mov64 r1, r6
   18010: b7 02 00 00 01 00 00 00      	mov64 r2, 0x1
   18018: b7 03 00 00 01 00 00 00      	mov64 r3, 0x1
   18020: b7 04 00 00 00 00 00 00      	mov64 r4, 0x0
   18028: 85 10 00 00 77 fd ff ff      	call -0x289
   18030: 95 00 00 00 00 00 00 00      	exit
   18038: bf 20 00 00 00 00 00 00      	mov64 r0, r2
   18040: bf 14 00 00 00 00 00 00      	mov64 r4, r1
   18048: 7b 3a f8 ff 00 00 00 00      	stxdw [r10 - 0x8], r3
   18050: bf 32 00 00 00 00 00 00      	mov64 r2, r3
   18058: a5 01 25 00 e8 03 00 00      	jlt r1, 0x3e8, +0x25 <entrypoint+0x17960>
   18060: bf 05 00 00 00 00 00 00      	mov64 r5, r0
   18068: 07 05 00 00 fe ff ff ff      	add64 r5, -0x2
   18070: 79 a2 f8 ff 00 00 00 00      	ldxdw r2, [r10 - 0x8]
   18078: bf 14 00 00 00 00 00 00      	mov64 r4, r1
   18080: bf 46 00 00 00 00 00 00      	mov64 r6, r4
   18088: 37 04 00 00 10 27 00 00      	div64 r4, 0x2710
   18090: bf 47 00 00 00 00 00 00      	mov64 r7, r4
   18098: 27 07 00 00 10 27 00 00      	mul64 r7, 0x2710
   180a0: bf 68 00 00 00 00 00 00      	mov64 r8, r6
   180a8: 1f 78 00 00 00 00 00 00      	sub64 r8, r7
   180b0: bf 87 00 00 00 00 00 00      	mov64 r7, r8
   180b8: 57 07 00 00 ff ff 00 00      	and64 r7, 0xffff
   180c0: 37 07 00 00 64 00 00 00      	div64 r7, 0x64
   180c8: bf 79 00 00 00 00 00 00      	mov64 r9, r7
   180d0: 27 09 00 00 64 00 00 00      	mul64 r9, 0x64
   180d8: 1f 98 00 00 00 00 00 00      	sub64 r8, r9
   180e0: 67 08 00 00 01 00 00 00      	lsh64 r8, 0x1
   180e8: 57 08 00 00 fe ff 00 00      	and64 r8, 0xfffe
   180f0: 67 07 00 00 01 00 00 00      	lsh64 r7, 0x1
   180f8: 18 09 00 00 cd 99 01 00 00 00 00 00 00 00 00 00      	lddw r9, 0x199cd
   18108: 0f 89 00 00 00 00 00 00      	add64 r9, r8
   18110: 18 08 00 00 cd 99 01 00 00 00 00 00 00 00 00 00      	lddw r8, 0x199cd
   18120: 0f 78 00 00 00 00 00 00      	add64 r8, r7
   18128: bf 57 00 00 00 00 00 00      	mov64 r7, r5
   18130: 0f 27 00 00 00 00 00 00      	add64 r7, r2
   18138: 71 83 01 00 00 00 00 00      	ldxb r3, [r8 + 0x1]
   18140: 73 37 ff ff 00 00 00 00      	stxb [r7 - 0x1], r3
   18148: 71 83 00 00 00 00 00 00      	ldxb r3, [r8 + 0x0]
   18150: 73 37 fe ff 00 00 00 00      	stxb [r7 - 0x2], r3
   18158: 71 93 01 00 00 00 00 00      	ldxb r3, [r9 + 0x1]
   18160: 73 37 01 00 00 00 00 00      	stxb [r7 + 0x1], r3
   18168: 71 93 00 00 00 00 00 00      	ldxb r3, [r9 + 0x0]
   18170: 73 37 00 00 00 00 00 00      	stxb [r7 + 0x0], r3
   18178: 07 02 00 00 fc ff ff ff      	add64 r2, -0x4
   18180: 25 06 df ff 7f 96 98 00      	jgt r6, 0x98967f, -0x21 <entrypoint+0x17858>
   18188: b5 04 16 00 09 00 00 00      	jle r4, 0x9, +0x16 <entrypoint+0x17a18>
   18190: bf 45 00 00 00 00 00 00      	mov64 r5, r4
   18198: 57 05 00 00 ff ff 00 00      	and64 r5, 0xffff
   181a0: 37 05 00 00 64 00 00 00      	div64 r5, 0x64
   181a8: bf 53 00 00 00 00 00 00      	mov64 r3, r5
   181b0: 27 03 00 00 64 00 00 00      	mul64 r3, 0x64
   181b8: 1f 34 00 00 00 00 00 00      	sub64 r4, r3
   181c0: 67 04 00 00 01 00 00 00      	lsh64 r4, 0x1
   181c8: 57 04 00 00 fe ff 00 00      	and64 r4, 0xfffe
   181d0: 18 03 00 00 cd 99 01 00 00 00 00 00 00 00 00 00      	lddw r3, 0x199cd
   181e0: 0f 43 00 00 00 00 00 00      	add64 r3, r4
   181e8: bf 04 00 00 00 00 00 00      	mov64 r4, r0
   181f0: 0f 24 00 00 00 00 00 00      	add64 r4, r2
   181f8: 71 36 01 00 00 00 00 00      	ldxb r6, [r3 + 0x1]
   18200: 73 64 ff ff 00 00 00 00      	stxb [r4 - 0x1], r6
   18208: 07 02 00 00 fe ff ff ff      	add64 r2, -0x2
   18210: bf 04 00 00 00 00 00 00      	mov64 r4, r0
   18218: 0f 24 00 00 00 00 00 00      	add64 r4, r2
   18220: 71 33 00 00 00 00 00 00      	ldxb r3, [r3 + 0x0]
   18228: 73 34 00 00 00 00 00 00      	stxb [r4 + 0x0], r3
   18230: 55 01 03 00 00 00 00 00      	jne r1, 0x0, +0x3 <entrypoint+0x17a28>
   18238: 05 00 03 00 00 00 00 00      	ja +0x3 <entrypoint+0x17a30>
   18240: bf 45 00 00 00 00 00 00      	mov64 r5, r4
   18248: 15 01 01 00 00 00 00 00      	jeq r1, 0x0, +0x1 <entrypoint+0x17a30>
   18250: 15 05 0a 00 00 00 00 00      	jeq r5, 0x0, +0xa <entrypoint+0x17a80>
   18258: 67 05 00 00 01 00 00 00      	lsh64 r5, 0x1
   18260: 57 05 00 00 1e 00 00 00      	and64 r5, 0x1e
   18268: 18 01 00 00 cd 99 01 00 00 00 00 00 00 00 00 00      	lddw r1, 0x199cd
   18278: 0f 51 00 00 00 00 00 00      	add64 r1, r5
   18280: 07 02 00 00 ff ff ff ff      	add64 r2, -0x1
   18288: bf 03 00 00 00 00 00 00      	mov64 r3, r0
   18290: 0f 23 00 00 00 00 00 00      	add64 r3, r2
   18298: 71 11 01 00 00 00 00 00      	ldxb r1, [r1 + 0x1]
   182a0: 73 13 00 00 00 00 00 00      	stxb [r3 + 0x0], r1
   182a8: 0f 20 00 00 00 00 00 00      	add64 r0, r2
   182b0: 79 a1 f8 ff 00 00 00 00      	ldxdw r1, [r10 - 0x8]
   182b8: 1f 21 00 00 00 00 00 00      	sub64 r1, r2
   182c0: 95 00 00 00 00 00 00 00      	exit
   182c8: 7b 2a a8 ff 00 00 00 00      	stxdw [r10 - 0x58], r2
   182d0: 7b 1a a0 ff 00 00 00 00      	stxdw [r10 - 0x60], r1
   182d8: 18 01 00 00 f0 9c 01 00 00 00 00 00 00 00 00 00      	lddw r1, 0x19cf0
   182e8: 7b 1a b0 ff 00 00 00 00      	stxdw [r10 - 0x50], r1
   182f0: bf a1 00 00 00 00 00 00      	mov64 r1, r10
   182f8: 07 01 00 00 e0 ff ff ff      	add64 r1, -0x20
   18300: 7b 1a c0 ff 00 00 00 00      	stxdw [r10 - 0x40], r1
   18308: bf a1 00 00 00 00 00 00      	mov64 r1, r10
   18310: 07 01 00 00 a8 ff ff ff      	add64 r1, -0x58
   18318: 7b 1a f0 ff 00 00 00 00      	stxdw [r10 - 0x10], r1
   18320: 18 01 00 00 c0 7f 01 00 00 00 00 00 00 00 00 00      	lddw r1, 0x17fc0
   18330: 7b 1a f8 ff 00 00 00 00      	stxdw [r10 - 0x8], r1
   18338: 7b 1a e8 ff 00 00 00 00      	stxdw [r10 - 0x18], r1
   18340: bf a1 00 00 00 00 00 00      	mov64 r1, r10
   18348: 07 01 00 00 a0 ff ff ff      	add64 r1, -0x60
   18350: 7b 1a e0 ff 00 00 00 00      	stxdw [r10 - 0x20], r1
   18358: 7a 0a d0 ff 00 00 00 00      	stdw [r10 - 0x30], 0x0
   18360: 7a 0a b8 ff 02 00 00 00      	stdw [r10 - 0x48], 0x2
   18368: 7a 0a c8 ff 02 00 00 00      	stdw [r10 - 0x38], 0x2
   18370: bf a1 00 00 00 00 00 00      	mov64 r1, r10
   18378: 07 01 00 00 b0 ff ff ff      	add64 r1, -0x50
   18380: bf 32 00 00 00 00 00 00      	mov64 r2, r3
   18388: 85 10 00 00 df fc ff ff      	call -0x321
   18390: bf 16 00 00 00 00 00 00      	mov64 r6, r1
   18398: 57 02 00 00 ff 00 00 00      	and64 r2, 0xff
   183a0: 85 10 00 00 ff ff ff ff      	call -0x1
   183a8: bf 60 00 00 00 00 00 00      	mov64 r0, r6
   183b0: 95 00 00 00 00 00 00 00      	exit
   183b8: 62 0a fc ff 00 00 00 00      	stw [r10 - 0x4], 0x0
   183c0: bf a4 00 00 00 00 00 00      	mov64 r4, r10
   183c8: 07 04 00 00 fc ff ff ff      	add64 r4, -0x4
   183d0: 85 10 00 00 ff ff ff ff      	call -0x1
   183d8: 61 a0 fc ff 00 00 00 00      	ldxw r0, [r10 - 0x4]
   183e0: 67 00 00 00 20 00 00 00      	lsh64 r0, 0x20
   183e8: c7 00 00 00 20 00 00 00      	arsh64 r0, 0x20
   183f0: 95 00 00 00 00 00 00 00      	exit
   183f8: 15 01 3d 00 00 00 00 00      	jeq r1, 0x0, +0x3d <entrypoint+0x17dc0>
   18400: bf 13 00 00 00 00 00 00      	mov64 r3, r1
   18408: 77 03 00 00 01 00 00 00      	rsh64 r3, 0x1
   18410: bf 12 00 00 00 00 00 00      	mov64 r2, r1
   18418: 4f 32 00 00 00 00 00 00      	or64 r2, r3
   18420: bf 23 00 00 00 00 00 00      	mov64 r3, r2
   18428: 77 03 00 00 02 00 00 00      	rsh64 r3, 0x2
   18430: 4f 32 00 00 00 00 00 00      	or64 r2, r3
   18438: bf 23 00 00 00 00 00 00      	mov64 r3, r2
   18440: 77 03 00 00 04 00 00 00      	rsh64 r3, 0x4
   18448: 4f 32 00 00 00 00 00 00      	or64 r2, r3
   18450: bf 23 00 00 00 00 00 00      	mov64 r3, r2
   18458: 77 03 00 00 08 00 00 00      	rsh64 r3, 0x8
   18460: 4f 32 00 00 00 00 00 00      	or64 r2, r3
   18468: bf 23 00 00 00 00 00 00      	mov64 r3, r2
   18470: 77 03 00 00 10 00 00 00      	rsh64 r3, 0x10
   18478: 4f 32 00 00 00 00 00 00      	or64 r2, r3
   18480: bf 23 00 00 00 00 00 00      	mov64 r3, r2
   18488: 77 03 00 00 20 00 00 00      	rsh64 r3, 0x20
   18490: 4f 32 00 00 00 00 00 00      	or64 r2, r3
   18498: a7 02 00 00 ff ff ff ff      	xor64 r2, -0x1
   184a0: 18 03 00 00 55 55 55 55 00 00 00 00 55 55 55 55      	lddw r3, 0x5555555555555555
   184b0: bf 24 00 00 00 00 00 00      	mov64 r4, r2
   184b8: 77 04 00 00 01 00 00 00      	rsh64 r4, 0x1
   184c0: 5f 34 00 00 00 00 00 00      	and64 r4, r3
   184c8: 1f 42 00 00 00 00 00 00      	sub64 r2, r4
   184d0: 18 04 00 00 33 33 33 33 00 00 00 00 33 33 33 33      	lddw r4, 0x3333333333333333
   184e0: bf 23 00 00 00 00 00 00      	mov64 r3, r2
   184e8: 5f 43 00 00 00 00 00 00      	and64 r3, r4
   184f0: 77 02 00 00 02 00 00 00      	rsh64 r2, 0x2
   184f8: 5f 42 00 00 00 00 00 00      	and64 r2, r4
   18500: 0f 23 00 00 00 00 00 00      	add64 r3, r2
   18508: bf 32 00 00 00 00 00 00      	mov64 r2, r3
   18510: 77 02 00 00 04 00 00 00      	rsh64 r2, 0x4
   18518: 0f 23 00 00 00 00 00 00      	add64 r3, r2
   18520: 18 02 00 00 0f 0f 0f 0f 00 00 00 00 0f 0f 0f 0f      	lddw r2, 0xf0f0f0f0f0f0f0f
   18530: 5f 23 00 00 00 00 00 00      	and64 r3, r2
   18538: 18 02 00 00 01 01 01 01 00 00 00 00 01 01 01 01      	lddw r2, 0x101010101010101
   18548: 2f 23 00 00 00 00 00 00      	mul64 r3, r2
   18550: 77 03 00 00 38 00 00 00      	rsh64 r3, 0x38
   18558: 6f 31 00 00 00 00 00 00      	lsh64 r1, r3
   18560: 67 03 00 00 34 00 00 00      	lsh64 r3, 0x34
   18568: bf 12 00 00 00 00 00 00      	mov64 r2, r1
   18570: 77 02 00 00 0b 00 00 00      	rsh64 r2, 0xb
   18578: bf 20 00 00 00 00 00 00      	mov64 r0, r2
   18580: 1f 30 00 00 00 00 00 00      	sub64 r0, r3
   18588: a7 02 00 00 ff ff ff ff      	xor64 r2, -0x1
   18590: 67 01 00 00 35 00 00 00      	lsh64 r1, 0x35
   18598: bf 13 00 00 00 00 00 00      	mov64 r3, r1
   185a0: 77 03 00 00 3f 00 00 00      	rsh64 r3, 0x3f
   185a8: 5f 23 00 00 00 00 00 00      	and64 r3, r2
   185b0: 1f 31 00 00 00 00 00 00      	sub64 r1, r3
   185b8: 77 01 00 00 3f 00 00 00      	rsh64 r1, 0x3f
   185c0: 0f 10 00 00 00 00 00 00      	add64 r0, r1
   185c8: 18 01 00 00 00 00 00 00 00 00 00 00 00 00 d0 43      	lddw r1, 0x43d0000000000000
   185d8: 0f 10 00 00 00 00 00 00      	add64 r0, r1
   185e0: 05 00 01 00 00 00 00 00      	ja +0x1 <entrypoint+0x17dc8>
   185e8: b7 00 00 00 00 00 00 00      	mov64 r0, 0x0
   185f0: 95 00 00 00 00 00 00 00      	exit
   185f8: b7 03 00 00 03 00 00 00      	mov64 r3, 0x3
   18600: 18 00 00 00 ff ff ff ff 00 00 00 00 ff ff ff 7f      	lddw r0, 0x7fffffffffffffff
   18610: bf 14 00 00 00 00 00 00      	mov64 r4, r1
   18618: 5f 04 00 00 00 00 00 00      	and64 r4, r0
   18620: 18 06 00 00 00 00 00 00 00 00 00 00 00 00 f0 7f      	lddw r6, 0x7ff0000000000000
   18630: 2d 64 12 00 00 00 00 00      	jgt r4, r6, +0x12 <entrypoint+0x17ea0>
   18638: bf 25 00 00 00 00 00 00      	mov64 r5, r2
   18640: 5f 05 00 00 00 00 00 00      	and64 r5, r0
   18648: 2d 65 0f 00 00 00 00 00      	jgt r5, r6, +0xf <entrypoint+0x17ea0>
   18650: 4f 45 00 00 00 00 00 00      	or64 r5, r4
   18658: 15 05 06 00 00 00 00 00      	jeq r5, 0x0, +0x6 <entrypoint+0x17e68>
   18660: bf 23 00 00 00 00 00 00      	mov64 r3, r2
   18668: 5f 13 00 00 00 00 00 00      	and64 r3, r1
   18670: d5 03 05 00 ff ff ff ff      	jsle r3, -0x1, +0x5 <entrypoint+0x17e78>
   18678: b7 03 00 00 00 00 00 00      	mov64 r3, 0x0
   18680: 7d 21 05 00 00 00 00 00      	jsge r1, r2, +0x5 <entrypoint+0x17e88>
   18688: 05 00 07 00 00 00 00 00      	ja +0x7 <entrypoint+0x17ea0>
   18690: b7 03 00 00 01 00 00 00      	mov64 r3, 0x1
   18698: 05 00 05 00 00 00 00 00      	ja +0x5 <entrypoint+0x17ea0>
   186a0: b7 03 00 00 00 00 00 00      	mov64 r3, 0x0
   186a8: 6d 21 03 00 00 00 00 00      	jsgt r1, r2, +0x3 <entrypoint+0x17ea0>
   186b0: b7 03 00 00 01 00 00 00      	mov64 r3, 0x1
   186b8: 1d 21 01 00 00 00 00 00      	jeq r1, r2, +0x1 <entrypoint+0x17ea0>
   186c0: b7 03 00 00 02 00 00 00      	mov64 r3, 0x2
   186c8: 67 03 00 00 03 00 00 00      	lsh64 r3, 0x3
   186d0: 18 01 00 00 78 93 01 00 00 00 00 00 00 00 00 00      	lddw r1, 0x19378
   186e0: 0f 31 00 00 00 00 00 00      	add64 r1, r3
   186e8: 79 10 00 00 00 00 00 00      	ldxdw r0, [r1 + 0x0]
   186f0: 95 00 00 00 00 00 00 00      	exit
   186f8: 85 10 00 00 01 00 00 00      	call 0x1
   18700: 95 00 00 00 00 00 00 00      	exit
   18708: bf 10 00 00 00 00 00 00      	mov64 r0, r1
   18710: bf 26 00 00 00 00 00 00      	mov64 r6, r2
   18718: af 06 00 00 00 00 00 00      	xor64 r6, r0
   18720: 18 01 00 00 00 00 00 00 00 00 00 00 00 00 00 80      	lddw r1, -0x8000000000000000
   18730: 5f 16 00 00 00 00 00 00      	and64 r6, r1
   18738: 18 04 00 00 ff ff ff ff 00 00 00 00 ff ff 0f 00      	lddw r4, 0xfffffffffffff
   18748: bf 21 00 00 00 00 00 00      	mov64 r1, r2
   18750: 5f 41 00 00 00 00 00 00      	and64 r1, r4
   18758: bf 03 00 00 00 00 00 00      	mov64 r3, r0
   18760: 5f 43 00 00 00 00 00 00      	and64 r3, r4
   18768: bf 27 00 00 00 00 00 00      	mov64 r7, r2
   18770: 77 07 00 00 34 00 00 00      	rsh64 r7, 0x34
   18778: 57 07 00 00 ff 07 00 00      	and64 r7, 0x7ff
   18780: bf 08 00 00 00 00 00 00      	mov64 r8, r0
   18788: 77 08 00 00 34 00 00 00      	rsh64 r8, 0x34
   18790: 57 08 00 00 ff 07 00 00      	and64 r8, 0x7ff
   18798: bf 84 00 00 00 00 00 00      	mov64 r4, r8
   187a0: 07 04 00 00 01 f8 ff ff      	add64 r4, -0x7ff
   187a8: a5 04 2b 00 02 f8 ff ff      	jlt r4, -0x7fe, +0x2b <entrypoint+0x180e0>
   187b0: bf 74 00 00 00 00 00 00      	mov64 r4, r7
   187b8: 07 04 00 00 01 f8 ff ff      	add64 r4, -0x7ff
   187c0: a5 04 28 00 02 f8 ff ff      	jlt r4, -0x7fe, +0x28 <entrypoint+0x180e0>
   187c8: 7b 6a f8 ff 00 00 00 00      	stxdw [r10 - 0x8], r6
   187d0: b7 06 00 00 00 00 00 00      	mov64 r6, 0x0
   187d8: 67 01 00 00 0b 00 00 00      	lsh64 r1, 0xb
   187e0: 18 02 00 00 00 00 00 00 00 00 00 00 00 00 00 80      	lddw r2, -0x8000000000000000
   187f0: 4f 21 00 00 00 00 00 00      	or64 r1, r2
   187f8: 18 09 00 00 00 00 00 00 00 00 00 00 00 00 10 00      	lddw r9, 0x10000000000000
   18808: 4f 93 00 00 00 00 00 00      	or64 r3, r9
   18810: b7 02 00 00 00 00 00 00      	mov64 r2, 0x0
   18818: b7 04 00 00 00 00 00 00      	mov64 r4, 0x0
   18820: 85 10 00 00 ee 00 00 00      	call 0xee
   18828: 0f 87 00 00 00 00 00 00      	add64 r7, r8
   18830: 0f 67 00 00 00 00 00 00      	add64 r7, r6
   18838: bf 12 00 00 00 00 00 00      	mov64 r2, r1
   18840: 5f 92 00 00 00 00 00 00      	and64 r2, r9
   18848: 55 02 22 00 00 00 00 00      	jne r2, 0x0, +0x22 <entrypoint+0x18138>
   18850: 67 01 00 00 01 00 00 00      	lsh64 r1, 0x1
   18858: bf 02 00 00 00 00 00 00      	mov64 r2, r0
   18860: 77 02 00 00 3f 00 00 00      	rsh64 r2, 0x3f
   18868: 4f 21 00 00 00 00 00 00      	or64 r1, r2
   18870: 67 00 00 00 01 00 00 00      	lsh64 r0, 0x1
   18878: 07 07 00 00 01 fc ff ff      	add64 r7, -0x3ff
   18880: 79 a5 f8 ff 00 00 00 00      	ldxdw r5, [r10 - 0x8]
   18888: 65 07 1d 00 fe 07 00 00      	jsgt r7, 0x7fe, +0x1d <entrypoint+0x18150>
   18890: c5 07 31 00 01 00 00 00      	jslt r7, 0x1, +0x31 <entrypoint+0x181f8>
   18898: 18 02 00 00 ff ff ff ff 00 00 00 00 ff ff 0f 00      	lddw r2, 0xfffffffffffff
   188a8: 5f 21 00 00 00 00 00 00      	and64 r1, r2
   188b0: 67 07 00 00 34 00 00 00      	lsh64 r7, 0x34
   188b8: 4f 17 00 00 00 00 00 00      	or64 r7, r1
   188c0: bf 71 00 00 00 00 00 00      	mov64 r1, r7
   188c8: bf 12 00 00 00 00 00 00      	mov64 r2, r1
   188d0: 4f 52 00 00 00 00 00 00      	or64 r2, r5
   188d8: 18 03 00 00 00 00 00 00 00 00 00 00 00 00 00 80      	lddw r3, -0x8000000000000000
   188e8: bd 30 43 00 00 00 00 00      	jle r0, r3, +0x43 <entrypoint+0x182e0>
   188f0: bf 20 00 00 00 00 00 00      	mov64 r0, r2
   188f8: 07 00 00 00 01 00 00 00      	add64 r0, 0x1
   18900: 05 00 46 00 00 00 00 00      	ja +0x46 <entrypoint+0x18310>
   18908: 18 09 00 00 ff ff ff ff 00 00 00 00 ff ff ff 7f      	lddw r9, 0x7fffffffffffffff
   18918: bf 05 00 00 00 00 00 00      	mov64 r5, r0
   18920: 5f 95 00 00 00 00 00 00      	and64 r5, r9
   18928: 18 04 00 00 00 00 00 00 00 00 00 00 00 00 f0 7f      	lddw r4, 0x7ff0000000000000
   18938: bd 45 0c 00 00 00 00 00      	jle r5, r4, +0xc <entrypoint+0x18178>
   18940: 18 01 00 00 00 00 00 00 00 00 00 00 00 00 08 00      	lddw r1, 0x8000000000000
   18950: 4f 10 00 00 00 00 00 00      	or64 r0, r1
   18958: 05 00 3b 00 00 00 00 00      	ja +0x3b <entrypoint+0x18310>
   18960: 07 07 00 00 02 fc ff ff      	add64 r7, -0x3fe
   18968: 79 a5 f8 ff 00 00 00 00      	ldxdw r5, [r10 - 0x8]
   18970: d5 07 e3 ff fe 07 00 00      	jsle r7, 0x7fe, -0x1d <entrypoint+0x18068>
   18978: 18 01 00 00 00 00 00 00 00 00 00 00 00 00 f0 7f      	lddw r1, 0x7ff0000000000000
   18988: 4f 15 00 00 00 00 00 00      	or64 r5, r1
   18990: bf 50 00 00 00 00 00 00      	mov64 r0, r5
   18998: 05 00 33 00 00 00 00 00      	ja +0x33 <entrypoint+0x18310>
   189a0: bf 20 00 00 00 00 00 00      	mov64 r0, r2
   189a8: 5f 90 00 00 00 00 00 00      	and64 r0, r9
   189b0: bd 40 04 00 00 00 00 00      	jle r0, r4, +0x4 <entrypoint+0x181b0>
   189b8: 18 01 00 00 00 00 00 00 00 00 00 00 00 00 08 00      	lddw r1, 0x8000000000000
   189c8: 4f 12 00 00 00 00 00 00      	or64 r2, r1
   189d0: 05 00 2b 00 00 00 00 00      	ja +0x2b <entrypoint+0x18308>
   189d8: 18 02 00 00 00 00 00 00 00 00 00 00 00 00 f0 7f      	lddw r2, 0x7ff0000000000000
   189e8: 5d 25 0c 00 00 00 00 00      	jne r5, r2, +0xc <entrypoint+0x18228>
   189f0: 15 00 0d 00 00 00 00 00      	jeq r0, 0x0, +0xd <entrypoint+0x18238>
   189f8: 18 01 00 00 00 00 00 00 00 00 00 00 00 00 f0 7f      	lddw r1, 0x7ff0000000000000
   18a08: 4f 16 00 00 00 00 00 00      	or64 r6, r1
   18a10: bf 60 00 00 00 00 00 00      	mov64 r0, r6
   18a18: 05 00 23 00 00 00 00 00      	ja +0x23 <entrypoint+0x18310>
   18a20: b7 03 00 00 01 00 00 00      	mov64 r3, 0x1
   18a28: b7 02 00 00 01 00 00 00      	mov64 r2, 0x1
   18a30: 1f 72 00 00 00 00 00 00      	sub64 r2, r7
   18a38: b5 02 07 00 3f 00 00 00      	jle r2, 0x3f, +0x7 <entrypoint+0x18250>
   18a40: bf 50 00 00 00 00 00 00      	mov64 r0, r5
   18a48: 05 00 1d 00 00 00 00 00      	ja +0x1d <entrypoint+0x18310>
   18a50: 5d 20 1d 00 00 00 00 00      	jne r0, r2, +0x1d <entrypoint+0x18318>
   18a58: 55 05 f3 ff 00 00 00 00      	jne r5, 0x0, -0xd <entrypoint+0x181d0>
   18a60: 18 00 00 00 00 00 00 00 00 00 00 00 00 00 f8 7f      	lddw r0, 0x7ff8000000000000
   18a70: 05 00 18 00 00 00 00 00      	ja +0x18 <entrypoint+0x18310>
   18a78: 07 07 00 00 3f 00 00 00      	add64 r7, 0x3f
   18a80: 67 07 00 00 20 00 00 00      	lsh64 r7, 0x20
   18a88: 77 07 00 00 20 00 00 00      	rsh64 r7, 0x20
   18a90: bf 04 00 00 00 00 00 00      	mov64 r4, r0
   18a98: 6f 74 00 00 00 00 00 00      	lsh64 r4, r7
   18aa0: 55 04 01 00 00 00 00 00      	jne r4, 0x0, +0x1 <entrypoint+0x18288>
   18aa8: b7 03 00 00 00 00 00 00      	mov64 r3, 0x0
   18ab0: 7f 20 00 00 00 00 00 00      	rsh64 r0, r2
   18ab8: bf 14 00 00 00 00 00 00      	mov64 r4, r1
   18ac0: 6f 74 00 00 00 00 00 00      	lsh64 r4, r7
   18ac8: 4f 40 00 00 00 00 00 00      	or64 r0, r4
   18ad0: 4f 30 00 00 00 00 00 00      	or64 r0, r3
   18ad8: 7f 21 00 00 00 00 00 00      	rsh64 r1, r2
   18ae0: bf 12 00 00 00 00 00 00      	mov64 r2, r1
   18ae8: 4f 52 00 00 00 00 00 00      	or64 r2, r5
   18af0: 18 03 00 00 00 00 00 00 00 00 00 00 00 00 00 80      	lddw r3, -0x8000000000000000
   18b00: 2d 30 bd ff 00 00 00 00      	jgt r0, r3, -0x43 <entrypoint+0x180c8>
   18b08: 5d 30 04 00 00 00 00 00      	jne r0, r3, +0x4 <entrypoint+0x18308>
   18b10: 57 01 00 00 01 00 00 00      	and64 r1, 0x1
   18b18: bf 20 00 00 00 00 00 00      	mov64 r0, r2
   18b20: 0f 10 00 00 00 00 00 00      	add64 r0, r1
   18b28: 05 00 01 00 00 00 00 00      	ja +0x1 <entrypoint+0x18310>
   18b30: bf 20 00 00 00 00 00 00      	mov64 r0, r2
   18b38: 95 00 00 00 00 00 00 00      	exit
   18b40: 15 05 d9 ff 00 00 00 00      	jeq r5, 0x0, -0x27 <entrypoint+0x181e8>
   18b48: 15 00 d8 ff 00 00 00 00      	jeq r0, 0x0, -0x28 <entrypoint+0x181e8>
   18b50: b7 09 00 00 00 00 00 00      	mov64 r9, 0x0
   18b58: 18 02 00 00 00 00 00 00 00 00 00 00 00 00 10 00      	lddw r2, 0x10000000000000
   18b68: 3d 25 33 00 00 00 00 00      	jge r5, r2, +0x33 <entrypoint+0x184e0>
   18b70: 15 03 2c 00 00 00 00 00      	jeq r3, 0x0, +0x2c <entrypoint+0x184b0>
   18b78: bf 34 00 00 00 00 00 00      	mov64 r4, r3
   18b80: 77 04 00 00 01 00 00 00      	rsh64 r4, 0x1
   18b88: bf 32 00 00 00 00 00 00      	mov64 r2, r3
   18b90: 4f 42 00 00 00 00 00 00      	or64 r2, r4
   18b98: bf 24 00 00 00 00 00 00      	mov64 r4, r2
   18ba0: 77 04 00 00 02 00 00 00      	rsh64 r4, 0x2
   18ba8: 4f 42 00 00 00 00 00 00      	or64 r2, r4
   18bb0: bf 24 00 00 00 00 00 00      	mov64 r4, r2
   18bb8: 77 04 00 00 04 00 00 00      	rsh64 r4, 0x4
   18bc0: 4f 42 00 00 00 00 00 00      	or64 r2, r4
   18bc8: bf 24 00 00 00 00 00 00      	mov64 r4, r2
   18bd0: 77 04 00 00 08 00 00 00      	rsh64 r4, 0x8
   18bd8: 4f 42 00 00 00 00 00 00      	or64 r2, r4
   18be0: bf 24 00 00 00 00 00 00      	mov64 r4, r2
   18be8: 77 04 00 00 10 00 00 00      	rsh64 r4, 0x10
   18bf0: 4f 42 00 00 00 00 00 00      	or64 r2, r4
   18bf8: bf 24 00 00 00 00 00 00      	mov64 r4, r2
   18c00: 77 04 00 00 20 00 00 00      	rsh64 r4, 0x20
   18c08: 4f 42 00 00 00 00 00 00      	or64 r2, r4
   18c10: a7 02 00 00 ff ff ff ff      	xor64 r2, -0x1
   18c18: 18 04 00 00 55 55 55 55 00 00 00 00 55 55 55 55      	lddw r4, 0x5555555555555555
   18c28: bf 25 00 00 00 00 00 00      	mov64 r5, r2
   18c30: 77 05 00 00 01 00 00 00      	rsh64 r5, 0x1
   18c38: 5f 45 00 00 00 00 00 00      	and64 r5, r4
   18c40: 1f 52 00 00 00 00 00 00      	sub64 r2, r5
   18c48: 18 04 00 00 33 33 33 33 00 00 00 00 33 33 33 33      	lddw r4, 0x3333333333333333
   18c58: bf 25 00 00 00 00 00 00      	mov64 r5, r2
   18c60: 5f 45 00 00 00 00 00 00      	and64 r5, r4
   18c68: 77 02 00 00 02 00 00 00      	rsh64 r2, 0x2
   18c70: 5f 42 00 00 00 00 00 00      	and64 r2, r4
   18c78: 0f 25 00 00 00 00 00 00      	add64 r5, r2
   18c80: bf 52 00 00 00 00 00 00      	mov64 r2, r5
   18c88: 77 02 00 00 04 00 00 00      	rsh64 r2, 0x4
   18c90: 0f 25 00 00 00 00 00 00      	add64 r5, r2
   18c98: 18 02 00 00 0f 0f 0f 0f 00 00 00 00 0f 0f 0f 0f      	lddw r2, 0xf0f0f0f0f0f0f0f
   18ca8: 5f 25 00 00 00 00 00 00      	and64 r5, r2
   18cb0: 18 02 00 00 01 01 01 01 00 00 00 00 01 01 01 01      	lddw r2, 0x101010101010101
   18cc0: 2f 25 00 00 00 00 00 00      	mul64 r5, r2
   18cc8: 77 05 00 00 38 00 00 00      	rsh64 r5, 0x38
   18cd0: 05 00 01 00 00 00 00 00      	ja +0x1 <entrypoint+0x184b8>
   18cd8: b7 05 00 00 40 00 00 00      	mov64 r5, 0x40
   18ce0: b7 09 00 00 0c 00 00 00      	mov64 r9, 0xc
   18ce8: 1f 59 00 00 00 00 00 00      	sub64 r9, r5
   18cf0: 07 05 00 00 35 00 00 00      	add64 r5, 0x35
   18cf8: 57 05 00 00 3f 00 00 00      	and64 r5, 0x3f
   18d00: 6f 53 00 00 00 00 00 00      	lsh64 r3, r5
   18d08: 18 02 00 00 ff ff ff ff 00 00 00 00 ff ff 0f 00      	lddw r2, 0xfffffffffffff
   18d18: 7b 6a f8 ff 00 00 00 00      	stxdw [r10 - 0x8], r6
   18d20: 2d 20 2d 00 00 00 00 00      	jgt r0, r2, +0x2d <entrypoint+0x18668>
   18d28: 15 01 2e 00 00 00 00 00      	jeq r1, 0x0, +0x2e <entrypoint+0x18678>
   18d30: bf 14 00 00 00 00 00 00      	mov64 r4, r1
   18d38: 77 04 00 00 01 00 00 00      	rsh64 r4, 0x1
   18d40: bf 12 00 00 00 00 00 00      	mov64 r2, r1
   18d48: 4f 42 00 00 00 00 00 00      	or64 r2, r4
   18d50: bf 24 00 00 00 00 00 00      	mov64 r4, r2
   18d58: 77 04 00 00 02 00 00 00      	rsh64 r4, 0x2
   18d60: 4f 42 00 00 00 00 00 00      	or64 r2, r4
   18d68: bf 24 00 00 00 00 00 00      	mov64 r4, r2
   18d70: 77 04 00 00 04 00 00 00      	rsh64 r4, 0x4
   18d78: 4f 42 00 00 00 00 00 00      	or64 r2, r4
   18d80: bf 24 00 00 00 00 00 00      	mov64 r4, r2
   18d88: 77 04 00 00 08 00 00 00      	rsh64 r4, 0x8
   18d90: 4f 42 00 00 00 00 00 00      	or64 r2, r4
   18d98: bf 24 00 00 00 00 00 00      	mov64 r4, r2
   18da0: 77 04 00 00 10 00 00 00      	rsh64 r4, 0x10
   18da8: 4f 42 00 00 00 00 00 00      	or64 r2, r4
   18db0: bf 24 00 00 00 00 00 00      	mov64 r4, r2
   18db8: 77 04 00 00 20 00 00 00      	rsh64 r4, 0x20
   18dc0: 4f 42 00 00 00 00 00 00      	or64 r2, r4
   18dc8: a7 02 00 00 ff ff ff ff      	xor64 r2, -0x1
   18dd0: 18 04 00 00 55 55 55 55 00 00 00 00 55 55 55 55      	lddw r4, 0x5555555555555555
   18de0: bf 25 00 00 00 00 00 00      	mov64 r5, r2
   18de8: 77 05 00 00 01 00 00 00      	rsh64 r5, 0x1
   18df0: 5f 45 00 00 00 00 00 00      	and64 r5, r4
   18df8: 1f 52 00 00 00 00 00 00      	sub64 r2, r5
   18e00: 18 05 00 00 33 33 33 33 00 00 00 00 33 33 33 33      	lddw r5, 0x3333333333333333
   18e10: bf 24 00 00 00 00 00 00      	mov64 r4, r2
   18e18: 5f 54 00 00 00 00 00 00      	and64 r4, r5
   18e20: 77 02 00 00 02 00 00 00      	rsh64 r2, 0x2
   18e28: 5f 52 00 00 00 00 00 00      	and64 r2, r5
   18e30: 0f 24 00 00 00 00 00 00      	add64 r4, r2
   18e38: bf 42 00 00 00 00 00 00      	mov64 r2, r4
   18e40: 77 02 00 00 04 00 00 00      	rsh64 r2, 0x4
   18e48: 0f 24 00 00 00 00 00 00      	add64 r4, r2
   18e50: 18 02 00 00 0f 0f 0f 0f 00 00 00 00 0f 0f 0f 0f      	lddw r2, 0xf0f0f0f0f0f0f0f
   18e60: 5f 24 00 00 00 00 00 00      	and64 r4, r2
   18e68: 18 02 00 00 01 01 01 01 00 00 00 00 01 01 01 01      	lddw r2, 0x101010101010101
   18e78: 2f 24 00 00 00 00 00 00      	mul64 r4, r2
   18e80: 77 04 00 00 38 00 00 00      	rsh64 r4, 0x38
   18e88: 05 00 03 00 00 00 00 00      	ja +0x3 <entrypoint+0x18680>
   18e90: bf 96 00 00 00 00 00 00      	mov64 r6, r9
   18e98: 05 00 27 ff 00 00 00 00      	ja -0xd9 <entrypoint+0x17fb0>
   18ea0: b7 04 00 00 40 00 00 00      	mov64 r4, 0x40
   18ea8: 1f 49 00 00 00 00 00 00      	sub64 r9, r4
   18eb0: 07 04 00 00 35 00 00 00      	add64 r4, 0x35
   18eb8: 57 04 00 00 3f 00 00 00      	and64 r4, 0x3f
   18ec0: 6f 41 00 00 00 00 00 00      	lsh64 r1, r4
   18ec8: 07 09 00 00 0c 00 00 00      	add64 r9, 0xc
   18ed0: bf 96 00 00 00 00 00 00      	mov64 r6, r9
   18ed8: 05 00 1f ff 00 00 00 00      	ja -0xe1 <entrypoint+0x17fb0>
   18ee0: b7 00 00 00 00 00 00 00      	mov64 r0, 0x0
   18ee8: 18 02 00 00 00 00 00 00 00 00 00 00 00 00 f0 3f      	lddw r2, 0x3ff0000000000000
   18ef8: ad 21 12 00 00 00 00 00      	jlt r1, r2, +0x12 <entrypoint+0x18768>
   18f00: 18 02 00 00 00 00 00 00 00 00 00 00 00 00 f0 43      	lddw r2, 0x43f0000000000000
   18f10: 3d 21 0b 00 00 00 00 00      	jge r1, r2, +0xb <entrypoint+0x18748>
   18f18: bf 10 00 00 00 00 00 00      	mov64 r0, r1
   18f20: 67 00 00 00 0b 00 00 00      	lsh64 r0, 0xb
   18f28: 18 02 00 00 00 00 00 00 00 00 00 00 00 00 00 80      	lddw r2, -0x8000000000000000
   18f38: 4f 20 00 00 00 00 00 00      	or64 r0, r2
   18f40: 77 01 00 00 34 00 00 00      	rsh64 r1, 0x34
   18f48: b7 02 00 00 3e 00 00 00      	mov64 r2, 0x3e
   18f50: 1f 12 00 00 00 00 00 00      	sub64 r2, r1
   18f58: 57 02 00 00 3f 00 00 00      	and64 r2, 0x3f
   18f60: 7f 20 00 00 00 00 00 00      	rsh64 r0, r2
   18f68: 05 00 04 00 00 00 00 00      	ja +0x4 <entrypoint+0x18768>
   18f70: 18 02 00 00 01 00 00 00 00 00 00 00 00 00 f0 7f      	lddw r2, 0x7ff0000000000001
   18f80: 3d 21 01 00 00 00 00 00      	jge r1, r2, +0x1 <entrypoint+0x18768>
   18f88: b7 00 00 00 ff ff ff ff      	mov64 r0, -0x1
   18f90: 95 00 00 00 00 00 00 00      	exit
   18f98: 7b 2a f0 ff 00 00 00 00      	stxdw [r10 - 0x10], r2
   18fa0: bf 12 00 00 00 00 00 00      	mov64 r2, r1
   18fa8: 67 02 00 00 20 00 00 00      	lsh64 r2, 0x20
   18fb0: 77 02 00 00 20 00 00 00      	rsh64 r2, 0x20
   18fb8: bf 37 00 00 00 00 00 00      	mov64 r7, r3
   18fc0: 67 07 00 00 20 00 00 00      	lsh64 r7, 0x20
   18fc8: 77 07 00 00 20 00 00 00      	rsh64 r7, 0x20
   18fd0: 7b 1a f8 ff 00 00 00 00      	stxdw [r10 - 0x8], r1
   18fd8: 77 01 00 00 20 00 00 00      	rsh64 r1, 0x20
   18fe0: bf 70 00 00 00 00 00 00      	mov64 r0, r7
   18fe8: 2f 20 00 00 00 00 00 00      	mul64 r0, r2
   18ff0: 2f 17 00 00 00 00 00 00      	mul64 r7, r1
   18ff8: bf 35 00 00 00 00 00 00      	mov64 r5, r3
   19000: 77 05 00 00 20 00 00 00      	rsh64 r5, 0x20
   19008: bf 56 00 00 00 00 00 00      	mov64 r6, r5
   19010: 2f 26 00 00 00 00 00 00      	mul64 r6, r2
   19018: bf 69 00 00 00 00 00 00      	mov64 r9, r6
   19020: 0f 79 00 00 00 00 00 00      	add64 r9, r7
   19028: b7 02 00 00 01 00 00 00      	mov64 r2, 0x1
   19030: b7 08 00 00 01 00 00 00      	mov64 r8, 0x1
   19038: ad 69 01 00 00 00 00 00      	jlt r9, r6, +0x1 <entrypoint+0x18820>
   19040: b7 08 00 00 00 00 00 00      	mov64 r8, 0x0
   19048: bf 96 00 00 00 00 00 00      	mov64 r6, r9
   19050: 67 06 00 00 20 00 00 00      	lsh64 r6, 0x20
   19058: bf 07 00 00 00 00 00 00      	mov64 r7, r0
   19060: 0f 67 00 00 00 00 00 00      	add64 r7, r6
   19068: ad 07 01 00 00 00 00 00      	jlt r7, r0, +0x1 <entrypoint+0x18850>
   19070: b7 02 00 00 00 00 00 00      	mov64 r2, 0x0
   19078: 77 09 00 00 20 00 00 00      	rsh64 r9, 0x20
   19080: 67 08 00 00 20 00 00 00      	lsh64 r8, 0x20
   19088: 4f 98 00 00 00 00 00 00      	or64 r8, r9
   19090: 79 a0 f0 ff 00 00 00 00      	ldxdw r0, [r10 - 0x10]
   19098: 2f 03 00 00 00 00 00 00      	mul64 r3, r0
   190a0: 79 a0 f8 ff 00 00 00 00      	ldxdw r0, [r10 - 0x8]
   190a8: 2f 04 00 00 00 00 00 00      	mul64 r4, r0
   190b0: 0f 34 00 00 00 00 00 00      	add64 r4, r3
   190b8: 2f 15 00 00 00 00 00 00      	mul64 r5, r1
   190c0: 0f 45 00 00 00 00 00 00      	add64 r5, r4
   190c8: 0f 85 00 00 00 00 00 00      	add64 r5, r8
   190d0: 0f 25 00 00 00 00 00 00      	add64 r5, r2
   190d8: bf 70 00 00 00 00 00 00      	mov64 r0, r7
   190e0: bf 51 00 00 00 00 00 00      	mov64 r1, r5
   190e8: 95 00 00 00 00 00 00 00      	exit
   190f0: b7 03 00 00 03 00 00 00      	mov64 r3, 0x3
   190f8: 18 00 00 00 ff ff ff ff 00 00 00 00 ff ff ff 7f      	lddw r0, 0x7fffffffffffffff
   19108: bf 14 00 00 00 00 00 00      	mov64 r4, r1
   19110: 5f 04 00 00 00 00 00 00      	and64 r4, r0
   19118: 18 06 00 00 00 00 00 00 00 00 00 00 00 00 f0 7f      	lddw r6, 0x7ff0000000000000
   19128: 2d 64 12 00 00 00 00 00      	jgt r4, r6, +0x12 <entrypoint+0x18998>
   19130: bf 25 00 00 00 00 00 00      	mov64 r5, r2
   19138: 5f 05 00 00 00 00 00 00      	and64 r5, r0
   19140: 2d 65 0f 00 00 00 00 00      	jgt r5, r6, +0xf <entrypoint+0x18998>
   19148: 4f 45 00 00 00 00 00 00      	or64 r5, r4
   19150: 15 05 06 00 00 00 00 00      	jeq r5, 0x0, +0x6 <entrypoint+0x18960>
   19158: bf 23 00 00 00 00 00 00      	mov64 r3, r2
   19160: 5f 13 00 00 00 00 00 00      	and64 r3, r1
   19168: d5 03 05 00 ff ff ff ff      	jsle r3, -0x1, +0x5 <entrypoint+0x18970>
   19170: b7 03 00 00 00 00 00 00      	mov64 r3, 0x0
   19178: 7d 21 05 00 00 00 00 00      	jsge r1, r2, +0x5 <entrypoint+0x18980>
   19180: 05 00 07 00 00 00 00 00      	ja +0x7 <entrypoint+0x18998>
   19188: b7 03 00 00 01 00 00 00      	mov64 r3, 0x1
   19190: 05 00 05 00 00 00 00 00      	ja +0x5 <entrypoint+0x18998>
   19198: b7 03 00 00 00 00 00 00      	mov64 r3, 0x0
   191a0: 6d 21 03 00 00 00 00 00      	jsgt r1, r2, +0x3 <entrypoint+0x18998>
   191a8: b7 03 00 00 01 00 00 00      	mov64 r3, 0x1
   191b0: 1d 21 01 00 00 00 00 00      	jeq r1, r2, +0x1 <entrypoint+0x18998>
   191b8: b7 03 00 00 02 00 00 00      	mov64 r3, 0x2
   191c0: 67 03 00 00 03 00 00 00      	lsh64 r3, 0x3
   191c8: 18 01 00 00 78 93 01 00 00 00 00 00 00 00 00 00      	lddw r1, 0x19378
   191d8: 0f 31 00 00 00 00 00 00      	add64 r1, r3
   191e0: 79 10 00 00 00 00 00 00      	ldxdw r0, [r1 + 0x0]
   191e8: 95 00 00 00 00 00 00 00      	exit
